
rfr26-tempSensor.elf:     file format elf32-littlearm

Sections:
Idx Name          Size      VMA       LMA       File off  Algn
  0 .isr_vector   0000010c  08000000  08000000  00001000  2**0
                  CONTENTS, ALLOC, LOAD, READONLY, DATA
  1 .text         00007b70  08000110  08000110  00001110  2**3
                  CONTENTS, ALLOC, LOAD, READONLY, CODE
  2 .rodata       00000504  08007c80  08007c80  00008c80  2**3
                  CONTENTS, ALLOC, LOAD, READONLY, DATA
  3 .ARM.extab    00000000  08008184  08008184  0000a1dc  2**0
                  CONTENTS, READONLY
  4 .ARM          00000008  08008184  08008184  00009184  2**2
                  CONTENTS, ALLOC, LOAD, READONLY, DATA
  5 .preinit_array 00000000  0800818c  0800818c  0000a1dc  2**0
                  CONTENTS, ALLOC, LOAD, DATA
  6 .init_array   00000004  0800818c  0800818c  0000918c  2**2
                  CONTENTS, ALLOC, LOAD, READONLY, DATA
  7 .fini_array   00000004  08008190  08008190  00009190  2**2
                  CONTENTS, ALLOC, LOAD, READONLY, DATA
  8 .data         000001dc  20000000  08008194  0000a000  2**2
                  CONTENTS, ALLOC, LOAD, DATA
  9 .bss          00000380  200001dc  08008370  0000a1dc  2**2
                  ALLOC
 10 ._user_heap_stack 00000604  2000055c  08008370  0000a55c  2**0
                  ALLOC
 11 .ARM.attributes 00000029  00000000  00000000  0000a1dc  2**0
                  CONTENTS, READONLY
 12 .debug_info   0001033d  00000000  00000000  0000a205  2**0
                  CONTENTS, READONLY, DEBUGGING, OCTETS
 13 .debug_abbrev 000024cd  00000000  00000000  0001a542  2**0
                  CONTENTS, READONLY, DEBUGGING, OCTETS
 14 .debug_aranges 000010b0  00000000  00000000  0001ca10  2**3
                  CONTENTS, READONLY, DEBUGGING, OCTETS
 15 .debug_rnglists 00000d0e  00000000  00000000  0001dac0  2**0
                  CONTENTS, READONLY, DEBUGGING, OCTETS
 16 .debug_macro  00019184  00000000  00000000  0001e7ce  2**0
                  CONTENTS, READONLY, DEBUGGING, OCTETS
 17 .debug_line   00012002  00000000  00000000  00037952  2**0
                  CONTENTS, READONLY, DEBUGGING, OCTETS
 18 .debug_str    00093c8f  00000000  00000000  00049954  2**0
                  CONTENTS, READONLY, DEBUGGING, OCTETS
 19 .comment      00000043  00000000  00000000  000dd5e3  2**0
                  CONTENTS, READONLY
 20 .debug_frame  0000594c  00000000  00000000  000dd628  2**2
                  CONTENTS, READONLY, DEBUGGING, OCTETS
 21 .debug_line_str 0000006f  00000000  00000000  000e2f74  2**0
                  CONTENTS, READONLY, DEBUGGING, OCTETS

Disassembly of section .text:

08000110 <__do_global_dtors_aux>:
 8000110:	b510      	push	{r4, lr}
 8000112:	4c05      	ldr	r4, [pc, #20]	@ (8000128 <__do_global_dtors_aux+0x18>)
 8000114:	7823      	ldrb	r3, [r4, #0]
 8000116:	b933      	cbnz	r3, 8000126 <__do_global_dtors_aux+0x16>
 8000118:	4b04      	ldr	r3, [pc, #16]	@ (800012c <__do_global_dtors_aux+0x1c>)
 800011a:	b113      	cbz	r3, 8000122 <__do_global_dtors_aux+0x12>
 800011c:	4804      	ldr	r0, [pc, #16]	@ (8000130 <__do_global_dtors_aux+0x20>)
 800011e:	f3af 8000 	nop.w
 8000122:	2301      	movs	r3, #1
 8000124:	7023      	strb	r3, [r4, #0]
 8000126:	bd10      	pop	{r4, pc}
 8000128:	200001dc 	.word	0x200001dc
 800012c:	00000000 	.word	0x00000000
 8000130:	08007c68 	.word	0x08007c68

08000134 <frame_dummy>:
 8000134:	b508      	push	{r3, lr}
 8000136:	4b03      	ldr	r3, [pc, #12]	@ (8000144 <frame_dummy+0x10>)
 8000138:	b11b      	cbz	r3, 8000142 <frame_dummy+0xe>
 800013a:	4903      	ldr	r1, [pc, #12]	@ (8000148 <frame_dummy+0x14>)
 800013c:	4803      	ldr	r0, [pc, #12]	@ (800014c <frame_dummy+0x18>)
 800013e:	f3af 8000 	nop.w
 8000142:	bd08      	pop	{r3, pc}
 8000144:	00000000 	.word	0x00000000
 8000148:	200001e0 	.word	0x200001e0
 800014c:	08007c68 	.word	0x08007c68

08000150 <strlen>:
 8000150:	4603      	mov	r3, r0
 8000152:	f813 2b01 	ldrb.w	r2, [r3], #1
 8000156:	2a00      	cmp	r2, #0
 8000158:	d1fb      	bne.n	8000152 <strlen+0x2>
 800015a:	1a18      	subs	r0, r3, r0
 800015c:	3801      	subs	r0, #1
 800015e:	4770      	bx	lr

08000160 <__aeabi_drsub>:
 8000160:	f081 4100 	eor.w	r1, r1, #2147483648	@ 0x80000000
 8000164:	e002      	b.n	800016c <__adddf3>
 8000166:	bf00      	nop

08000168 <__aeabi_dsub>:
 8000168:	f083 4300 	eor.w	r3, r3, #2147483648	@ 0x80000000

0800016c <__adddf3>:
 800016c:	b530      	push	{r4, r5, lr}
 800016e:	ea4f 0441 	mov.w	r4, r1, lsl #1
 8000172:	ea4f 0543 	mov.w	r5, r3, lsl #1
 8000176:	ea94 0f05 	teq	r4, r5
 800017a:	bf08      	it	eq
 800017c:	ea90 0f02 	teqeq	r0, r2
 8000180:	bf1f      	itttt	ne
 8000182:	ea54 0c00 	orrsne.w	ip, r4, r0
 8000186:	ea55 0c02 	orrsne.w	ip, r5, r2
 800018a:	ea7f 5c64 	mvnsne.w	ip, r4, asr #21
 800018e:	ea7f 5c65 	mvnsne.w	ip, r5, asr #21
 8000192:	f000 80e2 	beq.w	800035a <__adddf3+0x1ee>
 8000196:	ea4f 5454 	mov.w	r4, r4, lsr #21
 800019a:	ebd4 5555 	rsbs	r5, r4, r5, lsr #21
 800019e:	bfb8      	it	lt
 80001a0:	426d      	neglt	r5, r5
 80001a2:	dd0c      	ble.n	80001be <__adddf3+0x52>
 80001a4:	442c      	add	r4, r5
 80001a6:	ea80 0202 	eor.w	r2, r0, r2
 80001aa:	ea81 0303 	eor.w	r3, r1, r3
 80001ae:	ea82 0000 	eor.w	r0, r2, r0
 80001b2:	ea83 0101 	eor.w	r1, r3, r1
 80001b6:	ea80 0202 	eor.w	r2, r0, r2
 80001ba:	ea81 0303 	eor.w	r3, r1, r3
 80001be:	2d36      	cmp	r5, #54	@ 0x36
 80001c0:	bf88      	it	hi
 80001c2:	bd30      	pophi	{r4, r5, pc}
 80001c4:	f011 4f00 	tst.w	r1, #2147483648	@ 0x80000000
 80001c8:	ea4f 3101 	mov.w	r1, r1, lsl #12
 80001cc:	f44f 1c80 	mov.w	ip, #1048576	@ 0x100000
 80001d0:	ea4c 3111 	orr.w	r1, ip, r1, lsr #12
 80001d4:	d002      	beq.n	80001dc <__adddf3+0x70>
 80001d6:	4240      	negs	r0, r0
 80001d8:	eb61 0141 	sbc.w	r1, r1, r1, lsl #1
 80001dc:	f013 4f00 	tst.w	r3, #2147483648	@ 0x80000000
 80001e0:	ea4f 3303 	mov.w	r3, r3, lsl #12
 80001e4:	ea4c 3313 	orr.w	r3, ip, r3, lsr #12
 80001e8:	d002      	beq.n	80001f0 <__adddf3+0x84>
 80001ea:	4252      	negs	r2, r2
 80001ec:	eb63 0343 	sbc.w	r3, r3, r3, lsl #1
 80001f0:	ea94 0f05 	teq	r4, r5
 80001f4:	f000 80a7 	beq.w	8000346 <__adddf3+0x1da>
 80001f8:	f1a4 0401 	sub.w	r4, r4, #1
 80001fc:	f1d5 0e20 	rsbs	lr, r5, #32
 8000200:	db0d      	blt.n	800021e <__adddf3+0xb2>
 8000202:	fa02 fc0e 	lsl.w	ip, r2, lr
 8000206:	fa22 f205 	lsr.w	r2, r2, r5
 800020a:	1880      	adds	r0, r0, r2
 800020c:	f141 0100 	adc.w	r1, r1, #0
 8000210:	fa03 f20e 	lsl.w	r2, r3, lr
 8000214:	1880      	adds	r0, r0, r2
 8000216:	fa43 f305 	asr.w	r3, r3, r5
 800021a:	4159      	adcs	r1, r3
 800021c:	e00e      	b.n	800023c <__adddf3+0xd0>
 800021e:	f1a5 0520 	sub.w	r5, r5, #32
 8000222:	f10e 0e20 	add.w	lr, lr, #32
 8000226:	2a01      	cmp	r2, #1
 8000228:	fa03 fc0e 	lsl.w	ip, r3, lr
 800022c:	bf28      	it	cs
 800022e:	f04c 0c02 	orrcs.w	ip, ip, #2
 8000232:	fa43 f305 	asr.w	r3, r3, r5
 8000236:	18c0      	adds	r0, r0, r3
 8000238:	eb51 71e3 	adcs.w	r1, r1, r3, asr #31
 800023c:	f001 4500 	and.w	r5, r1, #2147483648	@ 0x80000000
 8000240:	d507      	bpl.n	8000252 <__adddf3+0xe6>
 8000242:	f04f 0e00 	mov.w	lr, #0
 8000246:	f1dc 0c00 	rsbs	ip, ip, #0
 800024a:	eb7e 0000 	sbcs.w	r0, lr, r0
 800024e:	eb6e 0101 	sbc.w	r1, lr, r1
 8000252:	f5b1 1f80 	cmp.w	r1, #1048576	@ 0x100000
 8000256:	d31b      	bcc.n	8000290 <__adddf3+0x124>
 8000258:	f5b1 1f00 	cmp.w	r1, #2097152	@ 0x200000
 800025c:	d30c      	bcc.n	8000278 <__adddf3+0x10c>
 800025e:	0849      	lsrs	r1, r1, #1
 8000260:	ea5f 0030 	movs.w	r0, r0, rrx
 8000264:	ea4f 0c3c 	mov.w	ip, ip, rrx
 8000268:	f104 0401 	add.w	r4, r4, #1
 800026c:	ea4f 5244 	mov.w	r2, r4, lsl #21
 8000270:	f512 0f80 	cmn.w	r2, #4194304	@ 0x400000
 8000274:	f080 809a 	bcs.w	80003ac <__adddf3+0x240>
 8000278:	f1bc 4f00 	cmp.w	ip, #2147483648	@ 0x80000000
 800027c:	bf08      	it	eq
 800027e:	ea5f 0c50 	movseq.w	ip, r0, lsr #1
 8000282:	f150 0000 	adcs.w	r0, r0, #0
 8000286:	eb41 5104 	adc.w	r1, r1, r4, lsl #20
 800028a:	ea41 0105 	orr.w	r1, r1, r5
 800028e:	bd30      	pop	{r4, r5, pc}
 8000290:	ea5f 0c4c 	movs.w	ip, ip, lsl #1
 8000294:	4140      	adcs	r0, r0
 8000296:	eb41 0101 	adc.w	r1, r1, r1
 800029a:	3c01      	subs	r4, #1
 800029c:	bf28      	it	cs
 800029e:	f5b1 1f80 	cmpcs.w	r1, #1048576	@ 0x100000
 80002a2:	d2e9      	bcs.n	8000278 <__adddf3+0x10c>
 80002a4:	f091 0f00 	teq	r1, #0
 80002a8:	bf04      	itt	eq
 80002aa:	4601      	moveq	r1, r0
 80002ac:	2000      	moveq	r0, #0
 80002ae:	fab1 f381 	clz	r3, r1
 80002b2:	bf08      	it	eq
 80002b4:	3320      	addeq	r3, #32
 80002b6:	f1a3 030b 	sub.w	r3, r3, #11
 80002ba:	f1b3 0220 	subs.w	r2, r3, #32
 80002be:	da0c      	bge.n	80002da <__adddf3+0x16e>
 80002c0:	320c      	adds	r2, #12
 80002c2:	dd08      	ble.n	80002d6 <__adddf3+0x16a>
 80002c4:	f102 0c14 	add.w	ip, r2, #20
 80002c8:	f1c2 020c 	rsb	r2, r2, #12
 80002cc:	fa01 f00c 	lsl.w	r0, r1, ip
 80002d0:	fa21 f102 	lsr.w	r1, r1, r2
 80002d4:	e00c      	b.n	80002f0 <__adddf3+0x184>
 80002d6:	f102 0214 	add.w	r2, r2, #20
 80002da:	bfd8      	it	le
 80002dc:	f1c2 0c20 	rsble	ip, r2, #32
 80002e0:	fa01 f102 	lsl.w	r1, r1, r2
 80002e4:	fa20 fc0c 	lsr.w	ip, r0, ip
 80002e8:	bfdc      	itt	le
 80002ea:	ea41 010c 	orrle.w	r1, r1, ip
 80002ee:	4090      	lslle	r0, r2
 80002f0:	1ae4      	subs	r4, r4, r3
 80002f2:	bfa2      	ittt	ge
 80002f4:	eb01 5104 	addge.w	r1, r1, r4, lsl #20
 80002f8:	4329      	orrge	r1, r5
 80002fa:	bd30      	popge	{r4, r5, pc}
 80002fc:	ea6f 0404 	mvn.w	r4, r4
 8000300:	3c1f      	subs	r4, #31
 8000302:	da1c      	bge.n	800033e <__adddf3+0x1d2>
 8000304:	340c      	adds	r4, #12
 8000306:	dc0e      	bgt.n	8000326 <__adddf3+0x1ba>
 8000308:	f104 0414 	add.w	r4, r4, #20
 800030c:	f1c4 0220 	rsb	r2, r4, #32
 8000310:	fa20 f004 	lsr.w	r0, r0, r4
 8000314:	fa01 f302 	lsl.w	r3, r1, r2
 8000318:	ea40 0003 	orr.w	r0, r0, r3
 800031c:	fa21 f304 	lsr.w	r3, r1, r4
 8000320:	ea45 0103 	orr.w	r1, r5, r3
 8000324:	bd30      	pop	{r4, r5, pc}
 8000326:	f1c4 040c 	rsb	r4, r4, #12
 800032a:	f1c4 0220 	rsb	r2, r4, #32
 800032e:	fa20 f002 	lsr.w	r0, r0, r2
 8000332:	fa01 f304 	lsl.w	r3, r1, r4
 8000336:	ea40 0003 	orr.w	r0, r0, r3
 800033a:	4629      	mov	r1, r5
 800033c:	bd30      	pop	{r4, r5, pc}
 800033e:	fa21 f004 	lsr.w	r0, r1, r4
 8000342:	4629      	mov	r1, r5
 8000344:	bd30      	pop	{r4, r5, pc}
 8000346:	f094 0f00 	teq	r4, #0
 800034a:	f483 1380 	eor.w	r3, r3, #1048576	@ 0x100000
 800034e:	bf06      	itte	eq
 8000350:	f481 1180 	eoreq.w	r1, r1, #1048576	@ 0x100000
 8000354:	3401      	addeq	r4, #1
 8000356:	3d01      	subne	r5, #1
 8000358:	e74e      	b.n	80001f8 <__adddf3+0x8c>
 800035a:	ea7f 5c64 	mvns.w	ip, r4, asr #21
 800035e:	bf18      	it	ne
 8000360:	ea7f 5c65 	mvnsne.w	ip, r5, asr #21
 8000364:	d029      	beq.n	80003ba <__adddf3+0x24e>
 8000366:	ea94 0f05 	teq	r4, r5
 800036a:	bf08      	it	eq
 800036c:	ea90 0f02 	teqeq	r0, r2
 8000370:	d005      	beq.n	800037e <__adddf3+0x212>
 8000372:	ea54 0c00 	orrs.w	ip, r4, r0
 8000376:	bf04      	itt	eq
 8000378:	4619      	moveq	r1, r3
 800037a:	4610      	moveq	r0, r2
 800037c:	bd30      	pop	{r4, r5, pc}
 800037e:	ea91 0f03 	teq	r1, r3
 8000382:	bf1e      	ittt	ne
 8000384:	2100      	movne	r1, #0
 8000386:	2000      	movne	r0, #0
 8000388:	bd30      	popne	{r4, r5, pc}
 800038a:	ea5f 5c54 	movs.w	ip, r4, lsr #21
 800038e:	d105      	bne.n	800039c <__adddf3+0x230>
 8000390:	0040      	lsls	r0, r0, #1
 8000392:	4149      	adcs	r1, r1
 8000394:	bf28      	it	cs
 8000396:	f041 4100 	orrcs.w	r1, r1, #2147483648	@ 0x80000000
 800039a:	bd30      	pop	{r4, r5, pc}
 800039c:	f514 0480 	adds.w	r4, r4, #4194304	@ 0x400000
 80003a0:	bf3c      	itt	cc
 80003a2:	f501 1180 	addcc.w	r1, r1, #1048576	@ 0x100000
 80003a6:	bd30      	popcc	{r4, r5, pc}
 80003a8:	f001 4500 	and.w	r5, r1, #2147483648	@ 0x80000000
 80003ac:	f045 41fe 	orr.w	r1, r5, #2130706432	@ 0x7f000000
 80003b0:	f441 0170 	orr.w	r1, r1, #15728640	@ 0xf00000
 80003b4:	f04f 0000 	mov.w	r0, #0
 80003b8:	bd30      	pop	{r4, r5, pc}
 80003ba:	ea7f 5c64 	mvns.w	ip, r4, asr #21
 80003be:	bf1a      	itte	ne
 80003c0:	4619      	movne	r1, r3
 80003c2:	4610      	movne	r0, r2
 80003c4:	ea7f 5c65 	mvnseq.w	ip, r5, asr #21
 80003c8:	bf1c      	itt	ne
 80003ca:	460b      	movne	r3, r1
 80003cc:	4602      	movne	r2, r0
 80003ce:	ea50 3401 	orrs.w	r4, r0, r1, lsl #12
 80003d2:	bf06      	itte	eq
 80003d4:	ea52 3503 	orrseq.w	r5, r2, r3, lsl #12
 80003d8:	ea91 0f03 	teqeq	r1, r3
 80003dc:	f441 2100 	orrne.w	r1, r1, #524288	@ 0x80000
 80003e0:	bd30      	pop	{r4, r5, pc}
 80003e2:	bf00      	nop

080003e4 <__aeabi_ui2d>:
 80003e4:	f090 0f00 	teq	r0, #0
 80003e8:	bf04      	itt	eq
 80003ea:	2100      	moveq	r1, #0
 80003ec:	4770      	bxeq	lr
 80003ee:	b530      	push	{r4, r5, lr}
 80003f0:	f44f 6480 	mov.w	r4, #1024	@ 0x400
 80003f4:	f104 0432 	add.w	r4, r4, #50	@ 0x32
 80003f8:	f04f 0500 	mov.w	r5, #0
 80003fc:	f04f 0100 	mov.w	r1, #0
 8000400:	e750      	b.n	80002a4 <__adddf3+0x138>
 8000402:	bf00      	nop

08000404 <__aeabi_i2d>:
 8000404:	f090 0f00 	teq	r0, #0
 8000408:	bf04      	itt	eq
 800040a:	2100      	moveq	r1, #0
 800040c:	4770      	bxeq	lr
 800040e:	b530      	push	{r4, r5, lr}
 8000410:	f44f 6480 	mov.w	r4, #1024	@ 0x400
 8000414:	f104 0432 	add.w	r4, r4, #50	@ 0x32
 8000418:	f010 4500 	ands.w	r5, r0, #2147483648	@ 0x80000000
 800041c:	bf48      	it	mi
 800041e:	4240      	negmi	r0, r0
 8000420:	f04f 0100 	mov.w	r1, #0
 8000424:	e73e      	b.n	80002a4 <__adddf3+0x138>
 8000426:	bf00      	nop

08000428 <__aeabi_f2d>:
 8000428:	0042      	lsls	r2, r0, #1
 800042a:	ea4f 01e2 	mov.w	r1, r2, asr #3
 800042e:	ea4f 0131 	mov.w	r1, r1, rrx
 8000432:	ea4f 7002 	mov.w	r0, r2, lsl #28
 8000436:	bf1f      	itttt	ne
 8000438:	f012 437f 	andsne.w	r3, r2, #4278190080	@ 0xff000000
 800043c:	f093 4f7f 	teqne	r3, #4278190080	@ 0xff000000
 8000440:	f081 5160 	eorne.w	r1, r1, #939524096	@ 0x38000000
 8000444:	4770      	bxne	lr
 8000446:	f032 427f 	bics.w	r2, r2, #4278190080	@ 0xff000000
 800044a:	bf08      	it	eq
 800044c:	4770      	bxeq	lr
 800044e:	f093 4f7f 	teq	r3, #4278190080	@ 0xff000000
 8000452:	bf04      	itt	eq
 8000454:	f441 2100 	orreq.w	r1, r1, #524288	@ 0x80000
 8000458:	4770      	bxeq	lr
 800045a:	b530      	push	{r4, r5, lr}
 800045c:	f44f 7460 	mov.w	r4, #896	@ 0x380
 8000460:	f001 4500 	and.w	r5, r1, #2147483648	@ 0x80000000
 8000464:	f021 4100 	bic.w	r1, r1, #2147483648	@ 0x80000000
 8000468:	e71c      	b.n	80002a4 <__adddf3+0x138>
 800046a:	bf00      	nop

0800046c <__aeabi_ul2d>:
 800046c:	ea50 0201 	orrs.w	r2, r0, r1
 8000470:	bf08      	it	eq
 8000472:	4770      	bxeq	lr
 8000474:	b530      	push	{r4, r5, lr}
 8000476:	f04f 0500 	mov.w	r5, #0
 800047a:	e00a      	b.n	8000492 <__aeabi_l2d+0x16>

0800047c <__aeabi_l2d>:
 800047c:	ea50 0201 	orrs.w	r2, r0, r1
 8000480:	bf08      	it	eq
 8000482:	4770      	bxeq	lr
 8000484:	b530      	push	{r4, r5, lr}
 8000486:	f011 4500 	ands.w	r5, r1, #2147483648	@ 0x80000000
 800048a:	d502      	bpl.n	8000492 <__aeabi_l2d+0x16>
 800048c:	4240      	negs	r0, r0
 800048e:	eb61 0141 	sbc.w	r1, r1, r1, lsl #1
 8000492:	f44f 6480 	mov.w	r4, #1024	@ 0x400
 8000496:	f104 0432 	add.w	r4, r4, #50	@ 0x32
 800049a:	ea5f 5c91 	movs.w	ip, r1, lsr #22
 800049e:	f43f aed8 	beq.w	8000252 <__adddf3+0xe6>
 80004a2:	f04f 0203 	mov.w	r2, #3
 80004a6:	ea5f 0cdc 	movs.w	ip, ip, lsr #3
 80004aa:	bf18      	it	ne
 80004ac:	3203      	addne	r2, #3
 80004ae:	ea5f 0cdc 	movs.w	ip, ip, lsr #3
 80004b2:	bf18      	it	ne
 80004b4:	3203      	addne	r2, #3
 80004b6:	eb02 02dc 	add.w	r2, r2, ip, lsr #3
 80004ba:	f1c2 0320 	rsb	r3, r2, #32
 80004be:	fa00 fc03 	lsl.w	ip, r0, r3
 80004c2:	fa20 f002 	lsr.w	r0, r0, r2
 80004c6:	fa01 fe03 	lsl.w	lr, r1, r3
 80004ca:	ea40 000e 	orr.w	r0, r0, lr
 80004ce:	fa21 f102 	lsr.w	r1, r1, r2
 80004d2:	4414      	add	r4, r2
 80004d4:	e6bd      	b.n	8000252 <__adddf3+0xe6>
 80004d6:	bf00      	nop

080004d8 <__aeabi_dmul>:
 80004d8:	b570      	push	{r4, r5, r6, lr}
 80004da:	f04f 0cff 	mov.w	ip, #255	@ 0xff
 80004de:	f44c 6ce0 	orr.w	ip, ip, #1792	@ 0x700
 80004e2:	ea1c 5411 	ands.w	r4, ip, r1, lsr #20
 80004e6:	bf1d      	ittte	ne
 80004e8:	ea1c 5513 	andsne.w	r5, ip, r3, lsr #20
 80004ec:	ea94 0f0c 	teqne	r4, ip
 80004f0:	ea95 0f0c 	teqne	r5, ip
 80004f4:	f000 f8de 	bleq	80006b4 <__aeabi_dmul+0x1dc>
 80004f8:	442c      	add	r4, r5
 80004fa:	ea81 0603 	eor.w	r6, r1, r3
 80004fe:	ea21 514c 	bic.w	r1, r1, ip, lsl #21
 8000502:	ea23 534c 	bic.w	r3, r3, ip, lsl #21
 8000506:	ea50 3501 	orrs.w	r5, r0, r1, lsl #12
 800050a:	bf18      	it	ne
 800050c:	ea52 3503 	orrsne.w	r5, r2, r3, lsl #12
 8000510:	f441 1180 	orr.w	r1, r1, #1048576	@ 0x100000
 8000514:	f443 1380 	orr.w	r3, r3, #1048576	@ 0x100000
 8000518:	d038      	beq.n	800058c <__aeabi_dmul+0xb4>
 800051a:	fba0 ce02 	umull	ip, lr, r0, r2
 800051e:	f04f 0500 	mov.w	r5, #0
 8000522:	fbe1 e502 	umlal	lr, r5, r1, r2
 8000526:	f006 4200 	and.w	r2, r6, #2147483648	@ 0x80000000
 800052a:	fbe0 e503 	umlal	lr, r5, r0, r3
 800052e:	f04f 0600 	mov.w	r6, #0
 8000532:	fbe1 5603 	umlal	r5, r6, r1, r3
 8000536:	f09c 0f00 	teq	ip, #0
 800053a:	bf18      	it	ne
 800053c:	f04e 0e01 	orrne.w	lr, lr, #1
 8000540:	f1a4 04ff 	sub.w	r4, r4, #255	@ 0xff
 8000544:	f5b6 7f00 	cmp.w	r6, #512	@ 0x200
 8000548:	f564 7440 	sbc.w	r4, r4, #768	@ 0x300
 800054c:	d204      	bcs.n	8000558 <__aeabi_dmul+0x80>
 800054e:	ea5f 0e4e 	movs.w	lr, lr, lsl #1
 8000552:	416d      	adcs	r5, r5
 8000554:	eb46 0606 	adc.w	r6, r6, r6
 8000558:	ea42 21c6 	orr.w	r1, r2, r6, lsl #11
 800055c:	ea41 5155 	orr.w	r1, r1, r5, lsr #21
 8000560:	ea4f 20c5 	mov.w	r0, r5, lsl #11
 8000564:	ea40 505e 	orr.w	r0, r0, lr, lsr #21
 8000568:	ea4f 2ece 	mov.w	lr, lr, lsl #11
 800056c:	f1b4 0cfd 	subs.w	ip, r4, #253	@ 0xfd
 8000570:	bf88      	it	hi
 8000572:	f5bc 6fe0 	cmphi.w	ip, #1792	@ 0x700
 8000576:	d81e      	bhi.n	80005b6 <__aeabi_dmul+0xde>
 8000578:	f1be 4f00 	cmp.w	lr, #2147483648	@ 0x80000000
 800057c:	bf08      	it	eq
 800057e:	ea5f 0e50 	movseq.w	lr, r0, lsr #1
 8000582:	f150 0000 	adcs.w	r0, r0, #0
 8000586:	eb41 5104 	adc.w	r1, r1, r4, lsl #20
 800058a:	bd70      	pop	{r4, r5, r6, pc}
 800058c:	f006 4600 	and.w	r6, r6, #2147483648	@ 0x80000000
 8000590:	ea46 0101 	orr.w	r1, r6, r1
 8000594:	ea40 0002 	orr.w	r0, r0, r2
 8000598:	ea81 0103 	eor.w	r1, r1, r3
 800059c:	ebb4 045c 	subs.w	r4, r4, ip, lsr #1
 80005a0:	bfc2      	ittt	gt
 80005a2:	ebd4 050c 	rsbsgt	r5, r4, ip
 80005a6:	ea41 5104 	orrgt.w	r1, r1, r4, lsl #20
 80005aa:	bd70      	popgt	{r4, r5, r6, pc}
 80005ac:	f441 1180 	orr.w	r1, r1, #1048576	@ 0x100000
 80005b0:	f04f 0e00 	mov.w	lr, #0
 80005b4:	3c01      	subs	r4, #1
 80005b6:	f300 80ab 	bgt.w	8000710 <__aeabi_dmul+0x238>
 80005ba:	f114 0f36 	cmn.w	r4, #54	@ 0x36
 80005be:	bfde      	ittt	le
 80005c0:	2000      	movle	r0, #0
 80005c2:	f001 4100 	andle.w	r1, r1, #2147483648	@ 0x80000000
 80005c6:	bd70      	pople	{r4, r5, r6, pc}
 80005c8:	f1c4 0400 	rsb	r4, r4, #0
 80005cc:	3c20      	subs	r4, #32
 80005ce:	da35      	bge.n	800063c <__aeabi_dmul+0x164>
 80005d0:	340c      	adds	r4, #12
 80005d2:	dc1b      	bgt.n	800060c <__aeabi_dmul+0x134>
 80005d4:	f104 0414 	add.w	r4, r4, #20
 80005d8:	f1c4 0520 	rsb	r5, r4, #32
 80005dc:	fa00 f305 	lsl.w	r3, r0, r5
 80005e0:	fa20 f004 	lsr.w	r0, r0, r4
 80005e4:	fa01 f205 	lsl.w	r2, r1, r5
 80005e8:	ea40 0002 	orr.w	r0, r0, r2
 80005ec:	f001 4200 	and.w	r2, r1, #2147483648	@ 0x80000000
 80005f0:	f021 4100 	bic.w	r1, r1, #2147483648	@ 0x80000000
 80005f4:	eb10 70d3 	adds.w	r0, r0, r3, lsr #31
 80005f8:	fa21 f604 	lsr.w	r6, r1, r4
 80005fc:	eb42 0106 	adc.w	r1, r2, r6
 8000600:	ea5e 0e43 	orrs.w	lr, lr, r3, lsl #1
 8000604:	bf08      	it	eq
 8000606:	ea20 70d3 	biceq.w	r0, r0, r3, lsr #31
 800060a:	bd70      	pop	{r4, r5, r6, pc}
 800060c:	f1c4 040c 	rsb	r4, r4, #12
 8000610:	f1c4 0520 	rsb	r5, r4, #32
 8000614:	fa00 f304 	lsl.w	r3, r0, r4
 8000618:	fa20 f005 	lsr.w	r0, r0, r5
 800061c:	fa01 f204 	lsl.w	r2, r1, r4
 8000620:	ea40 0002 	orr.w	r0, r0, r2
 8000624:	f001 4100 	and.w	r1, r1, #2147483648	@ 0x80000000
 8000628:	eb10 70d3 	adds.w	r0, r0, r3, lsr #31
 800062c:	f141 0100 	adc.w	r1, r1, #0
 8000630:	ea5e 0e43 	orrs.w	lr, lr, r3, lsl #1
 8000634:	bf08      	it	eq
 8000636:	ea20 70d3 	biceq.w	r0, r0, r3, lsr #31
 800063a:	bd70      	pop	{r4, r5, r6, pc}
 800063c:	f1c4 0520 	rsb	r5, r4, #32
 8000640:	fa00 f205 	lsl.w	r2, r0, r5
 8000644:	ea4e 0e02 	orr.w	lr, lr, r2
 8000648:	fa20 f304 	lsr.w	r3, r0, r4
 800064c:	fa01 f205 	lsl.w	r2, r1, r5
 8000650:	ea43 0302 	orr.w	r3, r3, r2
 8000654:	fa21 f004 	lsr.w	r0, r1, r4
 8000658:	f001 4100 	and.w	r1, r1, #2147483648	@ 0x80000000
 800065c:	fa21 f204 	lsr.w	r2, r1, r4
 8000660:	ea20 0002 	bic.w	r0, r0, r2
 8000664:	eb00 70d3 	add.w	r0, r0, r3, lsr #31
 8000668:	ea5e 0e43 	orrs.w	lr, lr, r3, lsl #1
 800066c:	bf08      	it	eq
 800066e:	ea20 70d3 	biceq.w	r0, r0, r3, lsr #31
 8000672:	bd70      	pop	{r4, r5, r6, pc}
 8000674:	f094 0f00 	teq	r4, #0
 8000678:	d10f      	bne.n	800069a <__aeabi_dmul+0x1c2>
 800067a:	f001 4600 	and.w	r6, r1, #2147483648	@ 0x80000000
 800067e:	0040      	lsls	r0, r0, #1
 8000680:	eb41 0101 	adc.w	r1, r1, r1
 8000684:	f411 1f80 	tst.w	r1, #1048576	@ 0x100000
 8000688:	bf08      	it	eq
 800068a:	3c01      	subeq	r4, #1
 800068c:	d0f7      	beq.n	800067e <__aeabi_dmul+0x1a6>
 800068e:	ea41 0106 	orr.w	r1, r1, r6
 8000692:	f095 0f00 	teq	r5, #0
 8000696:	bf18      	it	ne
 8000698:	4770      	bxne	lr
 800069a:	f003 4600 	and.w	r6, r3, #2147483648	@ 0x80000000
 800069e:	0052      	lsls	r2, r2, #1
 80006a0:	eb43 0303 	adc.w	r3, r3, r3
 80006a4:	f413 1f80 	tst.w	r3, #1048576	@ 0x100000
 80006a8:	bf08      	it	eq
 80006aa:	3d01      	subeq	r5, #1
 80006ac:	d0f7      	beq.n	800069e <__aeabi_dmul+0x1c6>
 80006ae:	ea43 0306 	orr.w	r3, r3, r6
 80006b2:	4770      	bx	lr
 80006b4:	ea94 0f0c 	teq	r4, ip
 80006b8:	ea0c 5513 	and.w	r5, ip, r3, lsr #20
 80006bc:	bf18      	it	ne
 80006be:	ea95 0f0c 	teqne	r5, ip
 80006c2:	d00c      	beq.n	80006de <__aeabi_dmul+0x206>
 80006c4:	ea50 0641 	orrs.w	r6, r0, r1, lsl #1
 80006c8:	bf18      	it	ne
 80006ca:	ea52 0643 	orrsne.w	r6, r2, r3, lsl #1
 80006ce:	d1d1      	bne.n	8000674 <__aeabi_dmul+0x19c>
 80006d0:	ea81 0103 	eor.w	r1, r1, r3
 80006d4:	f001 4100 	and.w	r1, r1, #2147483648	@ 0x80000000
 80006d8:	f04f 0000 	mov.w	r0, #0
 80006dc:	bd70      	pop	{r4, r5, r6, pc}
 80006de:	ea50 0641 	orrs.w	r6, r0, r1, lsl #1
 80006e2:	bf06      	itte	eq
 80006e4:	4610      	moveq	r0, r2
 80006e6:	4619      	moveq	r1, r3
 80006e8:	ea52 0643 	orrsne.w	r6, r2, r3, lsl #1
 80006ec:	d019      	beq.n	8000722 <__aeabi_dmul+0x24a>
 80006ee:	ea94 0f0c 	teq	r4, ip
 80006f2:	d102      	bne.n	80006fa <__aeabi_dmul+0x222>
 80006f4:	ea50 3601 	orrs.w	r6, r0, r1, lsl #12
 80006f8:	d113      	bne.n	8000722 <__aeabi_dmul+0x24a>
 80006fa:	ea95 0f0c 	teq	r5, ip
 80006fe:	d105      	bne.n	800070c <__aeabi_dmul+0x234>
 8000700:	ea52 3603 	orrs.w	r6, r2, r3, lsl #12
 8000704:	bf1c      	itt	ne
 8000706:	4610      	movne	r0, r2
 8000708:	4619      	movne	r1, r3
 800070a:	d10a      	bne.n	8000722 <__aeabi_dmul+0x24a>
 800070c:	ea81 0103 	eor.w	r1, r1, r3
 8000710:	f001 4100 	and.w	r1, r1, #2147483648	@ 0x80000000
 8000714:	f041 41fe 	orr.w	r1, r1, #2130706432	@ 0x7f000000
 8000718:	f441 0170 	orr.w	r1, r1, #15728640	@ 0xf00000
 800071c:	f04f 0000 	mov.w	r0, #0
 8000720:	bd70      	pop	{r4, r5, r6, pc}
 8000722:	f041 41fe 	orr.w	r1, r1, #2130706432	@ 0x7f000000
 8000726:	f441 0178 	orr.w	r1, r1, #16252928	@ 0xf80000
 800072a:	bd70      	pop	{r4, r5, r6, pc}

0800072c <__aeabi_ddiv>:
 800072c:	b570      	push	{r4, r5, r6, lr}
 800072e:	f04f 0cff 	mov.w	ip, #255	@ 0xff
 8000732:	f44c 6ce0 	orr.w	ip, ip, #1792	@ 0x700
 8000736:	ea1c 5411 	ands.w	r4, ip, r1, lsr #20
 800073a:	bf1d      	ittte	ne
 800073c:	ea1c 5513 	andsne.w	r5, ip, r3, lsr #20
 8000740:	ea94 0f0c 	teqne	r4, ip
 8000744:	ea95 0f0c 	teqne	r5, ip
 8000748:	f000 f8a7 	bleq	800089a <__aeabi_ddiv+0x16e>
 800074c:	eba4 0405 	sub.w	r4, r4, r5
 8000750:	ea81 0e03 	eor.w	lr, r1, r3
 8000754:	ea52 3503 	orrs.w	r5, r2, r3, lsl #12
 8000758:	ea4f 3101 	mov.w	r1, r1, lsl #12
 800075c:	f000 8088 	beq.w	8000870 <__aeabi_ddiv+0x144>
 8000760:	ea4f 3303 	mov.w	r3, r3, lsl #12
 8000764:	f04f 5580 	mov.w	r5, #268435456	@ 0x10000000
 8000768:	ea45 1313 	orr.w	r3, r5, r3, lsr #4
 800076c:	ea43 6312 	orr.w	r3, r3, r2, lsr #24
 8000770:	ea4f 2202 	mov.w	r2, r2, lsl #8
 8000774:	ea45 1511 	orr.w	r5, r5, r1, lsr #4
 8000778:	ea45 6510 	orr.w	r5, r5, r0, lsr #24
 800077c:	ea4f 2600 	mov.w	r6, r0, lsl #8
 8000780:	f00e 4100 	and.w	r1, lr, #2147483648	@ 0x80000000
 8000784:	429d      	cmp	r5, r3
 8000786:	bf08      	it	eq
 8000788:	4296      	cmpeq	r6, r2
 800078a:	f144 04fd 	adc.w	r4, r4, #253	@ 0xfd
 800078e:	f504 7440 	add.w	r4, r4, #768	@ 0x300
 8000792:	d202      	bcs.n	800079a <__aeabi_ddiv+0x6e>
 8000794:	085b      	lsrs	r3, r3, #1
 8000796:	ea4f 0232 	mov.w	r2, r2, rrx
 800079a:	1ab6      	subs	r6, r6, r2
 800079c:	eb65 0503 	sbc.w	r5, r5, r3
 80007a0:	085b      	lsrs	r3, r3, #1
 80007a2:	ea4f 0232 	mov.w	r2, r2, rrx
 80007a6:	f44f 1080 	mov.w	r0, #1048576	@ 0x100000
 80007aa:	f44f 2c00 	mov.w	ip, #524288	@ 0x80000
 80007ae:	ebb6 0e02 	subs.w	lr, r6, r2
 80007b2:	eb75 0e03 	sbcs.w	lr, r5, r3
 80007b6:	bf22      	ittt	cs
 80007b8:	1ab6      	subcs	r6, r6, r2
 80007ba:	4675      	movcs	r5, lr
 80007bc:	ea40 000c 	orrcs.w	r0, r0, ip
 80007c0:	085b      	lsrs	r3, r3, #1
 80007c2:	ea4f 0232 	mov.w	r2, r2, rrx
 80007c6:	ebb6 0e02 	subs.w	lr, r6, r2
 80007ca:	eb75 0e03 	sbcs.w	lr, r5, r3
 80007ce:	bf22      	ittt	cs
 80007d0:	1ab6      	subcs	r6, r6, r2
 80007d2:	4675      	movcs	r5, lr
 80007d4:	ea40 005c 	orrcs.w	r0, r0, ip, lsr #1
 80007d8:	085b      	lsrs	r3, r3, #1
 80007da:	ea4f 0232 	mov.w	r2, r2, rrx
 80007de:	ebb6 0e02 	subs.w	lr, r6, r2
 80007e2:	eb75 0e03 	sbcs.w	lr, r5, r3
 80007e6:	bf22      	ittt	cs
 80007e8:	1ab6      	subcs	r6, r6, r2
 80007ea:	4675      	movcs	r5, lr
 80007ec:	ea40 009c 	orrcs.w	r0, r0, ip, lsr #2
 80007f0:	085b      	lsrs	r3, r3, #1
 80007f2:	ea4f 0232 	mov.w	r2, r2, rrx
 80007f6:	ebb6 0e02 	subs.w	lr, r6, r2
 80007fa:	eb75 0e03 	sbcs.w	lr, r5, r3
 80007fe:	bf22      	ittt	cs
 8000800:	1ab6      	subcs	r6, r6, r2
 8000802:	4675      	movcs	r5, lr
 8000804:	ea40 00dc 	orrcs.w	r0, r0, ip, lsr #3
 8000808:	ea55 0e06 	orrs.w	lr, r5, r6
 800080c:	d018      	beq.n	8000840 <__aeabi_ddiv+0x114>
 800080e:	ea4f 1505 	mov.w	r5, r5, lsl #4
 8000812:	ea45 7516 	orr.w	r5, r5, r6, lsr #28
 8000816:	ea4f 1606 	mov.w	r6, r6, lsl #4
 800081a:	ea4f 03c3 	mov.w	r3, r3, lsl #3
 800081e:	ea43 7352 	orr.w	r3, r3, r2, lsr #29
 8000822:	ea4f 02c2 	mov.w	r2, r2, lsl #3
 8000826:	ea5f 1c1c 	movs.w	ip, ip, lsr #4
 800082a:	d1c0      	bne.n	80007ae <__aeabi_ddiv+0x82>
 800082c:	f411 1f80 	tst.w	r1, #1048576	@ 0x100000
 8000830:	d10b      	bne.n	800084a <__aeabi_ddiv+0x11e>
 8000832:	ea41 0100 	orr.w	r1, r1, r0
 8000836:	f04f 0000 	mov.w	r0, #0
 800083a:	f04f 4c00 	mov.w	ip, #2147483648	@ 0x80000000
 800083e:	e7b6      	b.n	80007ae <__aeabi_ddiv+0x82>
 8000840:	f411 1f80 	tst.w	r1, #1048576	@ 0x100000
 8000844:	bf04      	itt	eq
 8000846:	4301      	orreq	r1, r0
 8000848:	2000      	moveq	r0, #0
 800084a:	f1b4 0cfd 	subs.w	ip, r4, #253	@ 0xfd
 800084e:	bf88      	it	hi
 8000850:	f5bc 6fe0 	cmphi.w	ip, #1792	@ 0x700
 8000854:	f63f aeaf 	bhi.w	80005b6 <__aeabi_dmul+0xde>
 8000858:	ebb5 0c03 	subs.w	ip, r5, r3
 800085c:	bf04      	itt	eq
 800085e:	ebb6 0c02 	subseq.w	ip, r6, r2
 8000862:	ea5f 0c50 	movseq.w	ip, r0, lsr #1
 8000866:	f150 0000 	adcs.w	r0, r0, #0
 800086a:	eb41 5104 	adc.w	r1, r1, r4, lsl #20
 800086e:	bd70      	pop	{r4, r5, r6, pc}
 8000870:	f00e 4e00 	and.w	lr, lr, #2147483648	@ 0x80000000
 8000874:	ea4e 3111 	orr.w	r1, lr, r1, lsr #12
 8000878:	eb14 045c 	adds.w	r4, r4, ip, lsr #1
 800087c:	bfc2      	ittt	gt
 800087e:	ebd4 050c 	rsbsgt	r5, r4, ip
 8000882:	ea41 5104 	orrgt.w	r1, r1, r4, lsl #20
 8000886:	bd70      	popgt	{r4, r5, r6, pc}
 8000888:	f441 1180 	orr.w	r1, r1, #1048576	@ 0x100000
 800088c:	f04f 0e00 	mov.w	lr, #0
 8000890:	3c01      	subs	r4, #1
 8000892:	e690      	b.n	80005b6 <__aeabi_dmul+0xde>
 8000894:	ea45 0e06 	orr.w	lr, r5, r6
 8000898:	e68d      	b.n	80005b6 <__aeabi_dmul+0xde>
 800089a:	ea0c 5513 	and.w	r5, ip, r3, lsr #20
 800089e:	ea94 0f0c 	teq	r4, ip
 80008a2:	bf08      	it	eq
 80008a4:	ea95 0f0c 	teqeq	r5, ip
 80008a8:	f43f af3b 	beq.w	8000722 <__aeabi_dmul+0x24a>
 80008ac:	ea94 0f0c 	teq	r4, ip
 80008b0:	d10a      	bne.n	80008c8 <__aeabi_ddiv+0x19c>
 80008b2:	ea50 3401 	orrs.w	r4, r0, r1, lsl #12
 80008b6:	f47f af34 	bne.w	8000722 <__aeabi_dmul+0x24a>
 80008ba:	ea95 0f0c 	teq	r5, ip
 80008be:	f47f af25 	bne.w	800070c <__aeabi_dmul+0x234>
 80008c2:	4610      	mov	r0, r2
 80008c4:	4619      	mov	r1, r3
 80008c6:	e72c      	b.n	8000722 <__aeabi_dmul+0x24a>
 80008c8:	ea95 0f0c 	teq	r5, ip
 80008cc:	d106      	bne.n	80008dc <__aeabi_ddiv+0x1b0>
 80008ce:	ea52 3503 	orrs.w	r5, r2, r3, lsl #12
 80008d2:	f43f aefd 	beq.w	80006d0 <__aeabi_dmul+0x1f8>
 80008d6:	4610      	mov	r0, r2
 80008d8:	4619      	mov	r1, r3
 80008da:	e722      	b.n	8000722 <__aeabi_dmul+0x24a>
 80008dc:	ea50 0641 	orrs.w	r6, r0, r1, lsl #1
 80008e0:	bf18      	it	ne
 80008e2:	ea52 0643 	orrsne.w	r6, r2, r3, lsl #1
 80008e6:	f47f aec5 	bne.w	8000674 <__aeabi_dmul+0x19c>
 80008ea:	ea50 0441 	orrs.w	r4, r0, r1, lsl #1
 80008ee:	f47f af0d 	bne.w	800070c <__aeabi_dmul+0x234>
 80008f2:	ea52 0543 	orrs.w	r5, r2, r3, lsl #1
 80008f6:	f47f aeeb 	bne.w	80006d0 <__aeabi_dmul+0x1f8>
 80008fa:	e712      	b.n	8000722 <__aeabi_dmul+0x24a>

080008fc <__gedf2>:
 80008fc:	f04f 3cff 	mov.w	ip, #4294967295	@ 0xffffffff
 8000900:	e006      	b.n	8000910 <__cmpdf2+0x4>
 8000902:	bf00      	nop

08000904 <__ledf2>:
 8000904:	f04f 0c01 	mov.w	ip, #1
 8000908:	e002      	b.n	8000910 <__cmpdf2+0x4>
 800090a:	bf00      	nop

0800090c <__cmpdf2>:
 800090c:	f04f 0c01 	mov.w	ip, #1
 8000910:	f84d cd04 	str.w	ip, [sp, #-4]!
 8000914:	ea4f 0c41 	mov.w	ip, r1, lsl #1
 8000918:	ea7f 5c6c 	mvns.w	ip, ip, asr #21
 800091c:	ea4f 0c43 	mov.w	ip, r3, lsl #1
 8000920:	bf18      	it	ne
 8000922:	ea7f 5c6c 	mvnsne.w	ip, ip, asr #21
 8000926:	d01b      	beq.n	8000960 <__cmpdf2+0x54>
 8000928:	b001      	add	sp, #4
 800092a:	ea50 0c41 	orrs.w	ip, r0, r1, lsl #1
 800092e:	bf0c      	ite	eq
 8000930:	ea52 0c43 	orrseq.w	ip, r2, r3, lsl #1
 8000934:	ea91 0f03 	teqne	r1, r3
 8000938:	bf02      	ittt	eq
 800093a:	ea90 0f02 	teqeq	r0, r2
 800093e:	2000      	moveq	r0, #0
 8000940:	4770      	bxeq	lr
 8000942:	f110 0f00 	cmn.w	r0, #0
 8000946:	ea91 0f03 	teq	r1, r3
 800094a:	bf58      	it	pl
 800094c:	4299      	cmppl	r1, r3
 800094e:	bf08      	it	eq
 8000950:	4290      	cmpeq	r0, r2
 8000952:	bf2c      	ite	cs
 8000954:	17d8      	asrcs	r0, r3, #31
 8000956:	ea6f 70e3 	mvncc.w	r0, r3, asr #31
 800095a:	f040 0001 	orr.w	r0, r0, #1
 800095e:	4770      	bx	lr
 8000960:	ea4f 0c41 	mov.w	ip, r1, lsl #1
 8000964:	ea7f 5c6c 	mvns.w	ip, ip, asr #21
 8000968:	d102      	bne.n	8000970 <__cmpdf2+0x64>
 800096a:	ea50 3c01 	orrs.w	ip, r0, r1, lsl #12
 800096e:	d107      	bne.n	8000980 <__cmpdf2+0x74>
 8000970:	ea4f 0c43 	mov.w	ip, r3, lsl #1
 8000974:	ea7f 5c6c 	mvns.w	ip, ip, asr #21
 8000978:	d1d6      	bne.n	8000928 <__cmpdf2+0x1c>
 800097a:	ea52 3c03 	orrs.w	ip, r2, r3, lsl #12
 800097e:	d0d3      	beq.n	8000928 <__cmpdf2+0x1c>
 8000980:	f85d 0b04 	ldr.w	r0, [sp], #4
 8000984:	4770      	bx	lr
 8000986:	bf00      	nop

08000988 <__aeabi_cdrcmple>:
 8000988:	4684      	mov	ip, r0
 800098a:	4610      	mov	r0, r2
 800098c:	4662      	mov	r2, ip
 800098e:	468c      	mov	ip, r1
 8000990:	4619      	mov	r1, r3
 8000992:	4663      	mov	r3, ip
 8000994:	e000      	b.n	8000998 <__aeabi_cdcmpeq>
 8000996:	bf00      	nop

08000998 <__aeabi_cdcmpeq>:
 8000998:	b501      	push	{r0, lr}
 800099a:	f7ff ffb7 	bl	800090c <__cmpdf2>
 800099e:	2800      	cmp	r0, #0
 80009a0:	bf48      	it	mi
 80009a2:	f110 0f00 	cmnmi.w	r0, #0
 80009a6:	bd01      	pop	{r0, pc}

080009a8 <__aeabi_dcmpeq>:
 80009a8:	f84d ed08 	str.w	lr, [sp, #-8]!
 80009ac:	f7ff fff4 	bl	8000998 <__aeabi_cdcmpeq>
 80009b0:	bf0c      	ite	eq
 80009b2:	2001      	moveq	r0, #1
 80009b4:	2000      	movne	r0, #0
 80009b6:	f85d fb08 	ldr.w	pc, [sp], #8
 80009ba:	bf00      	nop

080009bc <__aeabi_dcmplt>:
 80009bc:	f84d ed08 	str.w	lr, [sp, #-8]!
 80009c0:	f7ff ffea 	bl	8000998 <__aeabi_cdcmpeq>
 80009c4:	bf34      	ite	cc
 80009c6:	2001      	movcc	r0, #1
 80009c8:	2000      	movcs	r0, #0
 80009ca:	f85d fb08 	ldr.w	pc, [sp], #8
 80009ce:	bf00      	nop

080009d0 <__aeabi_dcmple>:
 80009d0:	f84d ed08 	str.w	lr, [sp, #-8]!
 80009d4:	f7ff ffe0 	bl	8000998 <__aeabi_cdcmpeq>
 80009d8:	bf94      	ite	ls
 80009da:	2001      	movls	r0, #1
 80009dc:	2000      	movhi	r0, #0
 80009de:	f85d fb08 	ldr.w	pc, [sp], #8
 80009e2:	bf00      	nop

080009e4 <__aeabi_dcmpge>:
 80009e4:	f84d ed08 	str.w	lr, [sp, #-8]!
 80009e8:	f7ff ffce 	bl	8000988 <__aeabi_cdrcmple>
 80009ec:	bf94      	ite	ls
 80009ee:	2001      	movls	r0, #1
 80009f0:	2000      	movhi	r0, #0
 80009f2:	f85d fb08 	ldr.w	pc, [sp], #8
 80009f6:	bf00      	nop

080009f8 <__aeabi_dcmpgt>:
 80009f8:	f84d ed08 	str.w	lr, [sp, #-8]!
 80009fc:	f7ff ffc4 	bl	8000988 <__aeabi_cdrcmple>
 8000a00:	bf34      	ite	cc
 8000a02:	2001      	movcc	r0, #1
 8000a04:	2000      	movcs	r0, #0
 8000a06:	f85d fb08 	ldr.w	pc, [sp], #8
 8000a0a:	bf00      	nop

08000a0c <__aeabi_dcmpun>:
 8000a0c:	ea4f 0c41 	mov.w	ip, r1, lsl #1
 8000a10:	ea7f 5c6c 	mvns.w	ip, ip, asr #21
 8000a14:	d102      	bne.n	8000a1c <__aeabi_dcmpun+0x10>
 8000a16:	ea50 3c01 	orrs.w	ip, r0, r1, lsl #12
 8000a1a:	d10a      	bne.n	8000a32 <__aeabi_dcmpun+0x26>
 8000a1c:	ea4f 0c43 	mov.w	ip, r3, lsl #1
 8000a20:	ea7f 5c6c 	mvns.w	ip, ip, asr #21
 8000a24:	d102      	bne.n	8000a2c <__aeabi_dcmpun+0x20>
 8000a26:	ea52 3c03 	orrs.w	ip, r2, r3, lsl #12
 8000a2a:	d102      	bne.n	8000a32 <__aeabi_dcmpun+0x26>
 8000a2c:	f04f 0000 	mov.w	r0, #0
 8000a30:	4770      	bx	lr
 8000a32:	f04f 0001 	mov.w	r0, #1
 8000a36:	4770      	bx	lr

08000a38 <__aeabi_d2iz>:
 8000a38:	ea4f 0241 	mov.w	r2, r1, lsl #1
 8000a3c:	f512 1200 	adds.w	r2, r2, #2097152	@ 0x200000
 8000a40:	d215      	bcs.n	8000a6e <__aeabi_d2iz+0x36>
 8000a42:	d511      	bpl.n	8000a68 <__aeabi_d2iz+0x30>
 8000a44:	f46f 7378 	mvn.w	r3, #992	@ 0x3e0
 8000a48:	ebb3 5262 	subs.w	r2, r3, r2, asr #21
 8000a4c:	d912      	bls.n	8000a74 <__aeabi_d2iz+0x3c>
 8000a4e:	ea4f 23c1 	mov.w	r3, r1, lsl #11
 8000a52:	f043 4300 	orr.w	r3, r3, #2147483648	@ 0x80000000
 8000a56:	ea43 5350 	orr.w	r3, r3, r0, lsr #21
 8000a5a:	f011 4f00 	tst.w	r1, #2147483648	@ 0x80000000
 8000a5e:	fa23 f002 	lsr.w	r0, r3, r2
 8000a62:	bf18      	it	ne
 8000a64:	4240      	negne	r0, r0
 8000a66:	4770      	bx	lr
 8000a68:	f04f 0000 	mov.w	r0, #0
 8000a6c:	4770      	bx	lr
 8000a6e:	ea50 3001 	orrs.w	r0, r0, r1, lsl #12
 8000a72:	d105      	bne.n	8000a80 <__aeabi_d2iz+0x48>
 8000a74:	f011 4000 	ands.w	r0, r1, #2147483648	@ 0x80000000
 8000a78:	bf08      	it	eq
 8000a7a:	f06f 4000 	mvneq.w	r0, #2147483648	@ 0x80000000
 8000a7e:	4770      	bx	lr
 8000a80:	f04f 0000 	mov.w	r0, #0
 8000a84:	4770      	bx	lr
 8000a86:	bf00      	nop

08000a88 <__aeabi_frsub>:
 8000a88:	f080 4000 	eor.w	r0, r0, #2147483648	@ 0x80000000
 8000a8c:	e002      	b.n	8000a94 <__addsf3>
 8000a8e:	bf00      	nop

08000a90 <__aeabi_fsub>:
 8000a90:	f081 4100 	eor.w	r1, r1, #2147483648	@ 0x80000000

08000a94 <__addsf3>:
 8000a94:	0042      	lsls	r2, r0, #1
 8000a96:	bf1f      	itttt	ne
 8000a98:	ea5f 0341 	movsne.w	r3, r1, lsl #1
 8000a9c:	ea92 0f03 	teqne	r2, r3
 8000aa0:	ea7f 6c22 	mvnsne.w	ip, r2, asr #24
 8000aa4:	ea7f 6c23 	mvnsne.w	ip, r3, asr #24
 8000aa8:	d06a      	beq.n	8000b80 <__addsf3+0xec>
 8000aaa:	ea4f 6212 	mov.w	r2, r2, lsr #24
 8000aae:	ebd2 6313 	rsbs	r3, r2, r3, lsr #24
 8000ab2:	bfc1      	itttt	gt
 8000ab4:	18d2      	addgt	r2, r2, r3
 8000ab6:	4041      	eorgt	r1, r0
 8000ab8:	4048      	eorgt	r0, r1
 8000aba:	4041      	eorgt	r1, r0
 8000abc:	bfb8      	it	lt
 8000abe:	425b      	neglt	r3, r3
 8000ac0:	2b19      	cmp	r3, #25
 8000ac2:	bf88      	it	hi
 8000ac4:	4770      	bxhi	lr
 8000ac6:	f010 4f00 	tst.w	r0, #2147483648	@ 0x80000000
 8000aca:	f440 0000 	orr.w	r0, r0, #8388608	@ 0x800000
 8000ace:	f020 407f 	bic.w	r0, r0, #4278190080	@ 0xff000000
 8000ad2:	bf18      	it	ne
 8000ad4:	4240      	negne	r0, r0
 8000ad6:	f011 4f00 	tst.w	r1, #2147483648	@ 0x80000000
 8000ada:	f441 0100 	orr.w	r1, r1, #8388608	@ 0x800000
 8000ade:	f021 417f 	bic.w	r1, r1, #4278190080	@ 0xff000000
 8000ae2:	bf18      	it	ne
 8000ae4:	4249      	negne	r1, r1
 8000ae6:	ea92 0f03 	teq	r2, r3
 8000aea:	d03f      	beq.n	8000b6c <__addsf3+0xd8>
 8000aec:	f1a2 0201 	sub.w	r2, r2, #1
 8000af0:	fa41 fc03 	asr.w	ip, r1, r3
 8000af4:	eb10 000c 	adds.w	r0, r0, ip
 8000af8:	f1c3 0320 	rsb	r3, r3, #32
 8000afc:	fa01 f103 	lsl.w	r1, r1, r3
 8000b00:	f000 4300 	and.w	r3, r0, #2147483648	@ 0x80000000
 8000b04:	d502      	bpl.n	8000b0c <__addsf3+0x78>
 8000b06:	4249      	negs	r1, r1
 8000b08:	eb60 0040 	sbc.w	r0, r0, r0, lsl #1
 8000b0c:	f5b0 0f00 	cmp.w	r0, #8388608	@ 0x800000
 8000b10:	d313      	bcc.n	8000b3a <__addsf3+0xa6>
 8000b12:	f1b0 7f80 	cmp.w	r0, #16777216	@ 0x1000000
 8000b16:	d306      	bcc.n	8000b26 <__addsf3+0x92>
 8000b18:	0840      	lsrs	r0, r0, #1
 8000b1a:	ea4f 0131 	mov.w	r1, r1, rrx
 8000b1e:	f102 0201 	add.w	r2, r2, #1
 8000b22:	2afe      	cmp	r2, #254	@ 0xfe
 8000b24:	d251      	bcs.n	8000bca <__addsf3+0x136>
 8000b26:	f1b1 4f00 	cmp.w	r1, #2147483648	@ 0x80000000
 8000b2a:	eb40 50c2 	adc.w	r0, r0, r2, lsl #23
 8000b2e:	bf08      	it	eq
 8000b30:	f020 0001 	biceq.w	r0, r0, #1
 8000b34:	ea40 0003 	orr.w	r0, r0, r3
 8000b38:	4770      	bx	lr
 8000b3a:	0049      	lsls	r1, r1, #1
 8000b3c:	eb40 0000 	adc.w	r0, r0, r0
 8000b40:	3a01      	subs	r2, #1
 8000b42:	bf28      	it	cs
 8000b44:	f5b0 0f00 	cmpcs.w	r0, #8388608	@ 0x800000
 8000b48:	d2ed      	bcs.n	8000b26 <__addsf3+0x92>
 8000b4a:	fab0 fc80 	clz	ip, r0
 8000b4e:	f1ac 0c08 	sub.w	ip, ip, #8
 8000b52:	ebb2 020c 	subs.w	r2, r2, ip
 8000b56:	fa00 f00c 	lsl.w	r0, r0, ip
 8000b5a:	bfaa      	itet	ge
 8000b5c:	eb00 50c2 	addge.w	r0, r0, r2, lsl #23
 8000b60:	4252      	neglt	r2, r2
 8000b62:	4318      	orrge	r0, r3
 8000b64:	bfbc      	itt	lt
 8000b66:	40d0      	lsrlt	r0, r2
 8000b68:	4318      	orrlt	r0, r3
 8000b6a:	4770      	bx	lr
 8000b6c:	f092 0f00 	teq	r2, #0
 8000b70:	f481 0100 	eor.w	r1, r1, #8388608	@ 0x800000
 8000b74:	bf06      	itte	eq
 8000b76:	f480 0000 	eoreq.w	r0, r0, #8388608	@ 0x800000
 8000b7a:	3201      	addeq	r2, #1
 8000b7c:	3b01      	subne	r3, #1
 8000b7e:	e7b5      	b.n	8000aec <__addsf3+0x58>
 8000b80:	ea4f 0341 	mov.w	r3, r1, lsl #1
 8000b84:	ea7f 6c22 	mvns.w	ip, r2, asr #24
 8000b88:	bf18      	it	ne
 8000b8a:	ea7f 6c23 	mvnsne.w	ip, r3, asr #24
 8000b8e:	d021      	beq.n	8000bd4 <__addsf3+0x140>
 8000b90:	ea92 0f03 	teq	r2, r3
 8000b94:	d004      	beq.n	8000ba0 <__addsf3+0x10c>
 8000b96:	f092 0f00 	teq	r2, #0
 8000b9a:	bf08      	it	eq
 8000b9c:	4608      	moveq	r0, r1
 8000b9e:	4770      	bx	lr
 8000ba0:	ea90 0f01 	teq	r0, r1
 8000ba4:	bf1c      	itt	ne
 8000ba6:	2000      	movne	r0, #0
 8000ba8:	4770      	bxne	lr
 8000baa:	f012 4f7f 	tst.w	r2, #4278190080	@ 0xff000000
 8000bae:	d104      	bne.n	8000bba <__addsf3+0x126>
 8000bb0:	0040      	lsls	r0, r0, #1
 8000bb2:	bf28      	it	cs
 8000bb4:	f040 4000 	orrcs.w	r0, r0, #2147483648	@ 0x80000000
 8000bb8:	4770      	bx	lr
 8000bba:	f112 7200 	adds.w	r2, r2, #33554432	@ 0x2000000
 8000bbe:	bf3c      	itt	cc
 8000bc0:	f500 0000 	addcc.w	r0, r0, #8388608	@ 0x800000
 8000bc4:	4770      	bxcc	lr
 8000bc6:	f000 4300 	and.w	r3, r0, #2147483648	@ 0x80000000
 8000bca:	f043 40fe 	orr.w	r0, r3, #2130706432	@ 0x7f000000
 8000bce:	f440 0000 	orr.w	r0, r0, #8388608	@ 0x800000
 8000bd2:	4770      	bx	lr
 8000bd4:	ea7f 6222 	mvns.w	r2, r2, asr #24
 8000bd8:	bf16      	itet	ne
 8000bda:	4608      	movne	r0, r1
 8000bdc:	ea7f 6323 	mvnseq.w	r3, r3, asr #24
 8000be0:	4601      	movne	r1, r0
 8000be2:	0242      	lsls	r2, r0, #9
 8000be4:	bf06      	itte	eq
 8000be6:	ea5f 2341 	movseq.w	r3, r1, lsl #9
 8000bea:	ea90 0f01 	teqeq	r0, r1
 8000bee:	f440 0080 	orrne.w	r0, r0, #4194304	@ 0x400000
 8000bf2:	4770      	bx	lr

08000bf4 <__aeabi_ui2f>:
 8000bf4:	f04f 0300 	mov.w	r3, #0
 8000bf8:	e004      	b.n	8000c04 <__aeabi_i2f+0x8>
 8000bfa:	bf00      	nop

08000bfc <__aeabi_i2f>:
 8000bfc:	f010 4300 	ands.w	r3, r0, #2147483648	@ 0x80000000
 8000c00:	bf48      	it	mi
 8000c02:	4240      	negmi	r0, r0
 8000c04:	ea5f 0c00 	movs.w	ip, r0
 8000c08:	bf08      	it	eq
 8000c0a:	4770      	bxeq	lr
 8000c0c:	f043 4396 	orr.w	r3, r3, #1258291200	@ 0x4b000000
 8000c10:	4601      	mov	r1, r0
 8000c12:	f04f 0000 	mov.w	r0, #0
 8000c16:	e01c      	b.n	8000c52 <__aeabi_l2f+0x2a>

08000c18 <__aeabi_ul2f>:
 8000c18:	ea50 0201 	orrs.w	r2, r0, r1
 8000c1c:	bf08      	it	eq
 8000c1e:	4770      	bxeq	lr
 8000c20:	f04f 0300 	mov.w	r3, #0
 8000c24:	e00a      	b.n	8000c3c <__aeabi_l2f+0x14>
 8000c26:	bf00      	nop

08000c28 <__aeabi_l2f>:
 8000c28:	ea50 0201 	orrs.w	r2, r0, r1
 8000c2c:	bf08      	it	eq
 8000c2e:	4770      	bxeq	lr
 8000c30:	f011 4300 	ands.w	r3, r1, #2147483648	@ 0x80000000
 8000c34:	d502      	bpl.n	8000c3c <__aeabi_l2f+0x14>
 8000c36:	4240      	negs	r0, r0
 8000c38:	eb61 0141 	sbc.w	r1, r1, r1, lsl #1
 8000c3c:	ea5f 0c01 	movs.w	ip, r1
 8000c40:	bf02      	ittt	eq
 8000c42:	4684      	moveq	ip, r0
 8000c44:	4601      	moveq	r1, r0
 8000c46:	2000      	moveq	r0, #0
 8000c48:	f043 43b6 	orr.w	r3, r3, #1526726656	@ 0x5b000000
 8000c4c:	bf08      	it	eq
 8000c4e:	f1a3 5380 	subeq.w	r3, r3, #268435456	@ 0x10000000
 8000c52:	f5a3 0300 	sub.w	r3, r3, #8388608	@ 0x800000
 8000c56:	fabc f28c 	clz	r2, ip
 8000c5a:	3a08      	subs	r2, #8
 8000c5c:	eba3 53c2 	sub.w	r3, r3, r2, lsl #23
 8000c60:	db10      	blt.n	8000c84 <__aeabi_l2f+0x5c>
 8000c62:	fa01 fc02 	lsl.w	ip, r1, r2
 8000c66:	4463      	add	r3, ip
 8000c68:	fa00 fc02 	lsl.w	ip, r0, r2
 8000c6c:	f1c2 0220 	rsb	r2, r2, #32
 8000c70:	f1bc 4f00 	cmp.w	ip, #2147483648	@ 0x80000000
 8000c74:	fa20 f202 	lsr.w	r2, r0, r2
 8000c78:	eb43 0002 	adc.w	r0, r3, r2
 8000c7c:	bf08      	it	eq
 8000c7e:	f020 0001 	biceq.w	r0, r0, #1
 8000c82:	4770      	bx	lr
 8000c84:	f102 0220 	add.w	r2, r2, #32
 8000c88:	fa01 fc02 	lsl.w	ip, r1, r2
 8000c8c:	f1c2 0220 	rsb	r2, r2, #32
 8000c90:	ea50 004c 	orrs.w	r0, r0, ip, lsl #1
 8000c94:	fa21 f202 	lsr.w	r2, r1, r2
 8000c98:	eb43 0002 	adc.w	r0, r3, r2
 8000c9c:	bf08      	it	eq
 8000c9e:	ea20 70dc 	biceq.w	r0, r0, ip, lsr #31
 8000ca2:	4770      	bx	lr

08000ca4 <__aeabi_fmul>:
 8000ca4:	f04f 0cff 	mov.w	ip, #255	@ 0xff
 8000ca8:	ea1c 52d0 	ands.w	r2, ip, r0, lsr #23
 8000cac:	bf1e      	ittt	ne
 8000cae:	ea1c 53d1 	andsne.w	r3, ip, r1, lsr #23
 8000cb2:	ea92 0f0c 	teqne	r2, ip
 8000cb6:	ea93 0f0c 	teqne	r3, ip
 8000cba:	d06f      	beq.n	8000d9c <__aeabi_fmul+0xf8>
 8000cbc:	441a      	add	r2, r3
 8000cbe:	ea80 0c01 	eor.w	ip, r0, r1
 8000cc2:	0240      	lsls	r0, r0, #9
 8000cc4:	bf18      	it	ne
 8000cc6:	ea5f 2141 	movsne.w	r1, r1, lsl #9
 8000cca:	d01e      	beq.n	8000d0a <__aeabi_fmul+0x66>
 8000ccc:	f04f 6300 	mov.w	r3, #134217728	@ 0x8000000
 8000cd0:	ea43 1050 	orr.w	r0, r3, r0, lsr #5
 8000cd4:	ea43 1151 	orr.w	r1, r3, r1, lsr #5
 8000cd8:	fba0 3101 	umull	r3, r1, r0, r1
 8000cdc:	f00c 4000 	and.w	r0, ip, #2147483648	@ 0x80000000
 8000ce0:	f5b1 0f00 	cmp.w	r1, #8388608	@ 0x800000
 8000ce4:	bf3e      	ittt	cc
 8000ce6:	0049      	lslcc	r1, r1, #1
 8000ce8:	ea41 71d3 	orrcc.w	r1, r1, r3, lsr #31
 8000cec:	005b      	lslcc	r3, r3, #1
 8000cee:	ea40 0001 	orr.w	r0, r0, r1
 8000cf2:	f162 027f 	sbc.w	r2, r2, #127	@ 0x7f
 8000cf6:	2afd      	cmp	r2, #253	@ 0xfd
 8000cf8:	d81d      	bhi.n	8000d36 <__aeabi_fmul+0x92>
 8000cfa:	f1b3 4f00 	cmp.w	r3, #2147483648	@ 0x80000000
 8000cfe:	eb40 50c2 	adc.w	r0, r0, r2, lsl #23
 8000d02:	bf08      	it	eq
 8000d04:	f020 0001 	biceq.w	r0, r0, #1
 8000d08:	4770      	bx	lr
 8000d0a:	f090 0f00 	teq	r0, #0
 8000d0e:	f00c 4c00 	and.w	ip, ip, #2147483648	@ 0x80000000
 8000d12:	bf08      	it	eq
 8000d14:	0249      	lsleq	r1, r1, #9
 8000d16:	ea4c 2050 	orr.w	r0, ip, r0, lsr #9
 8000d1a:	ea40 2051 	orr.w	r0, r0, r1, lsr #9
 8000d1e:	3a7f      	subs	r2, #127	@ 0x7f
 8000d20:	bfc2      	ittt	gt
 8000d22:	f1d2 03ff 	rsbsgt	r3, r2, #255	@ 0xff
 8000d26:	ea40 50c2 	orrgt.w	r0, r0, r2, lsl #23
 8000d2a:	4770      	bxgt	lr
 8000d2c:	f440 0000 	orr.w	r0, r0, #8388608	@ 0x800000
 8000d30:	f04f 0300 	mov.w	r3, #0
 8000d34:	3a01      	subs	r2, #1
 8000d36:	dc5d      	bgt.n	8000df4 <__aeabi_fmul+0x150>
 8000d38:	f112 0f19 	cmn.w	r2, #25
 8000d3c:	bfdc      	itt	le
 8000d3e:	f000 4000 	andle.w	r0, r0, #2147483648	@ 0x80000000
 8000d42:	4770      	bxle	lr
 8000d44:	f1c2 0200 	rsb	r2, r2, #0
 8000d48:	0041      	lsls	r1, r0, #1
 8000d4a:	fa21 f102 	lsr.w	r1, r1, r2
 8000d4e:	f1c2 0220 	rsb	r2, r2, #32
 8000d52:	fa00 fc02 	lsl.w	ip, r0, r2
 8000d56:	ea5f 0031 	movs.w	r0, r1, rrx
 8000d5a:	f140 0000 	adc.w	r0, r0, #0
 8000d5e:	ea53 034c 	orrs.w	r3, r3, ip, lsl #1
 8000d62:	bf08      	it	eq
 8000d64:	ea20 70dc 	biceq.w	r0, r0, ip, lsr #31
 8000d68:	4770      	bx	lr
 8000d6a:	f092 0f00 	teq	r2, #0
 8000d6e:	f000 4c00 	and.w	ip, r0, #2147483648	@ 0x80000000
 8000d72:	bf02      	ittt	eq
 8000d74:	0040      	lsleq	r0, r0, #1
 8000d76:	f410 0f00 	tsteq.w	r0, #8388608	@ 0x800000
 8000d7a:	3a01      	subeq	r2, #1
 8000d7c:	d0f9      	beq.n	8000d72 <__aeabi_fmul+0xce>
 8000d7e:	ea40 000c 	orr.w	r0, r0, ip
 8000d82:	f093 0f00 	teq	r3, #0
 8000d86:	f001 4c00 	and.w	ip, r1, #2147483648	@ 0x80000000
 8000d8a:	bf02      	ittt	eq
 8000d8c:	0049      	lsleq	r1, r1, #1
 8000d8e:	f411 0f00 	tsteq.w	r1, #8388608	@ 0x800000
 8000d92:	3b01      	subeq	r3, #1
 8000d94:	d0f9      	beq.n	8000d8a <__aeabi_fmul+0xe6>
 8000d96:	ea41 010c 	orr.w	r1, r1, ip
 8000d9a:	e78f      	b.n	8000cbc <__aeabi_fmul+0x18>
 8000d9c:	ea0c 53d1 	and.w	r3, ip, r1, lsr #23
 8000da0:	ea92 0f0c 	teq	r2, ip
 8000da4:	bf18      	it	ne
 8000da6:	ea93 0f0c 	teqne	r3, ip
 8000daa:	d00a      	beq.n	8000dc2 <__aeabi_fmul+0x11e>
 8000dac:	f030 4c00 	bics.w	ip, r0, #2147483648	@ 0x80000000
 8000db0:	bf18      	it	ne
 8000db2:	f031 4c00 	bicsne.w	ip, r1, #2147483648	@ 0x80000000
 8000db6:	d1d8      	bne.n	8000d6a <__aeabi_fmul+0xc6>
 8000db8:	ea80 0001 	eor.w	r0, r0, r1
 8000dbc:	f000 4000 	and.w	r0, r0, #2147483648	@ 0x80000000
 8000dc0:	4770      	bx	lr
 8000dc2:	f090 0f00 	teq	r0, #0
 8000dc6:	bf17      	itett	ne
 8000dc8:	f090 4f00 	teqne	r0, #2147483648	@ 0x80000000
 8000dcc:	4608      	moveq	r0, r1
 8000dce:	f091 0f00 	teqne	r1, #0
 8000dd2:	f091 4f00 	teqne	r1, #2147483648	@ 0x80000000
 8000dd6:	d014      	beq.n	8000e02 <__aeabi_fmul+0x15e>
 8000dd8:	ea92 0f0c 	teq	r2, ip
 8000ddc:	d101      	bne.n	8000de2 <__aeabi_fmul+0x13e>
 8000dde:	0242      	lsls	r2, r0, #9
 8000de0:	d10f      	bne.n	8000e02 <__aeabi_fmul+0x15e>
 8000de2:	ea93 0f0c 	teq	r3, ip
 8000de6:	d103      	bne.n	8000df0 <__aeabi_fmul+0x14c>
 8000de8:	024b      	lsls	r3, r1, #9
 8000dea:	bf18      	it	ne
 8000dec:	4608      	movne	r0, r1
 8000dee:	d108      	bne.n	8000e02 <__aeabi_fmul+0x15e>
 8000df0:	ea80 0001 	eor.w	r0, r0, r1
 8000df4:	f000 4000 	and.w	r0, r0, #2147483648	@ 0x80000000
 8000df8:	f040 40fe 	orr.w	r0, r0, #2130706432	@ 0x7f000000
 8000dfc:	f440 0000 	orr.w	r0, r0, #8388608	@ 0x800000
 8000e00:	4770      	bx	lr
 8000e02:	f040 40fe 	orr.w	r0, r0, #2130706432	@ 0x7f000000
 8000e06:	f440 0040 	orr.w	r0, r0, #12582912	@ 0xc00000
 8000e0a:	4770      	bx	lr

08000e0c <__aeabi_fdiv>:
 8000e0c:	f04f 0cff 	mov.w	ip, #255	@ 0xff
 8000e10:	ea1c 52d0 	ands.w	r2, ip, r0, lsr #23
 8000e14:	bf1e      	ittt	ne
 8000e16:	ea1c 53d1 	andsne.w	r3, ip, r1, lsr #23
 8000e1a:	ea92 0f0c 	teqne	r2, ip
 8000e1e:	ea93 0f0c 	teqne	r3, ip
 8000e22:	d069      	beq.n	8000ef8 <__aeabi_fdiv+0xec>
 8000e24:	eba2 0203 	sub.w	r2, r2, r3
 8000e28:	ea80 0c01 	eor.w	ip, r0, r1
 8000e2c:	0249      	lsls	r1, r1, #9
 8000e2e:	ea4f 2040 	mov.w	r0, r0, lsl #9
 8000e32:	d037      	beq.n	8000ea4 <__aeabi_fdiv+0x98>
 8000e34:	f04f 5380 	mov.w	r3, #268435456	@ 0x10000000
 8000e38:	ea43 1111 	orr.w	r1, r3, r1, lsr #4
 8000e3c:	ea43 1310 	orr.w	r3, r3, r0, lsr #4
 8000e40:	f00c 4000 	and.w	r0, ip, #2147483648	@ 0x80000000
 8000e44:	428b      	cmp	r3, r1
 8000e46:	bf38      	it	cc
 8000e48:	005b      	lslcc	r3, r3, #1
 8000e4a:	f142 027d 	adc.w	r2, r2, #125	@ 0x7d
 8000e4e:	f44f 0c00 	mov.w	ip, #8388608	@ 0x800000
 8000e52:	428b      	cmp	r3, r1
 8000e54:	bf24      	itt	cs
 8000e56:	1a5b      	subcs	r3, r3, r1
 8000e58:	ea40 000c 	orrcs.w	r0, r0, ip
 8000e5c:	ebb3 0f51 	cmp.w	r3, r1, lsr #1
 8000e60:	bf24      	itt	cs
 8000e62:	eba3 0351 	subcs.w	r3, r3, r1, lsr #1
 8000e66:	ea40 005c 	orrcs.w	r0, r0, ip, lsr #1
 8000e6a:	ebb3 0f91 	cmp.w	r3, r1, lsr #2
 8000e6e:	bf24      	itt	cs
 8000e70:	eba3 0391 	subcs.w	r3, r3, r1, lsr #2
 8000e74:	ea40 009c 	orrcs.w	r0, r0, ip, lsr #2
 8000e78:	ebb3 0fd1 	cmp.w	r3, r1, lsr #3
 8000e7c:	bf24      	itt	cs
 8000e7e:	eba3 03d1 	subcs.w	r3, r3, r1, lsr #3
 8000e82:	ea40 00dc 	orrcs.w	r0, r0, ip, lsr #3
 8000e86:	011b      	lsls	r3, r3, #4
 8000e88:	bf18      	it	ne
 8000e8a:	ea5f 1c1c 	movsne.w	ip, ip, lsr #4
 8000e8e:	d1e0      	bne.n	8000e52 <__aeabi_fdiv+0x46>
 8000e90:	2afd      	cmp	r2, #253	@ 0xfd
 8000e92:	f63f af50 	bhi.w	8000d36 <__aeabi_fmul+0x92>
 8000e96:	428b      	cmp	r3, r1
 8000e98:	eb40 50c2 	adc.w	r0, r0, r2, lsl #23
 8000e9c:	bf08      	it	eq
 8000e9e:	f020 0001 	biceq.w	r0, r0, #1
 8000ea2:	4770      	bx	lr
 8000ea4:	f00c 4c00 	and.w	ip, ip, #2147483648	@ 0x80000000
 8000ea8:	ea4c 2050 	orr.w	r0, ip, r0, lsr #9
 8000eac:	327f      	adds	r2, #127	@ 0x7f
 8000eae:	bfc2      	ittt	gt
 8000eb0:	f1d2 03ff 	rsbsgt	r3, r2, #255	@ 0xff
 8000eb4:	ea40 50c2 	orrgt.w	r0, r0, r2, lsl #23
 8000eb8:	4770      	bxgt	lr
 8000eba:	f440 0000 	orr.w	r0, r0, #8388608	@ 0x800000
 8000ebe:	f04f 0300 	mov.w	r3, #0
 8000ec2:	3a01      	subs	r2, #1
 8000ec4:	e737      	b.n	8000d36 <__aeabi_fmul+0x92>
 8000ec6:	f092 0f00 	teq	r2, #0
 8000eca:	f000 4c00 	and.w	ip, r0, #2147483648	@ 0x80000000
 8000ece:	bf02      	ittt	eq
 8000ed0:	0040      	lsleq	r0, r0, #1
 8000ed2:	f410 0f00 	tsteq.w	r0, #8388608	@ 0x800000
 8000ed6:	3a01      	subeq	r2, #1
 8000ed8:	d0f9      	beq.n	8000ece <__aeabi_fdiv+0xc2>
 8000eda:	ea40 000c 	orr.w	r0, r0, ip
 8000ede:	f093 0f00 	teq	r3, #0
 8000ee2:	f001 4c00 	and.w	ip, r1, #2147483648	@ 0x80000000
 8000ee6:	bf02      	ittt	eq
 8000ee8:	0049      	lsleq	r1, r1, #1
 8000eea:	f411 0f00 	tsteq.w	r1, #8388608	@ 0x800000
 8000eee:	3b01      	subeq	r3, #1
 8000ef0:	d0f9      	beq.n	8000ee6 <__aeabi_fdiv+0xda>
 8000ef2:	ea41 010c 	orr.w	r1, r1, ip
 8000ef6:	e795      	b.n	8000e24 <__aeabi_fdiv+0x18>
 8000ef8:	ea0c 53d1 	and.w	r3, ip, r1, lsr #23
 8000efc:	ea92 0f0c 	teq	r2, ip
 8000f00:	d108      	bne.n	8000f14 <__aeabi_fdiv+0x108>
 8000f02:	0242      	lsls	r2, r0, #9
 8000f04:	f47f af7d 	bne.w	8000e02 <__aeabi_fmul+0x15e>
 8000f08:	ea93 0f0c 	teq	r3, ip
 8000f0c:	f47f af70 	bne.w	8000df0 <__aeabi_fmul+0x14c>
 8000f10:	4608      	mov	r0, r1
 8000f12:	e776      	b.n	8000e02 <__aeabi_fmul+0x15e>
 8000f14:	ea93 0f0c 	teq	r3, ip
 8000f18:	d104      	bne.n	8000f24 <__aeabi_fdiv+0x118>
 8000f1a:	024b      	lsls	r3, r1, #9
 8000f1c:	f43f af4c 	beq.w	8000db8 <__aeabi_fmul+0x114>
 8000f20:	4608      	mov	r0, r1
 8000f22:	e76e      	b.n	8000e02 <__aeabi_fmul+0x15e>
 8000f24:	f030 4c00 	bics.w	ip, r0, #2147483648	@ 0x80000000
 8000f28:	bf18      	it	ne
 8000f2a:	f031 4c00 	bicsne.w	ip, r1, #2147483648	@ 0x80000000
 8000f2e:	d1ca      	bne.n	8000ec6 <__aeabi_fdiv+0xba>
 8000f30:	f030 4200 	bics.w	r2, r0, #2147483648	@ 0x80000000
 8000f34:	f47f af5c 	bne.w	8000df0 <__aeabi_fmul+0x14c>
 8000f38:	f031 4300 	bics.w	r3, r1, #2147483648	@ 0x80000000
 8000f3c:	f47f af3c 	bne.w	8000db8 <__aeabi_fmul+0x114>
 8000f40:	e75f      	b.n	8000e02 <__aeabi_fmul+0x15e>
 8000f42:	bf00      	nop

08000f44 <__gesf2>:
 8000f44:	f04f 3cff 	mov.w	ip, #4294967295	@ 0xffffffff
 8000f48:	e006      	b.n	8000f58 <__cmpsf2+0x4>
 8000f4a:	bf00      	nop

08000f4c <__lesf2>:
 8000f4c:	f04f 0c01 	mov.w	ip, #1
 8000f50:	e002      	b.n	8000f58 <__cmpsf2+0x4>
 8000f52:	bf00      	nop

08000f54 <__cmpsf2>:
 8000f54:	f04f 0c01 	mov.w	ip, #1
 8000f58:	f84d cd04 	str.w	ip, [sp, #-4]!
 8000f5c:	ea4f 0240 	mov.w	r2, r0, lsl #1
 8000f60:	ea4f 0341 	mov.w	r3, r1, lsl #1
 8000f64:	ea7f 6c22 	mvns.w	ip, r2, asr #24
 8000f68:	bf18      	it	ne
 8000f6a:	ea7f 6c23 	mvnsne.w	ip, r3, asr #24
 8000f6e:	d011      	beq.n	8000f94 <__cmpsf2+0x40>
 8000f70:	b001      	add	sp, #4
 8000f72:	ea52 0c53 	orrs.w	ip, r2, r3, lsr #1
 8000f76:	bf18      	it	ne
 8000f78:	ea90 0f01 	teqne	r0, r1
 8000f7c:	bf58      	it	pl
 8000f7e:	ebb2 0003 	subspl.w	r0, r2, r3
 8000f82:	bf88      	it	hi
 8000f84:	17c8      	asrhi	r0, r1, #31
 8000f86:	bf38      	it	cc
 8000f88:	ea6f 70e1 	mvncc.w	r0, r1, asr #31
 8000f8c:	bf18      	it	ne
 8000f8e:	f040 0001 	orrne.w	r0, r0, #1
 8000f92:	4770      	bx	lr
 8000f94:	ea7f 6c22 	mvns.w	ip, r2, asr #24
 8000f98:	d102      	bne.n	8000fa0 <__cmpsf2+0x4c>
 8000f9a:	ea5f 2c40 	movs.w	ip, r0, lsl #9
 8000f9e:	d105      	bne.n	8000fac <__cmpsf2+0x58>
 8000fa0:	ea7f 6c23 	mvns.w	ip, r3, asr #24
 8000fa4:	d1e4      	bne.n	8000f70 <__cmpsf2+0x1c>
 8000fa6:	ea5f 2c41 	movs.w	ip, r1, lsl #9
 8000faa:	d0e1      	beq.n	8000f70 <__cmpsf2+0x1c>
 8000fac:	f85d 0b04 	ldr.w	r0, [sp], #4
 8000fb0:	4770      	bx	lr
 8000fb2:	bf00      	nop

08000fb4 <__aeabi_cfrcmple>:
 8000fb4:	4684      	mov	ip, r0
 8000fb6:	4608      	mov	r0, r1
 8000fb8:	4661      	mov	r1, ip
 8000fba:	e7ff      	b.n	8000fbc <__aeabi_cfcmpeq>

08000fbc <__aeabi_cfcmpeq>:
 8000fbc:	b50f      	push	{r0, r1, r2, r3, lr}
 8000fbe:	f7ff ffc9 	bl	8000f54 <__cmpsf2>
 8000fc2:	2800      	cmp	r0, #0
 8000fc4:	bf48      	it	mi
 8000fc6:	f110 0f00 	cmnmi.w	r0, #0
 8000fca:	bd0f      	pop	{r0, r1, r2, r3, pc}

08000fcc <__aeabi_fcmpeq>:
 8000fcc:	f84d ed08 	str.w	lr, [sp, #-8]!
 8000fd0:	f7ff fff4 	bl	8000fbc <__aeabi_cfcmpeq>
 8000fd4:	bf0c      	ite	eq
 8000fd6:	2001      	moveq	r0, #1
 8000fd8:	2000      	movne	r0, #0
 8000fda:	f85d fb08 	ldr.w	pc, [sp], #8
 8000fde:	bf00      	nop

08000fe0 <__aeabi_fcmplt>:
 8000fe0:	f84d ed08 	str.w	lr, [sp, #-8]!
 8000fe4:	f7ff ffea 	bl	8000fbc <__aeabi_cfcmpeq>
 8000fe8:	bf34      	ite	cc
 8000fea:	2001      	movcc	r0, #1
 8000fec:	2000      	movcs	r0, #0
 8000fee:	f85d fb08 	ldr.w	pc, [sp], #8
 8000ff2:	bf00      	nop

08000ff4 <__aeabi_fcmple>:
 8000ff4:	f84d ed08 	str.w	lr, [sp, #-8]!
 8000ff8:	f7ff ffe0 	bl	8000fbc <__aeabi_cfcmpeq>
 8000ffc:	bf94      	ite	ls
 8000ffe:	2001      	movls	r0, #1
 8001000:	2000      	movhi	r0, #0
 8001002:	f85d fb08 	ldr.w	pc, [sp], #8
 8001006:	bf00      	nop

08001008 <__aeabi_fcmpge>:
 8001008:	f84d ed08 	str.w	lr, [sp, #-8]!
 800100c:	f7ff ffd2 	bl	8000fb4 <__aeabi_cfrcmple>
 8001010:	bf94      	ite	ls
 8001012:	2001      	movls	r0, #1
 8001014:	2000      	movhi	r0, #0
 8001016:	f85d fb08 	ldr.w	pc, [sp], #8
 800101a:	bf00      	nop

0800101c <__aeabi_fcmpgt>:
 800101c:	f84d ed08 	str.w	lr, [sp, #-8]!
 8001020:	f7ff ffc8 	bl	8000fb4 <__aeabi_cfrcmple>
 8001024:	bf34      	ite	cc
 8001026:	2001      	movcc	r0, #1
 8001028:	2000      	movcs	r0, #0
 800102a:	f85d fb08 	ldr.w	pc, [sp], #8
 800102e:	bf00      	nop

08001030 <__aeabi_f2iz>:
 8001030:	ea4f 0240 	mov.w	r2, r0, lsl #1
 8001034:	f1b2 4ffe 	cmp.w	r2, #2130706432	@ 0x7f000000
 8001038:	d30f      	bcc.n	800105a <__aeabi_f2iz+0x2a>
 800103a:	f04f 039e 	mov.w	r3, #158	@ 0x9e
 800103e:	ebb3 6212 	subs.w	r2, r3, r2, lsr #24
 8001042:	d90d      	bls.n	8001060 <__aeabi_f2iz+0x30>
 8001044:	ea4f 2300 	mov.w	r3, r0, lsl #8
 8001048:	f043 4300 	orr.w	r3, r3, #2147483648	@ 0x80000000
 800104c:	f010 4f00 	tst.w	r0, #2147483648	@ 0x80000000
 8001050:	fa23 f002 	lsr.w	r0, r3, r2
 8001054:	bf18      	it	ne
 8001056:	4240      	negne	r0, r0
 8001058:	4770      	bx	lr
 800105a:	f04f 0000 	mov.w	r0, #0
 800105e:	4770      	bx	lr
 8001060:	f112 0f61 	cmn.w	r2, #97	@ 0x61
 8001064:	d101      	bne.n	800106a <__aeabi_f2iz+0x3a>
 8001066:	0242      	lsls	r2, r0, #9
 8001068:	d105      	bne.n	8001076 <__aeabi_f2iz+0x46>
 800106a:	f010 4000 	ands.w	r0, r0, #2147483648	@ 0x80000000
 800106e:	bf08      	it	eq
 8001070:	f06f 4000 	mvneq.w	r0, #2147483648	@ 0x80000000
 8001074:	4770      	bx	lr
 8001076:	f04f 0000 	mov.w	r0, #0
 800107a:	4770      	bx	lr

0800107c <__aeabi_f2uiz>:
 800107c:	0042      	lsls	r2, r0, #1
 800107e:	d20e      	bcs.n	800109e <__aeabi_f2uiz+0x22>
 8001080:	f1b2 4ffe 	cmp.w	r2, #2130706432	@ 0x7f000000
 8001084:	d30b      	bcc.n	800109e <__aeabi_f2uiz+0x22>
 8001086:	f04f 039e 	mov.w	r3, #158	@ 0x9e
 800108a:	ebb3 6212 	subs.w	r2, r3, r2, lsr #24
 800108e:	d409      	bmi.n	80010a4 <__aeabi_f2uiz+0x28>
 8001090:	ea4f 2300 	mov.w	r3, r0, lsl #8
 8001094:	f043 4300 	orr.w	r3, r3, #2147483648	@ 0x80000000
 8001098:	fa23 f002 	lsr.w	r0, r3, r2
 800109c:	4770      	bx	lr
 800109e:	f04f 0000 	mov.w	r0, #0
 80010a2:	4770      	bx	lr
 80010a4:	f112 0f61 	cmn.w	r2, #97	@ 0x61
 80010a8:	d101      	bne.n	80010ae <__aeabi_f2uiz+0x32>
 80010aa:	0242      	lsls	r2, r0, #9
 80010ac:	d102      	bne.n	80010b4 <__aeabi_f2uiz+0x38>
 80010ae:	f04f 30ff 	mov.w	r0, #4294967295	@ 0xffffffff
 80010b2:	4770      	bx	lr
 80010b4:	f04f 0000 	mov.w	r0, #0
 80010b8:	4770      	bx	lr
 80010ba:	bf00      	nop

080010bc <CAN_SendChannelTemp>:
  HAL_UART_Transmit(&huart1, (uint8_t *)ptr, (uint16_t)len, HAL_MAX_DELAY);
  return len;
}
#endif

static HAL_StatusTypeDef CAN_SendChannelTemp(uint8_t id, uint8_t temp[7]) {
 80010bc:	b580      	push	{r7, lr}
 80010be:	b084      	sub	sp, #16
 80010c0:	af00      	add	r7, sp, #0
 80010c2:	4603      	mov	r3, r0
 80010c4:	6039      	str	r1, [r7, #0]
 80010c6:	71fb      	strb	r3, [r7, #7]
  TxHeader.ExtId = id;
 80010c8:	79fb      	ldrb	r3, [r7, #7]
 80010ca:	4a25      	ldr	r2, [pc, #148]	@ (8001160 <CAN_SendChannelTemp+0xa4>)
 80010cc:	6053      	str	r3, [r2, #4]
  TxHeader.IDE = CAN_ID_EXT;
 80010ce:	4b24      	ldr	r3, [pc, #144]	@ (8001160 <CAN_SendChannelTemp+0xa4>)
 80010d0:	2204      	movs	r2, #4
 80010d2:	609a      	str	r2, [r3, #8]
  TxHeader.RTR = CAN_RTR_DATA;
 80010d4:	4b22      	ldr	r3, [pc, #136]	@ (8001160 <CAN_SendChannelTemp+0xa4>)
 80010d6:	2200      	movs	r2, #0
 80010d8:	60da      	str	r2, [r3, #12]
  TxHeader.DLC = 8u;
 80010da:	4b21      	ldr	r3, [pc, #132]	@ (8001160 <CAN_SendChannelTemp+0xa4>)
 80010dc:	2208      	movs	r2, #8
 80010de:	611a      	str	r2, [r3, #16]
  TxHeader.TransmitGlobalTime = DISABLE;
 80010e0:	4b1f      	ldr	r3, [pc, #124]	@ (8001160 <CAN_SendChannelTemp+0xa4>)
 80010e2:	2200      	movs	r2, #0
 80010e4:	751a      	strb	r2, [r3, #20]

  TxData[0] = (uint8_t)(int8_t)temp[0];
 80010e6:	683b      	ldr	r3, [r7, #0]
 80010e8:	781a      	ldrb	r2, [r3, #0]
 80010ea:	4b1e      	ldr	r3, [pc, #120]	@ (8001164 <CAN_SendChannelTemp+0xa8>)
 80010ec:	701a      	strb	r2, [r3, #0]
  TxData[1] = (uint8_t)(int8_t)temp[1];
 80010ee:	683b      	ldr	r3, [r7, #0]
 80010f0:	785a      	ldrb	r2, [r3, #1]
 80010f2:	4b1c      	ldr	r3, [pc, #112]	@ (8001164 <CAN_SendChannelTemp+0xa8>)
 80010f4:	705a      	strb	r2, [r3, #1]
  TxData[2] = (uint8_t)(int8_t)temp[2];
 80010f6:	683b      	ldr	r3, [r7, #0]
 80010f8:	789a      	ldrb	r2, [r3, #2]
 80010fa:	4b1a      	ldr	r3, [pc, #104]	@ (8001164 <CAN_SendChannelTemp+0xa8>)
 80010fc:	709a      	strb	r2, [r3, #2]
  TxData[3] = (uint8_t)(int8_t)temp[3];
 80010fe:	683b      	ldr	r3, [r7, #0]
 8001100:	78da      	ldrb	r2, [r3, #3]
 8001102:	4b18      	ldr	r3, [pc, #96]	@ (8001164 <CAN_SendChannelTemp+0xa8>)
 8001104:	70da      	strb	r2, [r3, #3]
  TxData[4] = (uint8_t)(int8_t)temp[4];
 8001106:	683b      	ldr	r3, [r7, #0]
 8001108:	791a      	ldrb	r2, [r3, #4]
 800110a:	4b16      	ldr	r3, [pc, #88]	@ (8001164 <CAN_SendChannelTemp+0xa8>)
 800110c:	711a      	strb	r2, [r3, #4]
  TxData[5] = (uint8_t)(int8_t)temp[5];
 800110e:	683b      	ldr	r3, [r7, #0]
 8001110:	795a      	ldrb	r2, [r3, #5]
 8001112:	4b14      	ldr	r3, [pc, #80]	@ (8001164 <CAN_SendChannelTemp+0xa8>)
 8001114:	715a      	strb	r2, [r3, #5]
  TxData[6] = (uint8_t)(int8_t)temp[6];
 8001116:	683b      	ldr	r3, [r7, #0]
 8001118:	799a      	ldrb	r2, [r3, #6]
 800111a:	4b12      	ldr	r3, [pc, #72]	@ (8001164 <CAN_SendChannelTemp+0xa8>)
 800111c:	719a      	strb	r2, [r3, #6]

  /* Checksum = sum of bytes 0–6, no seed                            */
  uint8_t checksum = 0u;
 800111e:	2300      	movs	r3, #0
 8001120:	73fb      	strb	r3, [r7, #15]
  for (uint8_t i = 0u; i < 7u; i++)
 8001122:	2300      	movs	r3, #0
 8001124:	73bb      	strb	r3, [r7, #14]
 8001126:	e008      	b.n	800113a <CAN_SendChannelTemp+0x7e>
    checksum += TxData[i];
 8001128:	7bbb      	ldrb	r3, [r7, #14]
 800112a:	4a0e      	ldr	r2, [pc, #56]	@ (8001164 <CAN_SendChannelTemp+0xa8>)
 800112c:	5cd2      	ldrb	r2, [r2, r3]
 800112e:	7bfb      	ldrb	r3, [r7, #15]
 8001130:	4413      	add	r3, r2
 8001132:	73fb      	strb	r3, [r7, #15]
  for (uint8_t i = 0u; i < 7u; i++)
 8001134:	7bbb      	ldrb	r3, [r7, #14]
 8001136:	3301      	adds	r3, #1
 8001138:	73bb      	strb	r3, [r7, #14]
 800113a:	7bbb      	ldrb	r3, [r7, #14]
 800113c:	2b06      	cmp	r3, #6
 800113e:	d9f3      	bls.n	8001128 <CAN_SendChannelTemp+0x6c>
  TxData[7] = checksum + 65;
 8001140:	7bfb      	ldrb	r3, [r7, #15]
 8001142:	3341      	adds	r3, #65	@ 0x41
 8001144:	b2da      	uxtb	r2, r3
 8001146:	4b07      	ldr	r3, [pc, #28]	@ (8001164 <CAN_SendChannelTemp+0xa8>)
 8001148:	71da      	strb	r2, [r3, #7]

  return HAL_CAN_AddTxMessage(&hcan, &TxHeader, TxData, &TxMailbox);
 800114a:	4b07      	ldr	r3, [pc, #28]	@ (8001168 <CAN_SendChannelTemp+0xac>)
 800114c:	4a05      	ldr	r2, [pc, #20]	@ (8001164 <CAN_SendChannelTemp+0xa8>)
 800114e:	4904      	ldr	r1, [pc, #16]	@ (8001160 <CAN_SendChannelTemp+0xa4>)
 8001150:	4806      	ldr	r0, [pc, #24]	@ (800116c <CAN_SendChannelTemp+0xb0>)
 8001152:	f001 ff33 	bl	8002fbc <HAL_CAN_AddTxMessage>
 8001156:	4603      	mov	r3, r0
}
 8001158:	4618      	mov	r0, r3
 800115a:	3710      	adds	r7, #16
 800115c:	46bd      	mov	sp, r7
 800115e:	bd80      	pop	{r7, pc}
 8001160:	20000338 	.word	0x20000338
 8001164:	20000350 	.word	0x20000350
 8001168:	20000358 	.word	0x20000358
 800116c:	20000228 	.word	0x20000228

08001170 <CAN_SendTemperatureStatistics>:

static HAL_StatusTypeDef
CAN_SendTemperatureStatistics(TempStatistics_t *stats) {
 8001170:	b580      	push	{r7, lr}
 8001172:	b084      	sub	sp, #16
 8001174:	af00      	add	r7, sp, #0
 8001176:	6078      	str	r0, [r7, #4]
  TxHeader.ExtId = 0x1839F380;
 8001178:	4b25      	ldr	r3, [pc, #148]	@ (8001210 <CAN_SendTemperatureStatistics+0xa0>)
 800117a:	4a26      	ldr	r2, [pc, #152]	@ (8001214 <CAN_SendTemperatureStatistics+0xa4>)
 800117c:	605a      	str	r2, [r3, #4]
  TxHeader.IDE = CAN_ID_EXT;
 800117e:	4b24      	ldr	r3, [pc, #144]	@ (8001210 <CAN_SendTemperatureStatistics+0xa0>)
 8001180:	2204      	movs	r2, #4
 8001182:	609a      	str	r2, [r3, #8]
  TxHeader.RTR = CAN_RTR_DATA;
 8001184:	4b22      	ldr	r3, [pc, #136]	@ (8001210 <CAN_SendTemperatureStatistics+0xa0>)
 8001186:	2200      	movs	r2, #0
 8001188:	60da      	str	r2, [r3, #12]
  TxHeader.DLC = 8u;
 800118a:	4b21      	ldr	r3, [pc, #132]	@ (8001210 <CAN_SendTemperatureStatistics+0xa0>)
 800118c:	2208      	movs	r2, #8
 800118e:	611a      	str	r2, [r3, #16]
  TxHeader.TransmitGlobalTime = DISABLE;
 8001190:	4b1f      	ldr	r3, [pc, #124]	@ (8001210 <CAN_SendTemperatureStatistics+0xa0>)
 8001192:	2200      	movs	r2, #0
 8001194:	751a      	strb	r2, [r3, #20]

  TxData[0] = 0;
 8001196:	4b20      	ldr	r3, [pc, #128]	@ (8001218 <CAN_SendTemperatureStatistics+0xa8>)
 8001198:	2200      	movs	r2, #0
 800119a:	701a      	strb	r2, [r3, #0]
  TxData[1] = (uint8_t)(int8_t)stats->min_temp;
 800119c:	687b      	ldr	r3, [r7, #4]
 800119e:	f9b3 3000 	ldrsh.w	r3, [r3]
 80011a2:	b2da      	uxtb	r2, r3
 80011a4:	4b1c      	ldr	r3, [pc, #112]	@ (8001218 <CAN_SendTemperatureStatistics+0xa8>)
 80011a6:	705a      	strb	r2, [r3, #1]
  TxData[2] = (uint8_t)(int8_t)stats->max_temp;
 80011a8:	687b      	ldr	r3, [r7, #4]
 80011aa:	f9b3 3002 	ldrsh.w	r3, [r3, #2]
 80011ae:	b2da      	uxtb	r2, r3
 80011b0:	4b19      	ldr	r3, [pc, #100]	@ (8001218 <CAN_SendTemperatureStatistics+0xa8>)
 80011b2:	709a      	strb	r2, [r3, #2]
//  TxData[1] = 20;
//  TxData[2] = 22;
  TxData[3] = (uint8_t)(int8_t)67;
 80011b4:	4b18      	ldr	r3, [pc, #96]	@ (8001218 <CAN_SendTemperatureStatistics+0xa8>)
 80011b6:	2243      	movs	r2, #67	@ 0x43
 80011b8:	70da      	strb	r2, [r3, #3]
  TxData[4] = 1;
 80011ba:	4b17      	ldr	r3, [pc, #92]	@ (8001218 <CAN_SendTemperatureStatistics+0xa8>)
 80011bc:	2201      	movs	r2, #1
 80011be:	711a      	strb	r2, [r3, #4]
  TxData[5] = 1;
 80011c0:	4b15      	ldr	r3, [pc, #84]	@ (8001218 <CAN_SendTemperatureStatistics+0xa8>)
 80011c2:	2201      	movs	r2, #1
 80011c4:	715a      	strb	r2, [r3, #5]
  TxData[6] = 0;
 80011c6:	4b14      	ldr	r3, [pc, #80]	@ (8001218 <CAN_SendTemperatureStatistics+0xa8>)
 80011c8:	2200      	movs	r2, #0
 80011ca:	719a      	strb	r2, [r3, #6]

  /* Checksum = sum of bytes 0–6, no seed                            */
  uint8_t checksum = 0u;
 80011cc:	2300      	movs	r3, #0
 80011ce:	73fb      	strb	r3, [r7, #15]
  for (uint8_t i = 0u; i < 7u; i++)
 80011d0:	2300      	movs	r3, #0
 80011d2:	73bb      	strb	r3, [r7, #14]
 80011d4:	e008      	b.n	80011e8 <CAN_SendTemperatureStatistics+0x78>
    checksum += TxData[i];
 80011d6:	7bbb      	ldrb	r3, [r7, #14]
 80011d8:	4a0f      	ldr	r2, [pc, #60]	@ (8001218 <CAN_SendTemperatureStatistics+0xa8>)
 80011da:	5cd2      	ldrb	r2, [r2, r3]
 80011dc:	7bfb      	ldrb	r3, [r7, #15]
 80011de:	4413      	add	r3, r2
 80011e0:	73fb      	strb	r3, [r7, #15]
  for (uint8_t i = 0u; i < 7u; i++)
 80011e2:	7bbb      	ldrb	r3, [r7, #14]
 80011e4:	3301      	adds	r3, #1
 80011e6:	73bb      	strb	r3, [r7, #14]
 80011e8:	7bbb      	ldrb	r3, [r7, #14]
 80011ea:	2b06      	cmp	r3, #6
 80011ec:	d9f3      	bls.n	80011d6 <CAN_SendTemperatureStatistics+0x66>
  TxData[7] = checksum + 65;
 80011ee:	7bfb      	ldrb	r3, [r7, #15]
 80011f0:	3341      	adds	r3, #65	@ 0x41
 80011f2:	b2da      	uxtb	r2, r3
 80011f4:	4b08      	ldr	r3, [pc, #32]	@ (8001218 <CAN_SendTemperatureStatistics+0xa8>)
 80011f6:	71da      	strb	r2, [r3, #7]

  return HAL_CAN_AddTxMessage(&hcan, &TxHeader, TxData, &TxMailbox);
 80011f8:	4b08      	ldr	r3, [pc, #32]	@ (800121c <CAN_SendTemperatureStatistics+0xac>)
 80011fa:	4a07      	ldr	r2, [pc, #28]	@ (8001218 <CAN_SendTemperatureStatistics+0xa8>)
 80011fc:	4904      	ldr	r1, [pc, #16]	@ (8001210 <CAN_SendTemperatureStatistics+0xa0>)
 80011fe:	4808      	ldr	r0, [pc, #32]	@ (8001220 <CAN_SendTemperatureStatistics+0xb0>)
 8001200:	f001 fedc 	bl	8002fbc <HAL_CAN_AddTxMessage>
 8001204:	4603      	mov	r3, r0
}
 8001206:	4618      	mov	r0, r3
 8001208:	3710      	adds	r7, #16
 800120a:	46bd      	mov	sp, r7
 800120c:	bd80      	pop	{r7, pc}
 800120e:	bf00      	nop
 8001210:	20000338 	.word	0x20000338
 8001214:	1839f380 	.word	0x1839f380
 8001218:	20000350 	.word	0x20000350
 800121c:	20000358 	.word	0x20000358
 8001220:	20000228 	.word	0x20000228

08001224 <CAN_Init_Filter>:

static void CAN_Init_Filter(void) {
 8001224:	b580      	push	{r7, lr}
 8001226:	b08a      	sub	sp, #40	@ 0x28
 8001228:	af00      	add	r7, sp, #0
  CAN_FilterTypeDef f = {0};
 800122a:	463b      	mov	r3, r7
 800122c:	2228      	movs	r2, #40	@ 0x28
 800122e:	2100      	movs	r1, #0
 8001230:	4618      	mov	r0, r3
 8001232:	f004 fac5 	bl	80057c0 <memset>
  f.FilterActivation = CAN_FILTER_ENABLE;
 8001236:	2301      	movs	r3, #1
 8001238:	623b      	str	r3, [r7, #32]
  f.FilterBank = 0u;
 800123a:	2300      	movs	r3, #0
 800123c:	617b      	str	r3, [r7, #20]
  f.FilterFIFOAssignment = CAN_RX_FIFO0;
 800123e:	2300      	movs	r3, #0
 8001240:	613b      	str	r3, [r7, #16]
  f.FilterIdHigh = 0x0000u;
 8001242:	2300      	movs	r3, #0
 8001244:	603b      	str	r3, [r7, #0]
  f.FilterIdLow = 0x0000u;
 8001246:	2300      	movs	r3, #0
 8001248:	607b      	str	r3, [r7, #4]
  f.FilterMaskIdHigh = 0x0000u;
 800124a:	2300      	movs	r3, #0
 800124c:	60bb      	str	r3, [r7, #8]
  f.FilterMaskIdLow = 0x0000u;
 800124e:	2300      	movs	r3, #0
 8001250:	60fb      	str	r3, [r7, #12]
  f.FilterMode = CAN_FILTERMODE_IDMASK;
 8001252:	2300      	movs	r3, #0
 8001254:	61bb      	str	r3, [r7, #24]
  f.FilterScale = CAN_FILTERSCALE_32BIT;
 8001256:	2301      	movs	r3, #1
 8001258:	61fb      	str	r3, [r7, #28]
  f.SlaveStartFilterBank = 14u;
 800125a:	230e      	movs	r3, #14
 800125c:	627b      	str	r3, [r7, #36]	@ 0x24

  if (HAL_CAN_ConfigFilter(&hcan, &f) != HAL_OK)
 800125e:	463b      	mov	r3, r7
 8001260:	4619      	mov	r1, r3
 8001262:	4806      	ldr	r0, [pc, #24]	@ (800127c <CAN_Init_Filter+0x58>)
 8001264:	f001 fd9d 	bl	8002da2 <HAL_CAN_ConfigFilter>
 8001268:	4603      	mov	r3, r0
 800126a:	2b00      	cmp	r3, #0
 800126c:	d001      	beq.n	8001272 <CAN_Init_Filter+0x4e>
    Error_Handler();
 800126e:	f000 fd19 	bl	8001ca4 <Error_Handler>
}
 8001272:	bf00      	nop
 8001274:	3728      	adds	r7, #40	@ 0x28
 8001276:	46bd      	mov	sp, r7
 8001278:	bd80      	pop	{r7, pc}
 800127a:	bf00      	nop
 800127c:	20000228 	.word	0x20000228

08001280 <ADC1_SetLongSampleTime>:

static void ADC1_SetLongSampleTime(void) {
 8001280:	b580      	push	{r7, lr}
 8001282:	b084      	sub	sp, #16
 8001284:	af00      	add	r7, sp, #0
  ADC_ChannelConfTypeDef sConfig = {0};
 8001286:	1d3b      	adds	r3, r7, #4
 8001288:	2200      	movs	r2, #0
 800128a:	601a      	str	r2, [r3, #0]
 800128c:	605a      	str	r2, [r3, #4]
 800128e:	609a      	str	r2, [r3, #8]

  sConfig.Channel = ADC_CHANNEL_2;
 8001290:	2302      	movs	r3, #2
 8001292:	607b      	str	r3, [r7, #4]
  sConfig.Rank = ADC_REGULAR_RANK_1;
 8001294:	2301      	movs	r3, #1
 8001296:	60bb      	str	r3, [r7, #8]
  sConfig.SamplingTime = ADC_SAMPLETIME_239CYCLES_5;
 8001298:	2307      	movs	r3, #7
 800129a:	60fb      	str	r3, [r7, #12]

  if (HAL_ADC_ConfigChannel(&hadc1, &sConfig) != HAL_OK) {
 800129c:	1d3b      	adds	r3, r7, #4
 800129e:	4619      	mov	r1, r3
 80012a0:	4805      	ldr	r0, [pc, #20]	@ (80012b8 <ADC1_SetLongSampleTime+0x38>)
 80012a2:	f001 fa41 	bl	8002728 <HAL_ADC_ConfigChannel>
 80012a6:	4603      	mov	r3, r0
 80012a8:	2b00      	cmp	r3, #0
 80012aa:	d001      	beq.n	80012b0 <ADC1_SetLongSampleTime+0x30>
    Error_Handler();
 80012ac:	f000 fcfa 	bl	8001ca4 <Error_Handler>
  }
}
 80012b0:	bf00      	nop
 80012b2:	3710      	adds	r7, #16
 80012b4:	46bd      	mov	sp, r7
 80012b6:	bd80      	pop	{r7, pc}
 80012b8:	200001f8 	.word	0x200001f8

080012bc <MUX_WriteRaw>:

static HAL_StatusTypeDef MUX_WriteRaw(mux_id_t mux, uint8_t cmd) {
 80012bc:	b580      	push	{r7, lr}
 80012be:	b084      	sub	sp, #16
 80012c0:	af00      	add	r7, sp, #0
 80012c2:	4603      	mov	r3, r0
 80012c4:	460a      	mov	r2, r1
 80012c6:	71fb      	strb	r3, [r7, #7]
 80012c8:	4613      	mov	r3, r2
 80012ca:	71bb      	strb	r3, [r7, #6]
  HAL_StatusTypeDef status;

  HAL_GPIO_WritePin(GPIOB, GPIO_PIN_0 | GPIO_PIN_1 | GPIO_PIN_2, GPIO_PIN_SET);
 80012cc:	2201      	movs	r2, #1
 80012ce:	2107      	movs	r1, #7
 80012d0:	4814      	ldr	r0, [pc, #80]	@ (8001324 <MUX_WriteRaw+0x68>)
 80012d2:	f002 f9ab 	bl	800362c <HAL_GPIO_WritePin>
  HAL_GPIO_WritePin(mux_sync_port[mux], mux_sync_pin[mux], GPIO_PIN_RESET);
 80012d6:	79fb      	ldrb	r3, [r7, #7]
 80012d8:	4a13      	ldr	r2, [pc, #76]	@ (8001328 <MUX_WriteRaw+0x6c>)
 80012da:	f852 0023 	ldr.w	r0, [r2, r3, lsl #2]
 80012de:	79fb      	ldrb	r3, [r7, #7]
 80012e0:	4a12      	ldr	r2, [pc, #72]	@ (800132c <MUX_WriteRaw+0x70>)
 80012e2:	f832 3013 	ldrh.w	r3, [r2, r3, lsl #1]
 80012e6:	2200      	movs	r2, #0
 80012e8:	4619      	mov	r1, r3
 80012ea:	f002 f99f 	bl	800362c <HAL_GPIO_WritePin>

  status = HAL_SPI_Transmit(&hspi1, &cmd, 1, HAL_MAX_DELAY);
 80012ee:	1db9      	adds	r1, r7, #6
 80012f0:	f04f 33ff 	mov.w	r3, #4294967295	@ 0xffffffff
 80012f4:	2201      	movs	r2, #1
 80012f6:	480e      	ldr	r0, [pc, #56]	@ (8001330 <MUX_WriteRaw+0x74>)
 80012f8:	f002 ffd6 	bl	80042a8 <HAL_SPI_Transmit>
 80012fc:	4603      	mov	r3, r0
 80012fe:	73fb      	strb	r3, [r7, #15]

  HAL_GPIO_WritePin(mux_sync_port[mux], mux_sync_pin[mux], GPIO_PIN_SET);
 8001300:	79fb      	ldrb	r3, [r7, #7]
 8001302:	4a09      	ldr	r2, [pc, #36]	@ (8001328 <MUX_WriteRaw+0x6c>)
 8001304:	f852 0023 	ldr.w	r0, [r2, r3, lsl #2]
 8001308:	79fb      	ldrb	r3, [r7, #7]
 800130a:	4a08      	ldr	r2, [pc, #32]	@ (800132c <MUX_WriteRaw+0x70>)
 800130c:	f832 3013 	ldrh.w	r3, [r2, r3, lsl #1]
 8001310:	2201      	movs	r2, #1
 8001312:	4619      	mov	r1, r3
 8001314:	f002 f98a 	bl	800362c <HAL_GPIO_WritePin>

  return status;
 8001318:	7bfb      	ldrb	r3, [r7, #15]
}
 800131a:	4618      	mov	r0, r3
 800131c:	3710      	adds	r7, #16
 800131e:	46bd      	mov	sp, r7
 8001320:	bd80      	pop	{r7, pc}
 8001322:	bf00      	nop
 8001324:	40010c00 	.word	0x40010c00
 8001328:	08007c9c 	.word	0x08007c9c
 800132c:	08007ca8 	.word	0x08007ca8
 8001330:	20000250 	.word	0x20000250

08001334 <MUX_Disable>:

static HAL_StatusTypeDef MUX_Disable(mux_id_t mux) {
 8001334:	b580      	push	{r7, lr}
 8001336:	b082      	sub	sp, #8
 8001338:	af00      	add	r7, sp, #0
 800133a:	4603      	mov	r3, r0
 800133c:	71fb      	strb	r3, [r7, #7]
  return MUX_WriteRaw(mux, MUX_DISABLE_CMD);
 800133e:	79fb      	ldrb	r3, [r7, #7]
 8001340:	2180      	movs	r1, #128	@ 0x80
 8001342:	4618      	mov	r0, r3
 8001344:	f7ff ffba 	bl	80012bc <MUX_WriteRaw>
 8001348:	4603      	mov	r3, r0
}
 800134a:	4618      	mov	r0, r3
 800134c:	3708      	adds	r7, #8
 800134e:	46bd      	mov	sp, r7
 8001350:	bd80      	pop	{r7, pc}

08001352 <MUX_DisableAll>:

static void MUX_DisableAll(void) {
 8001352:	b580      	push	{r7, lr}
 8001354:	af00      	add	r7, sp, #0
  (void)MUX_Disable(MUX1);
 8001356:	2000      	movs	r0, #0
 8001358:	f7ff ffec 	bl	8001334 <MUX_Disable>
  (void)MUX_Disable(MUX2);
 800135c:	2001      	movs	r0, #1
 800135e:	f7ff ffe9 	bl	8001334 <MUX_Disable>
  (void)MUX_Disable(MUX3);
 8001362:	2002      	movs	r0, #2
 8001364:	f7ff ffe6 	bl	8001334 <MUX_Disable>
}
 8001368:	bf00      	nop
 800136a:	bd80      	pop	{r7, pc}

0800136c <MUX_SelectChannel>:

static HAL_StatusTypeDef MUX_SelectChannel(mux_id_t mux, uint8_t channel) {
 800136c:	b580      	push	{r7, lr}
 800136e:	b084      	sub	sp, #16
 8001370:	af00      	add	r7, sp, #0
 8001372:	4603      	mov	r3, r0
 8001374:	460a      	mov	r2, r1
 8001376:	71fb      	strb	r3, [r7, #7]
 8001378:	4613      	mov	r3, r2
 800137a:	71bb      	strb	r3, [r7, #6]
  uint8_t i;

  if (channel >= MUX_CHANNELS_PER_CHIP) {
 800137c:	79bb      	ldrb	r3, [r7, #6]
 800137e:	2b1f      	cmp	r3, #31
 8001380:	d901      	bls.n	8001386 <MUX_SelectChannel+0x1a>
    return HAL_ERROR;
 8001382:	2301      	movs	r3, #1
 8001384:	e024      	b.n	80013d0 <MUX_SelectChannel+0x64>
  }

  for (i = 0; i < NUM_MUXES; i++) {
 8001386:	2300      	movs	r3, #0
 8001388:	73fb      	strb	r3, [r7, #15]
 800138a:	e00f      	b.n	80013ac <MUX_SelectChannel+0x40>
    if (i != (uint8_t)mux) {
 800138c:	7bfa      	ldrb	r2, [r7, #15]
 800138e:	79fb      	ldrb	r3, [r7, #7]
 8001390:	429a      	cmp	r2, r3
 8001392:	d008      	beq.n	80013a6 <MUX_SelectChannel+0x3a>
      if (MUX_Disable((mux_id_t)i) != HAL_OK) {
 8001394:	7bfb      	ldrb	r3, [r7, #15]
 8001396:	4618      	mov	r0, r3
 8001398:	f7ff ffcc 	bl	8001334 <MUX_Disable>
 800139c:	4603      	mov	r3, r0
 800139e:	2b00      	cmp	r3, #0
 80013a0:	d001      	beq.n	80013a6 <MUX_SelectChannel+0x3a>
        return HAL_ERROR;
 80013a2:	2301      	movs	r3, #1
 80013a4:	e014      	b.n	80013d0 <MUX_SelectChannel+0x64>
  for (i = 0; i < NUM_MUXES; i++) {
 80013a6:	7bfb      	ldrb	r3, [r7, #15]
 80013a8:	3301      	adds	r3, #1
 80013aa:	73fb      	strb	r3, [r7, #15]
 80013ac:	7bfb      	ldrb	r3, [r7, #15]
 80013ae:	2b02      	cmp	r3, #2
 80013b0:	d9ec      	bls.n	800138c <MUX_SelectChannel+0x20>
      }
    }
  }

  if (MUX_WriteRaw(mux, (uint8_t)(channel & 0x1FU)) != HAL_OK) {
 80013b2:	79bb      	ldrb	r3, [r7, #6]
 80013b4:	f003 031f 	and.w	r3, r3, #31
 80013b8:	b2da      	uxtb	r2, r3
 80013ba:	79fb      	ldrb	r3, [r7, #7]
 80013bc:	4611      	mov	r1, r2
 80013be:	4618      	mov	r0, r3
 80013c0:	f7ff ff7c 	bl	80012bc <MUX_WriteRaw>
 80013c4:	4603      	mov	r3, r0
 80013c6:	2b00      	cmp	r3, #0
 80013c8:	d001      	beq.n	80013ce <MUX_SelectChannel+0x62>
    return HAL_ERROR;
 80013ca:	2301      	movs	r3, #1
 80013cc:	e000      	b.n	80013d0 <MUX_SelectChannel+0x64>
  }

  return HAL_OK;
 80013ce:	2300      	movs	r3, #0
}
 80013d0:	4618      	mov	r0, r3
 80013d2:	3710      	adds	r7, #16
 80013d4:	46bd      	mov	sp, r7
 80013d6:	bd80      	pop	{r7, pc}

080013d8 <ADC1_ReadRaw>:

static uint16_t ADC1_ReadRaw(void) {
 80013d8:	b580      	push	{r7, lr}
 80013da:	b082      	sub	sp, #8
 80013dc:	af00      	add	r7, sp, #0
  uint16_t value = 0;
 80013de:	2300      	movs	r3, #0
 80013e0:	80fb      	strh	r3, [r7, #6]

  if (HAL_ADC_Start(&hadc1) != HAL_OK) {
 80013e2:	4812      	ldr	r0, [pc, #72]	@ (800142c <ADC1_ReadRaw+0x54>)
 80013e4:	f000 ffb4 	bl	8002350 <HAL_ADC_Start>
 80013e8:	4603      	mov	r3, r0
 80013ea:	2b00      	cmp	r3, #0
 80013ec:	d001      	beq.n	80013f2 <ADC1_ReadRaw+0x1a>
    Error_Handler();
 80013ee:	f000 fc59 	bl	8001ca4 <Error_Handler>
  }

  if (HAL_ADC_PollForConversion(&hadc1, HAL_MAX_DELAY) != HAL_OK) {
 80013f2:	f04f 31ff 	mov.w	r1, #4294967295	@ 0xffffffff
 80013f6:	480d      	ldr	r0, [pc, #52]	@ (800142c <ADC1_ReadRaw+0x54>)
 80013f8:	f001 f884 	bl	8002504 <HAL_ADC_PollForConversion>
 80013fc:	4603      	mov	r3, r0
 80013fe:	2b00      	cmp	r3, #0
 8001400:	d001      	beq.n	8001406 <ADC1_ReadRaw+0x2e>
    Error_Handler();
 8001402:	f000 fc4f 	bl	8001ca4 <Error_Handler>
  }

  value = (uint16_t)HAL_ADC_GetValue(&hadc1);
 8001406:	4809      	ldr	r0, [pc, #36]	@ (800142c <ADC1_ReadRaw+0x54>)
 8001408:	f001 f982 	bl	8002710 <HAL_ADC_GetValue>
 800140c:	4603      	mov	r3, r0
 800140e:	80fb      	strh	r3, [r7, #6]

  if (HAL_ADC_Stop(&hadc1) != HAL_OK) {
 8001410:	4806      	ldr	r0, [pc, #24]	@ (800142c <ADC1_ReadRaw+0x54>)
 8001412:	f001 f84b 	bl	80024ac <HAL_ADC_Stop>
 8001416:	4603      	mov	r3, r0
 8001418:	2b00      	cmp	r3, #0
 800141a:	d001      	beq.n	8001420 <ADC1_ReadRaw+0x48>
    Error_Handler();
 800141c:	f000 fc42 	bl	8001ca4 <Error_Handler>
  }

  return value;
 8001420:	88fb      	ldrh	r3, [r7, #6]
}
 8001422:	4618      	mov	r0, r3
 8001424:	3708      	adds	r7, #8
 8001426:	46bd      	mov	sp, r7
 8001428:	bd80      	pop	{r7, pc}
 800142a:	bf00      	nop
 800142c:	200001f8 	.word	0x200001f8

08001430 <ADC1_ReadRawSettled>:

static uint16_t ADC1_ReadRawSettled(void) {
 8001430:	b580      	push	{r7, lr}
 8001432:	af00      	add	r7, sp, #0
  (void)ADC1_ReadRaw();
 8001434:	f7ff ffd0 	bl	80013d8 <ADC1_ReadRaw>
  return ADC1_ReadRaw();
 8001438:	f7ff ffce 	bl	80013d8 <ADC1_ReadRaw>
 800143c:	4603      	mov	r3, r0
}
 800143e:	4618      	mov	r0, r3
 8001440:	bd80      	pop	{r7, pc}
	...

08001444 <SensorVoltageToTempC>:

static float SensorVoltageToTempC(float voltage) {
 8001444:	b590      	push	{r4, r7, lr}
 8001446:	b089      	sub	sp, #36	@ 0x24
 8001448:	af00      	add	r7, sp, #0
 800144a:	6078      	str	r0, [r7, #4]
      2.44f, 2.42f, 2.40f, 2.38f, 2.35f, 2.32f, 2.27f, 2.23f, 2.17f,
      2.11f, 2.05f, 1.99f, 1.92f, 1.86f, 1.80f, 1.74f, 1.68f, 1.63f,
      1.59f, 1.55f, 1.51f, 1.48f, 1.45f, 1.43f, 1.40f, 1.38f, 1.37f,
      1.35f, 1.34f, 1.33f, 1.32f, 1.31f, 1.30f};

  const uint32_t n = sizeof(temp_table) / sizeof(temp_table[0]);
 800144c:	2321      	movs	r3, #33	@ 0x21
 800144e:	61bb      	str	r3, [r7, #24]
  uint32_t i;

  if (voltage >= volt_table[0])
 8001450:	4b3d      	ldr	r3, [pc, #244]	@ (8001548 <SensorVoltageToTempC+0x104>)
 8001452:	681b      	ldr	r3, [r3, #0]
 8001454:	4619      	mov	r1, r3
 8001456:	6878      	ldr	r0, [r7, #4]
 8001458:	f7ff fdd6 	bl	8001008 <__aeabi_fcmpge>
 800145c:	4603      	mov	r3, r0
 800145e:	2b00      	cmp	r3, #0
 8001460:	d002      	beq.n	8001468 <SensorVoltageToTempC+0x24>
    return temp_table[0];
 8001462:	4b3a      	ldr	r3, [pc, #232]	@ (800154c <SensorVoltageToTempC+0x108>)
 8001464:	681b      	ldr	r3, [r3, #0]
 8001466:	e06b      	b.n	8001540 <SensorVoltageToTempC+0xfc>
  if (voltage <= volt_table[n - 1])
 8001468:	69bb      	ldr	r3, [r7, #24]
 800146a:	3b01      	subs	r3, #1
 800146c:	4a36      	ldr	r2, [pc, #216]	@ (8001548 <SensorVoltageToTempC+0x104>)
 800146e:	f852 3023 	ldr.w	r3, [r2, r3, lsl #2]
 8001472:	4619      	mov	r1, r3
 8001474:	6878      	ldr	r0, [r7, #4]
 8001476:	f7ff fdbd 	bl	8000ff4 <__aeabi_fcmple>
 800147a:	4603      	mov	r3, r0
 800147c:	2b00      	cmp	r3, #0
 800147e:	d005      	beq.n	800148c <SensorVoltageToTempC+0x48>
    return temp_table[n - 1];
 8001480:	69bb      	ldr	r3, [r7, #24]
 8001482:	3b01      	subs	r3, #1
 8001484:	4a31      	ldr	r2, [pc, #196]	@ (800154c <SensorVoltageToTempC+0x108>)
 8001486:	f852 3023 	ldr.w	r3, [r2, r3, lsl #2]
 800148a:	e059      	b.n	8001540 <SensorVoltageToTempC+0xfc>

  for (i = 0; i < n - 1; i++) {
 800148c:	2300      	movs	r3, #0
 800148e:	61fb      	str	r3, [r7, #28]
 8001490:	e050      	b.n	8001534 <SensorVoltageToTempC+0xf0>
    if ((voltage <= volt_table[i]) && (voltage >= volt_table[i + 1])) {
 8001492:	4a2d      	ldr	r2, [pc, #180]	@ (8001548 <SensorVoltageToTempC+0x104>)
 8001494:	69fb      	ldr	r3, [r7, #28]
 8001496:	f852 3023 	ldr.w	r3, [r2, r3, lsl #2]
 800149a:	4619      	mov	r1, r3
 800149c:	6878      	ldr	r0, [r7, #4]
 800149e:	f7ff fda9 	bl	8000ff4 <__aeabi_fcmple>
 80014a2:	4603      	mov	r3, r0
 80014a4:	2b00      	cmp	r3, #0
 80014a6:	d042      	beq.n	800152e <SensorVoltageToTempC+0xea>
 80014a8:	69fb      	ldr	r3, [r7, #28]
 80014aa:	3301      	adds	r3, #1
 80014ac:	4a26      	ldr	r2, [pc, #152]	@ (8001548 <SensorVoltageToTempC+0x104>)
 80014ae:	f852 3023 	ldr.w	r3, [r2, r3, lsl #2]
 80014b2:	4619      	mov	r1, r3
 80014b4:	6878      	ldr	r0, [r7, #4]
 80014b6:	f7ff fda7 	bl	8001008 <__aeabi_fcmpge>
 80014ba:	4603      	mov	r3, r0
 80014bc:	2b00      	cmp	r3, #0
 80014be:	d036      	beq.n	800152e <SensorVoltageToTempC+0xea>
      float v1 = volt_table[i];
 80014c0:	4a21      	ldr	r2, [pc, #132]	@ (8001548 <SensorVoltageToTempC+0x104>)
 80014c2:	69fb      	ldr	r3, [r7, #28]
 80014c4:	f852 3023 	ldr.w	r3, [r2, r3, lsl #2]
 80014c8:	617b      	str	r3, [r7, #20]
      float v2 = volt_table[i + 1];
 80014ca:	69fb      	ldr	r3, [r7, #28]
 80014cc:	3301      	adds	r3, #1
 80014ce:	4a1e      	ldr	r2, [pc, #120]	@ (8001548 <SensorVoltageToTempC+0x104>)
 80014d0:	f852 3023 	ldr.w	r3, [r2, r3, lsl #2]
 80014d4:	613b      	str	r3, [r7, #16]
      float t1 = temp_table[i];
 80014d6:	4a1d      	ldr	r2, [pc, #116]	@ (800154c <SensorVoltageToTempC+0x108>)
 80014d8:	69fb      	ldr	r3, [r7, #28]
 80014da:	f852 3023 	ldr.w	r3, [r2, r3, lsl #2]
 80014de:	60fb      	str	r3, [r7, #12]
      float t2 = temp_table[i + 1];
 80014e0:	69fb      	ldr	r3, [r7, #28]
 80014e2:	3301      	adds	r3, #1
 80014e4:	4a19      	ldr	r2, [pc, #100]	@ (800154c <SensorVoltageToTempC+0x108>)
 80014e6:	f852 3023 	ldr.w	r3, [r2, r3, lsl #2]
 80014ea:	60bb      	str	r3, [r7, #8]

      return t1 + (voltage - v1) * (t2 - t1) / (v2 - v1);
 80014ec:	6979      	ldr	r1, [r7, #20]
 80014ee:	6878      	ldr	r0, [r7, #4]
 80014f0:	f7ff face 	bl	8000a90 <__aeabi_fsub>
 80014f4:	4603      	mov	r3, r0
 80014f6:	461c      	mov	r4, r3
 80014f8:	68f9      	ldr	r1, [r7, #12]
 80014fa:	68b8      	ldr	r0, [r7, #8]
 80014fc:	f7ff fac8 	bl	8000a90 <__aeabi_fsub>
 8001500:	4603      	mov	r3, r0
 8001502:	4619      	mov	r1, r3
 8001504:	4620      	mov	r0, r4
 8001506:	f7ff fbcd 	bl	8000ca4 <__aeabi_fmul>
 800150a:	4603      	mov	r3, r0
 800150c:	461c      	mov	r4, r3
 800150e:	6979      	ldr	r1, [r7, #20]
 8001510:	6938      	ldr	r0, [r7, #16]
 8001512:	f7ff fabd 	bl	8000a90 <__aeabi_fsub>
 8001516:	4603      	mov	r3, r0
 8001518:	4619      	mov	r1, r3
 800151a:	4620      	mov	r0, r4
 800151c:	f7ff fc76 	bl	8000e0c <__aeabi_fdiv>
 8001520:	4603      	mov	r3, r0
 8001522:	68f9      	ldr	r1, [r7, #12]
 8001524:	4618      	mov	r0, r3
 8001526:	f7ff fab5 	bl	8000a94 <__addsf3>
 800152a:	4603      	mov	r3, r0
 800152c:	e008      	b.n	8001540 <SensorVoltageToTempC+0xfc>
  for (i = 0; i < n - 1; i++) {
 800152e:	69fb      	ldr	r3, [r7, #28]
 8001530:	3301      	adds	r3, #1
 8001532:	61fb      	str	r3, [r7, #28]
 8001534:	69bb      	ldr	r3, [r7, #24]
 8001536:	3b01      	subs	r3, #1
 8001538:	69fa      	ldr	r2, [r7, #28]
 800153a:	429a      	cmp	r2, r3
 800153c:	d3a9      	bcc.n	8001492 <SensorVoltageToTempC+0x4e>
    }
  }

  return -999.0f;
 800153e:	4b04      	ldr	r3, [pc, #16]	@ (8001550 <SensorVoltageToTempC+0x10c>)
}
 8001540:	4618      	mov	r0, r3
 8001542:	3724      	adds	r7, #36	@ 0x24
 8001544:	46bd      	mov	sp, r7
 8001546:	bd90      	pop	{r4, r7, pc}
 8001548:	08007cb0 	.word	0x08007cb0
 800154c:	08007d34 	.word	0x08007d34
 8001550:	c479c000 	.word	0xc479c000

08001554 <ScanAllMuxChannels>:

static void ScanAllMuxChannels(TempStatistics_t *stats, bool report) {
 8001554:	b5b0      	push	{r4, r5, r7, lr}
 8001556:	b090      	sub	sp, #64	@ 0x40
 8001558:	af02      	add	r7, sp, #8
 800155a:	6078      	str	r0, [r7, #4]
 800155c:	460b      	mov	r3, r1
 800155e:	70fb      	strb	r3, [r7, #3]
  uint8_t mux;
  uint8_t ch;
  uint8_t temps[7] = {0};
 8001560:	f107 0308 	add.w	r3, r7, #8
 8001564:	2200      	movs	r2, #0
 8001566:	601a      	str	r2, [r3, #0]
 8001568:	f8c3 2003 	str.w	r2, [r3, #3]
  uint8_t packet_count = 0;
 800156c:	2300      	movs	r3, #0
 800156e:	f887 3035 	strb.w	r3, [r7, #53]	@ 0x35
  uint8_t packet_start_channel = 0;
 8001572:	2300      	movs	r3, #0
 8001574:	f887 3034 	strb.w	r3, [r7, #52]	@ 0x34
  uint8_t overall_channel = 0;
 8001578:	2300      	movs	r3, #0
 800157a:	f887 3033 	strb.w	r3, [r7, #51]	@ 0x33
  int8_t highTemps = 0;
 800157e:	2300      	movs	r3, #0
 8001580:	f887 3032 	strb.w	r3, [r7, #50]	@ 0x32

  // entire loop takes ~630ms (1.53hz)
  for (mux = 0; mux < NUM_MUXES; mux++) {
 8001584:	2300      	movs	r3, #0
 8001586:	f887 3037 	strb.w	r3, [r7, #55]	@ 0x37
 800158a:	e11b      	b.n	80017c4 <ScanAllMuxChannels+0x270>
    for (ch = 0; ch < MUX_CHANNELS_PER_CHIP; ch++) {
 800158c:	2300      	movs	r3, #0
 800158e:	f887 3036 	strb.w	r3, [r7, #54]	@ 0x36
 8001592:	e10d      	b.n	80017b0 <ScanAllMuxChannels+0x25c>
      if (mux == 2 && ch > 25) {
 8001594:	f897 3037 	ldrb.w	r3, [r7, #55]	@ 0x37
 8001598:	2b02      	cmp	r3, #2
 800159a:	d104      	bne.n	80015a6 <ScanAllMuxChannels+0x52>
 800159c:	f897 3036 	ldrb.w	r3, [r7, #54]	@ 0x36
 80015a0:	2b19      	cmp	r3, #25
 80015a2:	f200 80fd 	bhi.w	80017a0 <ScanAllMuxChannels+0x24c>
        continue;
      }

      int32_t faults = 0u;
 80015a6:	2300      	movs	r3, #0
 80015a8:	62fb      	str	r3, [r7, #44]	@ 0x2c
      uint32_t sum = 0u;
 80015aa:	2300      	movs	r3, #0
 80015ac:	62bb      	str	r3, [r7, #40]	@ 0x28
      uint16_t count = 0u;
 80015ae:	2300      	movs	r3, #0
 80015b0:	84fb      	strh	r3, [r7, #38]	@ 0x26

      if (MUX_SelectChannel((mux_id_t)mux, ch) != HAL_OK) {
 80015b2:	f897 2036 	ldrb.w	r2, [r7, #54]	@ 0x36
 80015b6:	f897 3037 	ldrb.w	r3, [r7, #55]	@ 0x37
 80015ba:	4611      	mov	r1, r2
 80015bc:	4618      	mov	r0, r3
 80015be:	f7ff fed5 	bl	800136c <MUX_SelectChannel>
 80015c2:	4603      	mov	r3, r0
 80015c4:	2b00      	cmp	r3, #0
 80015c6:	f040 80ed 	bne.w	80017a4 <ScanAllMuxChannels+0x250>
        continue;
      }

      HAL_Delay(20); // adjust for settling time
 80015ca:	2014      	movs	r0, #20
 80015cc:	f000 fdc4 	bl	8002158 <HAL_Delay>

      // 4us per sample, entire loop takes ~2ms
      for (int i = 0; i < 500; i++) {
 80015d0:	2300      	movs	r3, #0
 80015d2:	623b      	str	r3, [r7, #32]
 80015d4:	e01b      	b.n	800160e <ScanAllMuxChannels+0xba>
        uint16_t raw = ADC1_ReadRawSettled();
 80015d6:	f7ff ff2b 	bl	8001430 <ADC1_ReadRawSettled>
 80015da:	4603      	mov	r3, r0
 80015dc:	827b      	strh	r3, [r7, #18]

        if (raw <= 2090 || raw >= 2962) {
 80015de:	8a7b      	ldrh	r3, [r7, #18]
 80015e0:	f640 022a 	movw	r2, #2090	@ 0x82a
 80015e4:	4293      	cmp	r3, r2
 80015e6:	d904      	bls.n	80015f2 <ScanAllMuxChannels+0x9e>
 80015e8:	8a7b      	ldrh	r3, [r7, #18]
 80015ea:	f640 3291 	movw	r2, #2961	@ 0xb91
 80015ee:	4293      	cmp	r3, r2
 80015f0:	d903      	bls.n	80015fa <ScanAllMuxChannels+0xa6>
          faults++;
 80015f2:	6afb      	ldr	r3, [r7, #44]	@ 0x2c
 80015f4:	3301      	adds	r3, #1
 80015f6:	62fb      	str	r3, [r7, #44]	@ 0x2c
          continue;
 80015f8:	e006      	b.n	8001608 <ScanAllMuxChannels+0xb4>
        }
        sum += raw;
 80015fa:	8a7b      	ldrh	r3, [r7, #18]
 80015fc:	6aba      	ldr	r2, [r7, #40]	@ 0x28
 80015fe:	4413      	add	r3, r2
 8001600:	62bb      	str	r3, [r7, #40]	@ 0x28
        count++;
 8001602:	8cfb      	ldrh	r3, [r7, #38]	@ 0x26
 8001604:	3301      	adds	r3, #1
 8001606:	84fb      	strh	r3, [r7, #38]	@ 0x26
      for (int i = 0; i < 500; i++) {
 8001608:	6a3b      	ldr	r3, [r7, #32]
 800160a:	3301      	adds	r3, #1
 800160c:	623b      	str	r3, [r7, #32]
 800160e:	6a3b      	ldr	r3, [r7, #32]
 8001610:	f5b3 7ffa 	cmp.w	r3, #500	@ 0x1f4
 8001614:	dbdf      	blt.n	80015d6 <ScanAllMuxChannels+0x82>
      float temp_c;
      float voltage;

//      printf("test ");

      if (faults >= 425) {
 8001616:	6afb      	ldr	r3, [r7, #44]	@ 0x2c
 8001618:	f5b3 7fd4 	cmp.w	r3, #424	@ 0x1a8
 800161c:	dd09      	ble.n	8001632 <ScanAllMuxChannels+0xde>
        temp_c = 120;
 800161e:	4b88      	ldr	r3, [pc, #544]	@ (8001840 <ScanAllMuxChannels+0x2ec>)
 8001620:	61fb      	str	r3, [r7, #28]
        highTemps++;
 8001622:	f997 3032 	ldrsb.w	r3, [r7, #50]	@ 0x32
 8001626:	b2db      	uxtb	r3, r3
 8001628:	3301      	adds	r3, #1
 800162a:	b2db      	uxtb	r3, r3
 800162c:	f887 3032 	strb.w	r3, [r7, #50]	@ 0x32
 8001630:	e076      	b.n	8001720 <ScanAllMuxChannels+0x1cc>
      } else {
        sum = sum / count;
 8001632:	8cfb      	ldrh	r3, [r7, #38]	@ 0x26
 8001634:	6aba      	ldr	r2, [r7, #40]	@ 0x28
 8001636:	fbb2 f3f3 	udiv	r3, r2, r3
 800163a:	62bb      	str	r3, [r7, #40]	@ 0x28

        voltage = (3.0f * (float)sum) / 4095.0f;
 800163c:	6ab8      	ldr	r0, [r7, #40]	@ 0x28
 800163e:	f7ff fad9 	bl	8000bf4 <__aeabi_ui2f>
 8001642:	4603      	mov	r3, r0
 8001644:	497f      	ldr	r1, [pc, #508]	@ (8001844 <ScanAllMuxChannels+0x2f0>)
 8001646:	4618      	mov	r0, r3
 8001648:	f7ff fb2c 	bl	8000ca4 <__aeabi_fmul>
 800164c:	4603      	mov	r3, r0
 800164e:	497e      	ldr	r1, [pc, #504]	@ (8001848 <ScanAllMuxChannels+0x2f4>)
 8001650:	4618      	mov	r0, r3
 8001652:	f7ff fbdb 	bl	8000e0c <__aeabi_fdiv>
 8001656:	4603      	mov	r3, r0
 8001658:	617b      	str	r3, [r7, #20]

        temp_c = SensorVoltageToTempC(voltage);
 800165a:	6978      	ldr	r0, [r7, #20]
 800165c:	f7ff fef2 	bl	8001444 <SensorVoltageToTempC>
 8001660:	61f8      	str	r0, [r7, #28]

        printf("MUX%u CH%02u: T=%.1f C\r\n",
 8001662:	f897 3037 	ldrb.w	r3, [r7, #55]	@ 0x37
 8001666:	1c5c      	adds	r4, r3, #1
 8001668:	f897 3036 	ldrb.w	r3, [r7, #54]	@ 0x36
 800166c:	1c5d      	adds	r5, r3, #1
 800166e:	69f8      	ldr	r0, [r7, #28]
 8001670:	f7fe feda 	bl	8000428 <__aeabi_f2d>
 8001674:	4602      	mov	r2, r0
 8001676:	460b      	mov	r3, r1
 8001678:	e9cd 2300 	strd	r2, r3, [sp]
 800167c:	462a      	mov	r2, r5
 800167e:	4621      	mov	r1, r4
 8001680:	4872      	ldr	r0, [pc, #456]	@ (800184c <ScanAllMuxChannels+0x2f8>)
 8001682:	f004 f88b 	bl	800579c <iprintf>
        				   mux + 1U,
        				   ch + 1U,
        				   temp_c);

        if (temp_c > 0 && temp_c < 85) {
 8001686:	f04f 0100 	mov.w	r1, #0
 800168a:	69f8      	ldr	r0, [r7, #28]
 800168c:	f7ff fcc6 	bl	800101c <__aeabi_fcmpgt>
 8001690:	4603      	mov	r3, r0
 8001692:	2b00      	cmp	r3, #0
 8001694:	d044      	beq.n	8001720 <ScanAllMuxChannels+0x1cc>
 8001696:	496e      	ldr	r1, [pc, #440]	@ (8001850 <ScanAllMuxChannels+0x2fc>)
 8001698:	69f8      	ldr	r0, [r7, #28]
 800169a:	f7ff fca1 	bl	8000fe0 <__aeabi_fcmplt>
 800169e:	4603      	mov	r3, r0
 80016a0:	2b00      	cmp	r3, #0
 80016a2:	d03d      	beq.n	8001720 <ScanAllMuxChannels+0x1cc>
          if (temp_c < stats->min_temp) {
 80016a4:	687b      	ldr	r3, [r7, #4]
 80016a6:	f9b3 3000 	ldrsh.w	r3, [r3]
 80016aa:	4618      	mov	r0, r3
 80016ac:	f7ff faa6 	bl	8000bfc <__aeabi_i2f>
 80016b0:	4603      	mov	r3, r0
 80016b2:	4619      	mov	r1, r3
 80016b4:	69f8      	ldr	r0, [r7, #28]
 80016b6:	f7ff fc93 	bl	8000fe0 <__aeabi_fcmplt>
 80016ba:	4603      	mov	r3, r0
 80016bc:	2b00      	cmp	r3, #0
 80016be:	d010      	beq.n	80016e2 <ScanAllMuxChannels+0x18e>
            stats->min_temp = (int16_t)temp_c;
 80016c0:	69f8      	ldr	r0, [r7, #28]
 80016c2:	f7ff fcb5 	bl	8001030 <__aeabi_f2iz>
 80016c6:	4603      	mov	r3, r0
 80016c8:	b21a      	sxth	r2, r3
 80016ca:	687b      	ldr	r3, [r7, #4]
 80016cc:	801a      	strh	r2, [r3, #0]
            stats->min_channel = 32 * mux + ch;
 80016ce:	f897 3037 	ldrb.w	r3, [r7, #55]	@ 0x37
 80016d2:	015b      	lsls	r3, r3, #5
 80016d4:	b2da      	uxtb	r2, r3
 80016d6:	f897 3036 	ldrb.w	r3, [r7, #54]	@ 0x36
 80016da:	4413      	add	r3, r2
 80016dc:	b2da      	uxtb	r2, r3
 80016de:	687b      	ldr	r3, [r7, #4]
 80016e0:	719a      	strb	r2, [r3, #6]
          }
          if (temp_c > stats->max_temp) {
 80016e2:	687b      	ldr	r3, [r7, #4]
 80016e4:	f9b3 3002 	ldrsh.w	r3, [r3, #2]
 80016e8:	4618      	mov	r0, r3
 80016ea:	f7ff fa87 	bl	8000bfc <__aeabi_i2f>
 80016ee:	4603      	mov	r3, r0
 80016f0:	4619      	mov	r1, r3
 80016f2:	69f8      	ldr	r0, [r7, #28]
 80016f4:	f7ff fc92 	bl	800101c <__aeabi_fcmpgt>
 80016f8:	4603      	mov	r3, r0
 80016fa:	2b00      	cmp	r3, #0
 80016fc:	d010      	beq.n	8001720 <ScanAllMuxChannels+0x1cc>
            stats->max_temp = (int16_t)temp_c;
 80016fe:	69f8      	ldr	r0, [r7, #28]
 8001700:	f7ff fc96 	bl	8001030 <__aeabi_f2iz>
 8001704:	4603      	mov	r3, r0
 8001706:	b21a      	sxth	r2, r3
 8001708:	687b      	ldr	r3, [r7, #4]
 800170a:	805a      	strh	r2, [r3, #2]
            stats->max_channel = 32 * mux + ch;
 800170c:	f897 3037 	ldrb.w	r3, [r7, #55]	@ 0x37
 8001710:	015b      	lsls	r3, r3, #5
 8001712:	b2da      	uxtb	r2, r3
 8001714:	f897 3036 	ldrb.w	r3, [r7, #54]	@ 0x36
 8001718:	4413      	add	r3, r2
 800171a:	b2da      	uxtb	r2, r3
 800171c:	687b      	ldr	r3, [r7, #4]
 800171e:	71da      	strb	r2, [r3, #7]
          }
        }
      }

      if (packet_count == 0) {
 8001720:	f897 3035 	ldrb.w	r3, [r7, #53]	@ 0x35
 8001724:	2b00      	cmp	r3, #0
 8001726:	d103      	bne.n	8001730 <ScanAllMuxChannels+0x1dc>
        packet_start_channel = overall_channel;
 8001728:	f897 3033 	ldrb.w	r3, [r7, #51]	@ 0x33
 800172c:	f887 3034 	strb.w	r3, [r7, #52]	@ 0x34
      }

//      printf("T=%.1f C\r\n", temp_c);
      temps[packet_count] = (uint8_t) temp_c;
 8001730:	f897 4035 	ldrb.w	r4, [r7, #53]	@ 0x35
 8001734:	69f8      	ldr	r0, [r7, #28]
 8001736:	f7ff fca1 	bl	800107c <__aeabi_f2uiz>
 800173a:	4603      	mov	r3, r0
 800173c:	b2da      	uxtb	r2, r3
 800173e:	f104 0338 	add.w	r3, r4, #56	@ 0x38
 8001742:	443b      	add	r3, r7
 8001744:	f803 2c30 	strb.w	r2, [r3, #-48]
      packet_count++;
 8001748:	f897 3035 	ldrb.w	r3, [r7, #53]	@ 0x35
 800174c:	3301      	adds	r3, #1
 800174e:	f887 3035 	strb.w	r3, [r7, #53]	@ 0x35

      // send once 7 channels are collected
      if (packet_count == 7) {
 8001752:	f897 3035 	ldrb.w	r3, [r7, #53]	@ 0x35
 8001756:	2b07      	cmp	r3, #7
 8001758:	d10c      	bne.n	8001774 <ScanAllMuxChannels+0x220>
        CAN_SendChannelTemp(packet_start_channel + 1, temps);
 800175a:	f897 3034 	ldrb.w	r3, [r7, #52]	@ 0x34
 800175e:	3301      	adds	r3, #1
 8001760:	b2db      	uxtb	r3, r3
 8001762:	f107 0208 	add.w	r2, r7, #8
 8001766:	4611      	mov	r1, r2
 8001768:	4618      	mov	r0, r3
 800176a:	f7ff fca7 	bl	80010bc <CAN_SendChannelTemp>

        packet_count = 0;
 800176e:	2300      	movs	r3, #0
 8001770:	f887 3035 	strb.w	r3, [r7, #53]	@ 0x35
      }

      overall_channel++;
 8001774:	f897 3033 	ldrb.w	r3, [r7, #51]	@ 0x33
 8001778:	3301      	adds	r3, #1
 800177a:	f887 3033 	strb.w	r3, [r7, #51]	@ 0x33

      if (report) {
 800177e:	78fb      	ldrb	r3, [r7, #3]
 8001780:	2b00      	cmp	r3, #0
 8001782:	d003      	beq.n	800178c <ScanAllMuxChannels+0x238>
        CAN_SendTemperatureStatistics(stats);
 8001784:	6878      	ldr	r0, [r7, #4]
 8001786:	f7ff fcf3 	bl	8001170 <CAN_SendTemperatureStatistics>
 800178a:	e00c      	b.n	80017a6 <ScanAllMuxChannels+0x252>
      } else {
        stats->min_temp = 20;
 800178c:	687b      	ldr	r3, [r7, #4]
 800178e:	2214      	movs	r2, #20
 8001790:	801a      	strh	r2, [r3, #0]
        stats->max_temp = 20;
 8001792:	687b      	ldr	r3, [r7, #4]
 8001794:	2214      	movs	r2, #20
 8001796:	805a      	strh	r2, [r3, #2]
        CAN_SendTemperatureStatistics(stats);
 8001798:	6878      	ldr	r0, [r7, #4]
 800179a:	f7ff fce9 	bl	8001170 <CAN_SendTemperatureStatistics>
 800179e:	e002      	b.n	80017a6 <ScanAllMuxChannels+0x252>
        continue;
 80017a0:	bf00      	nop
 80017a2:	e000      	b.n	80017a6 <ScanAllMuxChannels+0x252>
        continue;
 80017a4:	bf00      	nop
    for (ch = 0; ch < MUX_CHANNELS_PER_CHIP; ch++) {
 80017a6:	f897 3036 	ldrb.w	r3, [r7, #54]	@ 0x36
 80017aa:	3301      	adds	r3, #1
 80017ac:	f887 3036 	strb.w	r3, [r7, #54]	@ 0x36
 80017b0:	f897 3036 	ldrb.w	r3, [r7, #54]	@ 0x36
 80017b4:	2b1f      	cmp	r3, #31
 80017b6:	f67f aeed 	bls.w	8001594 <ScanAllMuxChannels+0x40>
  for (mux = 0; mux < NUM_MUXES; mux++) {
 80017ba:	f897 3037 	ldrb.w	r3, [r7, #55]	@ 0x37
 80017be:	3301      	adds	r3, #1
 80017c0:	f887 3037 	strb.w	r3, [r7, #55]	@ 0x37
 80017c4:	f897 3037 	ldrb.w	r3, [r7, #55]	@ 0x37
 80017c8:	2b02      	cmp	r3, #2
 80017ca:	f67f aedf 	bls.w	800158c <ScanAllMuxChannels+0x38>
      }
    }
  }

  if (highTemps >= 40) {
 80017ce:	f997 3032 	ldrsb.w	r3, [r7, #50]	@ 0x32
 80017d2:	2b27      	cmp	r3, #39	@ 0x27
 80017d4:	dd10      	ble.n	80017f8 <ScanAllMuxChannels+0x2a4>
     stats->max_temp = 120;
 80017d6:	687b      	ldr	r3, [r7, #4]
 80017d8:	2278      	movs	r2, #120	@ 0x78
 80017da:	805a      	strh	r2, [r3, #2]
     stats->min_temp = 120;
 80017dc:	687b      	ldr	r3, [r7, #4]
 80017de:	2278      	movs	r2, #120	@ 0x78
 80017e0:	801a      	strh	r2, [r3, #0]
     CAN_SendTemperatureStatistics(stats);
 80017e2:	6878      	ldr	r0, [r7, #4]
 80017e4:	f7ff fcc4 	bl	8001170 <CAN_SendTemperatureStatistics>
     stats->max_temp = -300;
 80017e8:	687b      	ldr	r3, [r7, #4]
 80017ea:	f64f 62d4 	movw	r2, #65236	@ 0xfed4
 80017ee:	805a      	strh	r2, [r3, #2]
     stats->min_temp = 300;
 80017f0:	687b      	ldr	r3, [r7, #4]
 80017f2:	f44f 7296 	mov.w	r2, #300	@ 0x12c
 80017f6:	801a      	strh	r2, [r3, #0]
  }

  // send leftover channels at the end
  if (packet_count > 0) {
 80017f8:	f897 3035 	ldrb.w	r3, [r7, #53]	@ 0x35
 80017fc:	2b00      	cmp	r3, #0
 80017fe:	d019      	beq.n	8001834 <ScanAllMuxChannels+0x2e0>
    for (uint8_t i = packet_count; i < 7; i++) {
 8001800:	f897 3035 	ldrb.w	r3, [r7, #53]	@ 0x35
 8001804:	76fb      	strb	r3, [r7, #27]
 8001806:	e008      	b.n	800181a <ScanAllMuxChannels+0x2c6>
      temps[i] = 0xFF;
 8001808:	7efb      	ldrb	r3, [r7, #27]
 800180a:	3338      	adds	r3, #56	@ 0x38
 800180c:	443b      	add	r3, r7
 800180e:	22ff      	movs	r2, #255	@ 0xff
 8001810:	f803 2c30 	strb.w	r2, [r3, #-48]
    for (uint8_t i = packet_count; i < 7; i++) {
 8001814:	7efb      	ldrb	r3, [r7, #27]
 8001816:	3301      	adds	r3, #1
 8001818:	76fb      	strb	r3, [r7, #27]
 800181a:	7efb      	ldrb	r3, [r7, #27]
 800181c:	2b06      	cmp	r3, #6
 800181e:	d9f3      	bls.n	8001808 <ScanAllMuxChannels+0x2b4>
    }

    CAN_SendChannelTemp(packet_start_channel+1, temps);
 8001820:	f897 3034 	ldrb.w	r3, [r7, #52]	@ 0x34
 8001824:	3301      	adds	r3, #1
 8001826:	b2db      	uxtb	r3, r3
 8001828:	f107 0208 	add.w	r2, r7, #8
 800182c:	4611      	mov	r1, r2
 800182e:	4618      	mov	r0, r3
 8001830:	f7ff fc44 	bl	80010bc <CAN_SendChannelTemp>
  }

  MUX_DisableAll();
 8001834:	f7ff fd8d 	bl	8001352 <MUX_DisableAll>
}
 8001838:	bf00      	nop
 800183a:	3738      	adds	r7, #56	@ 0x38
 800183c:	46bd      	mov	sp, r7
 800183e:	bdb0      	pop	{r4, r5, r7, pc}
 8001840:	42f00000 	.word	0x42f00000
 8001844:	40400000 	.word	0x40400000
 8001848:	457ff000 	.word	0x457ff000
 800184c:	08007c80 	.word	0x08007c80
 8001850:	42aa0000 	.word	0x42aa0000

08001854 <main>:

/**
 * @brief  The application entry point.
 * @retval int
 */
int main(void) {
 8001854:	b580      	push	{r7, lr}
 8001856:	b086      	sub	sp, #24
 8001858:	af00      	add	r7, sp, #0
  /* USER CODE BEGIN 1 */
  /* USER CODE END 1 */

#ifdef USE_SEMIHOSTING
  initialise_monitor_handles();
 800185a:	f006 f989 	bl	8007b70 <initialise_monitor_handles>
#endif
  HAL_Init();
 800185e:	f000 fc19 	bl	8002094 <HAL_Init>

  /* USER CODE BEGIN Init */
  /* USER CODE END Init */

  SystemClock_Config();
 8001862:	f000 f853 	bl	800190c <SystemClock_Config>

  /* USER CODE BEGIN SysInit */
  /* USER CODE END SysInit */

  MX_GPIO_Init();
 8001866:	f000 f9d3 	bl	8001c10 <MX_GPIO_Init>
  MX_ADC1_Init();
 800186a:	f000 f8ad 	bl	80019c8 <MX_ADC1_Init>
  MX_SPI1_Init();
 800186e:	f000 f91f 	bl	8001ab0 <MX_SPI1_Init>
  MX_USART1_UART_Init();
 8001872:	f000 f9a3 	bl	8001bbc <MX_USART1_UART_Init>
  MX_CAN_Init();
 8001876:	f000 f8e5 	bl	8001a44 <MX_CAN_Init>
  MX_TIM4_Init();
 800187a:	f000 f951 	bl	8001b20 <MX_TIM4_Init>

  CAN_Init_Filter();
 800187e:	f7ff fcd1 	bl	8001224 <CAN_Init_Filter>
  HAL_CAN_Start(&hcan);
 8001882:	4820      	ldr	r0, [pc, #128]	@ (8001904 <main+0xb0>)
 8001884:	f001 fb56 	bl	8002f34 <HAL_CAN_Start>

  /* USER CODE BEGIN 2 */

  if (HAL_ADCEx_Calibration_Start(&hadc1) != HAL_OK) {
 8001888:	481f      	ldr	r0, [pc, #124]	@ (8001908 <main+0xb4>)
 800188a:	f001 f8e1 	bl	8002a50 <HAL_ADCEx_Calibration_Start>
 800188e:	4603      	mov	r3, r0
 8001890:	2b00      	cmp	r3, #0
 8001892:	d001      	beq.n	8001898 <main+0x44>
    Error_Handler();
 8001894:	f000 fa06 	bl	8001ca4 <Error_Handler>
  }

  TempStatistics_t stats;
  TempStatistics_t initial;

  ADC1_SetLongSampleTime();
 8001898:	f7ff fcf2 	bl	8001280 <ADC1_SetLongSampleTime>
  MUX_DisableAll();
 800189c:	f7ff fd59 	bl	8001352 <MUX_DisableAll>

  /* USER CODE END 2 */

  HAL_Delay(10);
 80018a0:	200a      	movs	r0, #10
 80018a2:	f000 fc59 	bl	8002158 <HAL_Delay>

  stats.min_temp = 300;
 80018a6:	f44f 7396 	mov.w	r3, #300	@ 0x12c
 80018aa:	81bb      	strh	r3, [r7, #12]
  stats.max_temp = -300;
 80018ac:	f64f 63d4 	movw	r3, #65236	@ 0xfed4
 80018b0:	81fb      	strh	r3, [r7, #14]
  stats.min_channel = 0;
 80018b2:	2300      	movs	r3, #0
 80018b4:	74bb      	strb	r3, [r7, #18]
  stats.max_channel = 0;
 80018b6:	2300      	movs	r3, #0
 80018b8:	74fb      	strb	r3, [r7, #19]
  stats.num_enabled = 0;
 80018ba:	2300      	movs	r3, #0
 80018bc:	753b      	strb	r3, [r7, #20]

  initial.min_temp = 20;
 80018be:	2314      	movs	r3, #20
 80018c0:	803b      	strh	r3, [r7, #0]
  initial.max_temp = 20;
 80018c2:	2314      	movs	r3, #20
 80018c4:	807b      	strh	r3, [r7, #2]
  initial.min_channel = 0;
 80018c6:	2300      	movs	r3, #0
 80018c8:	71bb      	strb	r3, [r7, #6]
  initial.max_channel = 0;
 80018ca:	2300      	movs	r3, #0
 80018cc:	71fb      	strb	r3, [r7, #7]
  initial.num_enabled = 0;
 80018ce:	2300      	movs	r3, #0
 80018d0:	723b      	strb	r3, [r7, #8]

  CAN_SendTemperatureStatistics(&initial);
 80018d2:	463b      	mov	r3, r7
 80018d4:	4618      	mov	r0, r3
 80018d6:	f7ff fc4b 	bl	8001170 <CAN_SendTemperatureStatistics>

  ScanAllMuxChannels(&stats, false);
 80018da:	f107 030c 	add.w	r3, r7, #12
 80018de:	2100      	movs	r1, #0
 80018e0:	4618      	mov	r0, r3
 80018e2:	f7ff fe37 	bl	8001554 <ScanAllMuxChannels>
//  ScanAllMuxChannels(&stats, true);

  /* Infinite loop */
  /* USER CODE BEGIN WHILE */
  while (1) {
    ScanAllMuxChannels(&stats, true);
 80018e6:	f107 030c 	add.w	r3, r7, #12
 80018ea:	2101      	movs	r1, #1
 80018ec:	4618      	mov	r0, r3
 80018ee:	f7ff fe31 	bl	8001554 <ScanAllMuxChannels>

    stats.min_temp = 300;
 80018f2:	f44f 7396 	mov.w	r3, #300	@ 0x12c
 80018f6:	81bb      	strh	r3, [r7, #12]
    stats.max_temp = -300;
 80018f8:	f64f 63d4 	movw	r3, #65236	@ 0xfed4
 80018fc:	81fb      	strh	r3, [r7, #14]
    ScanAllMuxChannels(&stats, true);
 80018fe:	bf00      	nop
 8001900:	e7f1      	b.n	80018e6 <main+0x92>
 8001902:	bf00      	nop
 8001904:	20000228 	.word	0x20000228
 8001908:	200001f8 	.word	0x200001f8

0800190c <SystemClock_Config>:

/**
 * @brief System Clock Configuration
 * @retval None
 */
void SystemClock_Config(void) {
 800190c:	b580      	push	{r7, lr}
 800190e:	b094      	sub	sp, #80	@ 0x50
 8001910:	af00      	add	r7, sp, #0
  RCC_OscInitTypeDef RCC_OscInitStruct = {0};
 8001912:	f107 0328 	add.w	r3, r7, #40	@ 0x28
 8001916:	2228      	movs	r2, #40	@ 0x28
 8001918:	2100      	movs	r1, #0
 800191a:	4618      	mov	r0, r3
 800191c:	f003 ff50 	bl	80057c0 <memset>
  RCC_ClkInitTypeDef RCC_ClkInitStruct = {0};
 8001920:	f107 0314 	add.w	r3, r7, #20
 8001924:	2200      	movs	r2, #0
 8001926:	601a      	str	r2, [r3, #0]
 8001928:	605a      	str	r2, [r3, #4]
 800192a:	609a      	str	r2, [r3, #8]
 800192c:	60da      	str	r2, [r3, #12]
 800192e:	611a      	str	r2, [r3, #16]
  RCC_PeriphCLKInitTypeDef PeriphClkInit = {0};
 8001930:	1d3b      	adds	r3, r7, #4
 8001932:	2200      	movs	r2, #0
 8001934:	601a      	str	r2, [r3, #0]
 8001936:	605a      	str	r2, [r3, #4]
 8001938:	609a      	str	r2, [r3, #8]
 800193a:	60da      	str	r2, [r3, #12]

  RCC_OscInitStruct.OscillatorType = RCC_OSCILLATORTYPE_HSE;
 800193c:	2301      	movs	r3, #1
 800193e:	62bb      	str	r3, [r7, #40]	@ 0x28
  RCC_OscInitStruct.HSEState = RCC_HSE_ON;
 8001940:	f44f 3380 	mov.w	r3, #65536	@ 0x10000
 8001944:	62fb      	str	r3, [r7, #44]	@ 0x2c
  RCC_OscInitStruct.HSEPredivValue = RCC_HSE_PREDIV_DIV1;
 8001946:	2300      	movs	r3, #0
 8001948:	633b      	str	r3, [r7, #48]	@ 0x30
  RCC_OscInitStruct.HSIState = RCC_HSI_ON;
 800194a:	2301      	movs	r3, #1
 800194c:	63bb      	str	r3, [r7, #56]	@ 0x38
  RCC_OscInitStruct.PLL.PLLState = RCC_PLL_ON;
 800194e:	2302      	movs	r3, #2
 8001950:	647b      	str	r3, [r7, #68]	@ 0x44
  RCC_OscInitStruct.PLL.PLLSource = RCC_PLLSOURCE_HSE;
 8001952:	f44f 3380 	mov.w	r3, #65536	@ 0x10000
 8001956:	64bb      	str	r3, [r7, #72]	@ 0x48
  RCC_OscInitStruct.PLL.PLLMUL = RCC_PLL_MUL9;
 8001958:	f44f 13e0 	mov.w	r3, #1835008	@ 0x1c0000
 800195c:	64fb      	str	r3, [r7, #76]	@ 0x4c
  if (HAL_RCC_OscConfig(&RCC_OscInitStruct) != HAL_OK) {
 800195e:	f107 0328 	add.w	r3, r7, #40	@ 0x28
 8001962:	4618      	mov	r0, r3
 8001964:	f001 fe7a 	bl	800365c <HAL_RCC_OscConfig>
 8001968:	4603      	mov	r3, r0
 800196a:	2b00      	cmp	r3, #0
 800196c:	d001      	beq.n	8001972 <SystemClock_Config+0x66>
    Error_Handler();
 800196e:	f000 f999 	bl	8001ca4 <Error_Handler>
  }

  RCC_ClkInitStruct.ClockType = RCC_CLOCKTYPE_HCLK | RCC_CLOCKTYPE_SYSCLK |
 8001972:	230f      	movs	r3, #15
 8001974:	617b      	str	r3, [r7, #20]
                                RCC_CLOCKTYPE_PCLK1 | RCC_CLOCKTYPE_PCLK2;
  RCC_ClkInitStruct.SYSCLKSource = RCC_SYSCLKSOURCE_PLLCLK;
 8001976:	2302      	movs	r3, #2
 8001978:	61bb      	str	r3, [r7, #24]
  RCC_ClkInitStruct.AHBCLKDivider = RCC_SYSCLK_DIV2;
 800197a:	2380      	movs	r3, #128	@ 0x80
 800197c:	61fb      	str	r3, [r7, #28]
  RCC_ClkInitStruct.APB1CLKDivider = RCC_HCLK_DIV2;
 800197e:	f44f 6380 	mov.w	r3, #1024	@ 0x400
 8001982:	623b      	str	r3, [r7, #32]
  RCC_ClkInitStruct.APB2CLKDivider = RCC_HCLK_DIV1;
 8001984:	2300      	movs	r3, #0
 8001986:	627b      	str	r3, [r7, #36]	@ 0x24

  if (HAL_RCC_ClockConfig(&RCC_ClkInitStruct, FLASH_LATENCY_2) != HAL_OK) {
 8001988:	f107 0314 	add.w	r3, r7, #20
 800198c:	2102      	movs	r1, #2
 800198e:	4618      	mov	r0, r3
 8001990:	f002 f8e6 	bl	8003b60 <HAL_RCC_ClockConfig>
 8001994:	4603      	mov	r3, r0
 8001996:	2b00      	cmp	r3, #0
 8001998:	d001      	beq.n	800199e <SystemClock_Config+0x92>
    Error_Handler();
 800199a:	f000 f983 	bl	8001ca4 <Error_Handler>
  }

  PeriphClkInit.PeriphClockSelection = RCC_PERIPHCLK_ADC;
 800199e:	2302      	movs	r3, #2
 80019a0:	607b      	str	r3, [r7, #4]
  PeriphClkInit.AdcClockSelection = RCC_ADCPCLK2_DIV6;
 80019a2:	f44f 4300 	mov.w	r3, #32768	@ 0x8000
 80019a6:	60fb      	str	r3, [r7, #12]
  if (HAL_RCCEx_PeriphCLKConfig(&PeriphClkInit) != HAL_OK) {
 80019a8:	1d3b      	adds	r3, r7, #4
 80019aa:	4618      	mov	r0, r3
 80019ac:	f002 fa8c 	bl	8003ec8 <HAL_RCCEx_PeriphCLKConfig>
 80019b0:	4603      	mov	r3, r0
 80019b2:	2b00      	cmp	r3, #0
 80019b4:	d001      	beq.n	80019ba <SystemClock_Config+0xae>
    Error_Handler();
 80019b6:	f000 f975 	bl	8001ca4 <Error_Handler>
  }

  HAL_RCC_EnableCSS();
 80019ba:	f002 f9bb 	bl	8003d34 <HAL_RCC_EnableCSS>
}
 80019be:	bf00      	nop
 80019c0:	3750      	adds	r7, #80	@ 0x50
 80019c2:	46bd      	mov	sp, r7
 80019c4:	bd80      	pop	{r7, pc}
	...

080019c8 <MX_ADC1_Init>:
/**
 * @brief ADC1 Initialization Function
 * @param None
 * @retval None
 */
static void MX_ADC1_Init(void) {
 80019c8:	b580      	push	{r7, lr}
 80019ca:	b084      	sub	sp, #16
 80019cc:	af00      	add	r7, sp, #0
  ADC_ChannelConfTypeDef sConfig = {0};
 80019ce:	1d3b      	adds	r3, r7, #4
 80019d0:	2200      	movs	r2, #0
 80019d2:	601a      	str	r2, [r3, #0]
 80019d4:	605a      	str	r2, [r3, #4]
 80019d6:	609a      	str	r2, [r3, #8]
  /* USER CODE END ADC1_Init 0 */

  /* USER CODE BEGIN ADC1_Init 1 */
  /* USER CODE END ADC1_Init 1 */

  hadc1.Instance = ADC1;
 80019d8:	4b18      	ldr	r3, [pc, #96]	@ (8001a3c <MX_ADC1_Init+0x74>)
 80019da:	4a19      	ldr	r2, [pc, #100]	@ (8001a40 <MX_ADC1_Init+0x78>)
 80019dc:	601a      	str	r2, [r3, #0]
  hadc1.Init.ScanConvMode = ADC_SCAN_DISABLE;
 80019de:	4b17      	ldr	r3, [pc, #92]	@ (8001a3c <MX_ADC1_Init+0x74>)
 80019e0:	2200      	movs	r2, #0
 80019e2:	609a      	str	r2, [r3, #8]
  hadc1.Init.ContinuousConvMode = DISABLE;
 80019e4:	4b15      	ldr	r3, [pc, #84]	@ (8001a3c <MX_ADC1_Init+0x74>)
 80019e6:	2200      	movs	r2, #0
 80019e8:	731a      	strb	r2, [r3, #12]
  hadc1.Init.DiscontinuousConvMode = DISABLE;
 80019ea:	4b14      	ldr	r3, [pc, #80]	@ (8001a3c <MX_ADC1_Init+0x74>)
 80019ec:	2200      	movs	r2, #0
 80019ee:	751a      	strb	r2, [r3, #20]
  hadc1.Init.ExternalTrigConv = ADC_SOFTWARE_START;
 80019f0:	4b12      	ldr	r3, [pc, #72]	@ (8001a3c <MX_ADC1_Init+0x74>)
 80019f2:	f44f 2260 	mov.w	r2, #917504	@ 0xe0000
 80019f6:	61da      	str	r2, [r3, #28]
  hadc1.Init.DataAlign = ADC_DATAALIGN_RIGHT;
 80019f8:	4b10      	ldr	r3, [pc, #64]	@ (8001a3c <MX_ADC1_Init+0x74>)
 80019fa:	2200      	movs	r2, #0
 80019fc:	605a      	str	r2, [r3, #4]
  hadc1.Init.NbrOfConversion = 1;
 80019fe:	4b0f      	ldr	r3, [pc, #60]	@ (8001a3c <MX_ADC1_Init+0x74>)
 8001a00:	2201      	movs	r2, #1
 8001a02:	611a      	str	r2, [r3, #16]
  if (HAL_ADC_Init(&hadc1) != HAL_OK) {
 8001a04:	480d      	ldr	r0, [pc, #52]	@ (8001a3c <MX_ADC1_Init+0x74>)
 8001a06:	f000 fbcb 	bl	80021a0 <HAL_ADC_Init>
 8001a0a:	4603      	mov	r3, r0
 8001a0c:	2b00      	cmp	r3, #0
 8001a0e:	d001      	beq.n	8001a14 <MX_ADC1_Init+0x4c>
    Error_Handler();
 8001a10:	f000 f948 	bl	8001ca4 <Error_Handler>
  }

  sConfig.Channel = ADC_CHANNEL_2;
 8001a14:	2302      	movs	r3, #2
 8001a16:	607b      	str	r3, [r7, #4]
  sConfig.Rank = ADC_REGULAR_RANK_1;
 8001a18:	2301      	movs	r3, #1
 8001a1a:	60bb      	str	r3, [r7, #8]
  sConfig.SamplingTime = ADC_SAMPLETIME_1CYCLE_5;
 8001a1c:	2300      	movs	r3, #0
 8001a1e:	60fb      	str	r3, [r7, #12]
  if (HAL_ADC_ConfigChannel(&hadc1, &sConfig) != HAL_OK) {
 8001a20:	1d3b      	adds	r3, r7, #4
 8001a22:	4619      	mov	r1, r3
 8001a24:	4805      	ldr	r0, [pc, #20]	@ (8001a3c <MX_ADC1_Init+0x74>)
 8001a26:	f000 fe7f 	bl	8002728 <HAL_ADC_ConfigChannel>
 8001a2a:	4603      	mov	r3, r0
 8001a2c:	2b00      	cmp	r3, #0
 8001a2e:	d001      	beq.n	8001a34 <MX_ADC1_Init+0x6c>
    Error_Handler();
 8001a30:	f000 f938 	bl	8001ca4 <Error_Handler>
  }

  /* USER CODE BEGIN ADC1_Init 2 */
  /* USER CODE END ADC1_Init 2 */
}
 8001a34:	bf00      	nop
 8001a36:	3710      	adds	r7, #16
 8001a38:	46bd      	mov	sp, r7
 8001a3a:	bd80      	pop	{r7, pc}
 8001a3c:	200001f8 	.word	0x200001f8
 8001a40:	40012400 	.word	0x40012400

08001a44 <MX_CAN_Init>:
/**
 * @brief CAN Initialization Function
 * @param None
 * @retval None
 */
static void MX_CAN_Init(void) {
 8001a44:	b580      	push	{r7, lr}
 8001a46:	af00      	add	r7, sp, #0
  hcan.Instance = CAN1;
 8001a48:	4b17      	ldr	r3, [pc, #92]	@ (8001aa8 <MX_CAN_Init+0x64>)
 8001a4a:	4a18      	ldr	r2, [pc, #96]	@ (8001aac <MX_CAN_Init+0x68>)
 8001a4c:	601a      	str	r2, [r3, #0]
  hcan.Init.Prescaler = 3; /* was 2 → gave 750 kbps    */
 8001a4e:	4b16      	ldr	r3, [pc, #88]	@ (8001aa8 <MX_CAN_Init+0x64>)
 8001a50:	2203      	movs	r2, #3
 8001a52:	605a      	str	r2, [r3, #4]
  hcan.Init.Mode = CAN_MODE_NORMAL;
 8001a54:	4b14      	ldr	r3, [pc, #80]	@ (8001aa8 <MX_CAN_Init+0x64>)
 8001a56:	2200      	movs	r2, #0
 8001a58:	609a      	str	r2, [r3, #8]
  hcan.Init.SyncJumpWidth = CAN_SJW_1TQ;
 8001a5a:	4b13      	ldr	r3, [pc, #76]	@ (8001aa8 <MX_CAN_Init+0x64>)
 8001a5c:	2200      	movs	r2, #0
 8001a5e:	60da      	str	r2, [r3, #12]
  hcan.Init.TimeSeg1 = CAN_BS1_13TQ;
 8001a60:	4b11      	ldr	r3, [pc, #68]	@ (8001aa8 <MX_CAN_Init+0x64>)
 8001a62:	f44f 2240 	mov.w	r2, #786432	@ 0xc0000
 8001a66:	611a      	str	r2, [r3, #16]
  hcan.Init.TimeSeg2 = CAN_BS2_4TQ;
 8001a68:	4b0f      	ldr	r3, [pc, #60]	@ (8001aa8 <MX_CAN_Init+0x64>)
 8001a6a:	f44f 1240 	mov.w	r2, #3145728	@ 0x300000
 8001a6e:	615a      	str	r2, [r3, #20]
  hcan.Init.TimeTriggeredMode = DISABLE;
 8001a70:	4b0d      	ldr	r3, [pc, #52]	@ (8001aa8 <MX_CAN_Init+0x64>)
 8001a72:	2200      	movs	r2, #0
 8001a74:	761a      	strb	r2, [r3, #24]
  hcan.Init.AutoBusOff = DISABLE;
 8001a76:	4b0c      	ldr	r3, [pc, #48]	@ (8001aa8 <MX_CAN_Init+0x64>)
 8001a78:	2200      	movs	r2, #0
 8001a7a:	765a      	strb	r2, [r3, #25]
  hcan.Init.AutoWakeUp = DISABLE;
 8001a7c:	4b0a      	ldr	r3, [pc, #40]	@ (8001aa8 <MX_CAN_Init+0x64>)
 8001a7e:	2200      	movs	r2, #0
 8001a80:	769a      	strb	r2, [r3, #26]
  hcan.Init.AutoRetransmission = DISABLE;
 8001a82:	4b09      	ldr	r3, [pc, #36]	@ (8001aa8 <MX_CAN_Init+0x64>)
 8001a84:	2200      	movs	r2, #0
 8001a86:	76da      	strb	r2, [r3, #27]
  hcan.Init.ReceiveFifoLocked = DISABLE;
 8001a88:	4b07      	ldr	r3, [pc, #28]	@ (8001aa8 <MX_CAN_Init+0x64>)
 8001a8a:	2200      	movs	r2, #0
 8001a8c:	771a      	strb	r2, [r3, #28]
  hcan.Init.TransmitFifoPriority = DISABLE;
 8001a8e:	4b06      	ldr	r3, [pc, #24]	@ (8001aa8 <MX_CAN_Init+0x64>)
 8001a90:	2200      	movs	r2, #0
 8001a92:	775a      	strb	r2, [r3, #29]
  if (HAL_CAN_Init(&hcan) != HAL_OK)
 8001a94:	4804      	ldr	r0, [pc, #16]	@ (8001aa8 <MX_CAN_Init+0x64>)
 8001a96:	f001 f889 	bl	8002bac <HAL_CAN_Init>
 8001a9a:	4603      	mov	r3, r0
 8001a9c:	2b00      	cmp	r3, #0
 8001a9e:	d001      	beq.n	8001aa4 <MX_CAN_Init+0x60>
    Error_Handler();
 8001aa0:	f000 f900 	bl	8001ca4 <Error_Handler>
}
 8001aa4:	bf00      	nop
 8001aa6:	bd80      	pop	{r7, pc}
 8001aa8:	20000228 	.word	0x20000228
 8001aac:	40006400 	.word	0x40006400

08001ab0 <MX_SPI1_Init>:
/**
 * @brief SPI1 Initialization Function
 * @param None
 * @retval None
 */
static void MX_SPI1_Init(void) {
 8001ab0:	b580      	push	{r7, lr}
 8001ab2:	af00      	add	r7, sp, #0
  /* USER CODE END SPI1_Init 0 */

  /* USER CODE BEGIN SPI1_Init 1 */
  /* USER CODE END SPI1_Init 1 */

  hspi1.Instance = SPI1;
 8001ab4:	4b18      	ldr	r3, [pc, #96]	@ (8001b18 <MX_SPI1_Init+0x68>)
 8001ab6:	4a19      	ldr	r2, [pc, #100]	@ (8001b1c <MX_SPI1_Init+0x6c>)
 8001ab8:	601a      	str	r2, [r3, #0]
  hspi1.Init.Mode = SPI_MODE_MASTER;
 8001aba:	4b17      	ldr	r3, [pc, #92]	@ (8001b18 <MX_SPI1_Init+0x68>)
 8001abc:	f44f 7282 	mov.w	r2, #260	@ 0x104
 8001ac0:	605a      	str	r2, [r3, #4]
  hspi1.Init.Direction = SPI_DIRECTION_1LINE;
 8001ac2:	4b15      	ldr	r3, [pc, #84]	@ (8001b18 <MX_SPI1_Init+0x68>)
 8001ac4:	f44f 4200 	mov.w	r2, #32768	@ 0x8000
 8001ac8:	609a      	str	r2, [r3, #8]
  hspi1.Init.DataSize = SPI_DATASIZE_8BIT;
 8001aca:	4b13      	ldr	r3, [pc, #76]	@ (8001b18 <MX_SPI1_Init+0x68>)
 8001acc:	2200      	movs	r2, #0
 8001ace:	60da      	str	r2, [r3, #12]
  hspi1.Init.CLKPolarity = SPI_POLARITY_LOW;
 8001ad0:	4b11      	ldr	r3, [pc, #68]	@ (8001b18 <MX_SPI1_Init+0x68>)
 8001ad2:	2200      	movs	r2, #0
 8001ad4:	611a      	str	r2, [r3, #16]
  hspi1.Init.CLKPhase = SPI_PHASE_1EDGE;
 8001ad6:	4b10      	ldr	r3, [pc, #64]	@ (8001b18 <MX_SPI1_Init+0x68>)
 8001ad8:	2200      	movs	r2, #0
 8001ada:	615a      	str	r2, [r3, #20]
  hspi1.Init.NSS = SPI_NSS_SOFT;
 8001adc:	4b0e      	ldr	r3, [pc, #56]	@ (8001b18 <MX_SPI1_Init+0x68>)
 8001ade:	f44f 7200 	mov.w	r2, #512	@ 0x200
 8001ae2:	619a      	str	r2, [r3, #24]
  hspi1.Init.BaudRatePrescaler = SPI_BAUDRATEPRESCALER_4;
 8001ae4:	4b0c      	ldr	r3, [pc, #48]	@ (8001b18 <MX_SPI1_Init+0x68>)
 8001ae6:	2208      	movs	r2, #8
 8001ae8:	61da      	str	r2, [r3, #28]
  hspi1.Init.FirstBit = SPI_FIRSTBIT_MSB;
 8001aea:	4b0b      	ldr	r3, [pc, #44]	@ (8001b18 <MX_SPI1_Init+0x68>)
 8001aec:	2200      	movs	r2, #0
 8001aee:	621a      	str	r2, [r3, #32]
  hspi1.Init.TIMode = SPI_TIMODE_DISABLE;
 8001af0:	4b09      	ldr	r3, [pc, #36]	@ (8001b18 <MX_SPI1_Init+0x68>)
 8001af2:	2200      	movs	r2, #0
 8001af4:	625a      	str	r2, [r3, #36]	@ 0x24
  hspi1.Init.CRCCalculation = SPI_CRCCALCULATION_DISABLE;
 8001af6:	4b08      	ldr	r3, [pc, #32]	@ (8001b18 <MX_SPI1_Init+0x68>)
 8001af8:	2200      	movs	r2, #0
 8001afa:	629a      	str	r2, [r3, #40]	@ 0x28
  hspi1.Init.CRCPolynomial = 10;
 8001afc:	4b06      	ldr	r3, [pc, #24]	@ (8001b18 <MX_SPI1_Init+0x68>)
 8001afe:	220a      	movs	r2, #10
 8001b00:	62da      	str	r2, [r3, #44]	@ 0x2c
  if (HAL_SPI_Init(&hspi1) != HAL_OK) {
 8001b02:	4805      	ldr	r0, [pc, #20]	@ (8001b18 <MX_SPI1_Init+0x68>)
 8001b04:	f002 fb4c 	bl	80041a0 <HAL_SPI_Init>
 8001b08:	4603      	mov	r3, r0
 8001b0a:	2b00      	cmp	r3, #0
 8001b0c:	d001      	beq.n	8001b12 <MX_SPI1_Init+0x62>
    Error_Handler();
 8001b0e:	f000 f8c9 	bl	8001ca4 <Error_Handler>
  }

  /* USER CODE BEGIN SPI1_Init 2 */
  /* USER CODE END SPI1_Init 2 */
}
 8001b12:	bf00      	nop
 8001b14:	bd80      	pop	{r7, pc}
 8001b16:	bf00      	nop
 8001b18:	20000250 	.word	0x20000250
 8001b1c:	40013000 	.word	0x40013000

08001b20 <MX_TIM4_Init>:
/**
 * @brief TIM4 Initialization Function
 * @param None
 * @retval None
 */
static void MX_TIM4_Init(void) {
 8001b20:	b580      	push	{r7, lr}
 8001b22:	b086      	sub	sp, #24
 8001b24:	af00      	add	r7, sp, #0
  TIM_ClockConfigTypeDef sClockSourceConfig = {0};
 8001b26:	f107 0308 	add.w	r3, r7, #8
 8001b2a:	2200      	movs	r2, #0
 8001b2c:	601a      	str	r2, [r3, #0]
 8001b2e:	605a      	str	r2, [r3, #4]
 8001b30:	609a      	str	r2, [r3, #8]
 8001b32:	60da      	str	r2, [r3, #12]
  TIM_MasterConfigTypeDef sMasterConfig = {0};
 8001b34:	463b      	mov	r3, r7
 8001b36:	2200      	movs	r2, #0
 8001b38:	601a      	str	r2, [r3, #0]
 8001b3a:	605a      	str	r2, [r3, #4]
  /* USER CODE END TIM4_Init 0 */

  /* USER CODE BEGIN TIM4_Init 1 */
  /* USER CODE END TIM4_Init 1 */

  htim4.Instance = TIM4;
 8001b3c:	4b1d      	ldr	r3, [pc, #116]	@ (8001bb4 <MX_TIM4_Init+0x94>)
 8001b3e:	4a1e      	ldr	r2, [pc, #120]	@ (8001bb8 <MX_TIM4_Init+0x98>)
 8001b40:	601a      	str	r2, [r3, #0]
  htim4.Init.Prescaler = 0;
 8001b42:	4b1c      	ldr	r3, [pc, #112]	@ (8001bb4 <MX_TIM4_Init+0x94>)
 8001b44:	2200      	movs	r2, #0
 8001b46:	605a      	str	r2, [r3, #4]
  htim4.Init.CounterMode = TIM_COUNTERMODE_UP;
 8001b48:	4b1a      	ldr	r3, [pc, #104]	@ (8001bb4 <MX_TIM4_Init+0x94>)
 8001b4a:	2200      	movs	r2, #0
 8001b4c:	609a      	str	r2, [r3, #8]
  htim4.Init.Period = 65535;
 8001b4e:	4b19      	ldr	r3, [pc, #100]	@ (8001bb4 <MX_TIM4_Init+0x94>)
 8001b50:	f64f 72ff 	movw	r2, #65535	@ 0xffff
 8001b54:	60da      	str	r2, [r3, #12]
  htim4.Init.ClockDivision = TIM_CLOCKDIVISION_DIV1;
 8001b56:	4b17      	ldr	r3, [pc, #92]	@ (8001bb4 <MX_TIM4_Init+0x94>)
 8001b58:	2200      	movs	r2, #0
 8001b5a:	611a      	str	r2, [r3, #16]
  htim4.Init.AutoReloadPreload = TIM_AUTORELOAD_PRELOAD_DISABLE;
 8001b5c:	4b15      	ldr	r3, [pc, #84]	@ (8001bb4 <MX_TIM4_Init+0x94>)
 8001b5e:	2200      	movs	r2, #0
 8001b60:	619a      	str	r2, [r3, #24]
  if (HAL_TIM_Base_Init(&htim4) != HAL_OK) {
 8001b62:	4814      	ldr	r0, [pc, #80]	@ (8001bb4 <MX_TIM4_Init+0x94>)
 8001b64:	f002 fd9d 	bl	80046a2 <HAL_TIM_Base_Init>
 8001b68:	4603      	mov	r3, r0
 8001b6a:	2b00      	cmp	r3, #0
 8001b6c:	d001      	beq.n	8001b72 <MX_TIM4_Init+0x52>
    Error_Handler();
 8001b6e:	f000 f899 	bl	8001ca4 <Error_Handler>
  }

  sClockSourceConfig.ClockSource = TIM_CLOCKSOURCE_INTERNAL;
 8001b72:	f44f 5380 	mov.w	r3, #4096	@ 0x1000
 8001b76:	60bb      	str	r3, [r7, #8]
  if (HAL_TIM_ConfigClockSource(&htim4, &sClockSourceConfig) != HAL_OK) {
 8001b78:	f107 0308 	add.w	r3, r7, #8
 8001b7c:	4619      	mov	r1, r3
 8001b7e:	480d      	ldr	r0, [pc, #52]	@ (8001bb4 <MX_TIM4_Init+0x94>)
 8001b80:	f002 fdde 	bl	8004740 <HAL_TIM_ConfigClockSource>
 8001b84:	4603      	mov	r3, r0
 8001b86:	2b00      	cmp	r3, #0
 8001b88:	d001      	beq.n	8001b8e <MX_TIM4_Init+0x6e>
    Error_Handler();
 8001b8a:	f000 f88b 	bl	8001ca4 <Error_Handler>
  }

  sMasterConfig.MasterOutputTrigger = TIM_TRGO_RESET;
 8001b8e:	2300      	movs	r3, #0
 8001b90:	603b      	str	r3, [r7, #0]
  sMasterConfig.MasterSlaveMode = TIM_MASTERSLAVEMODE_DISABLE;
 8001b92:	2300      	movs	r3, #0
 8001b94:	607b      	str	r3, [r7, #4]
  if (HAL_TIMEx_MasterConfigSynchronization(&htim4, &sMasterConfig) != HAL_OK) {
 8001b96:	463b      	mov	r3, r7
 8001b98:	4619      	mov	r1, r3
 8001b9a:	4806      	ldr	r0, [pc, #24]	@ (8001bb4 <MX_TIM4_Init+0x94>)
 8001b9c:	f002 ff9c 	bl	8004ad8 <HAL_TIMEx_MasterConfigSynchronization>
 8001ba0:	4603      	mov	r3, r0
 8001ba2:	2b00      	cmp	r3, #0
 8001ba4:	d001      	beq.n	8001baa <MX_TIM4_Init+0x8a>
    Error_Handler();
 8001ba6:	f000 f87d 	bl	8001ca4 <Error_Handler>
  }

  /* USER CODE BEGIN TIM4_Init 2 */
  /* USER CODE END TIM4_Init 2 */
}
 8001baa:	bf00      	nop
 8001bac:	3718      	adds	r7, #24
 8001bae:	46bd      	mov	sp, r7
 8001bb0:	bd80      	pop	{r7, pc}
 8001bb2:	bf00      	nop
 8001bb4:	200002a8 	.word	0x200002a8
 8001bb8:	40000800 	.word	0x40000800

08001bbc <MX_USART1_UART_Init>:
/**
 * @brief USART1 Initialization Function
 * @param None
 * @retval None
 */
static void MX_USART1_UART_Init(void) {
 8001bbc:	b580      	push	{r7, lr}
 8001bbe:	af00      	add	r7, sp, #0
  /* USER CODE END USART1_Init 0 */

  /* USER CODE BEGIN USART1_Init 1 */
  /* USER CODE END USART1_Init 1 */

  huart1.Instance = USART1;
 8001bc0:	4b11      	ldr	r3, [pc, #68]	@ (8001c08 <MX_USART1_UART_Init+0x4c>)
 8001bc2:	4a12      	ldr	r2, [pc, #72]	@ (8001c0c <MX_USART1_UART_Init+0x50>)
 8001bc4:	601a      	str	r2, [r3, #0]
  huart1.Init.BaudRate = 115200;
 8001bc6:	4b10      	ldr	r3, [pc, #64]	@ (8001c08 <MX_USART1_UART_Init+0x4c>)
 8001bc8:	f44f 32e1 	mov.w	r2, #115200	@ 0x1c200
 8001bcc:	605a      	str	r2, [r3, #4]
  huart1.Init.WordLength = UART_WORDLENGTH_8B;
 8001bce:	4b0e      	ldr	r3, [pc, #56]	@ (8001c08 <MX_USART1_UART_Init+0x4c>)
 8001bd0:	2200      	movs	r2, #0
 8001bd2:	609a      	str	r2, [r3, #8]
  huart1.Init.StopBits = UART_STOPBITS_1;
 8001bd4:	4b0c      	ldr	r3, [pc, #48]	@ (8001c08 <MX_USART1_UART_Init+0x4c>)
 8001bd6:	2200      	movs	r2, #0
 8001bd8:	60da      	str	r2, [r3, #12]
  huart1.Init.Parity = UART_PARITY_NONE;
 8001bda:	4b0b      	ldr	r3, [pc, #44]	@ (8001c08 <MX_USART1_UART_Init+0x4c>)
 8001bdc:	2200      	movs	r2, #0
 8001bde:	611a      	str	r2, [r3, #16]
  huart1.Init.Mode = UART_MODE_TX_RX;
 8001be0:	4b09      	ldr	r3, [pc, #36]	@ (8001c08 <MX_USART1_UART_Init+0x4c>)
 8001be2:	220c      	movs	r2, #12
 8001be4:	615a      	str	r2, [r3, #20]
  huart1.Init.HwFlowCtl = UART_HWCONTROL_NONE;
 8001be6:	4b08      	ldr	r3, [pc, #32]	@ (8001c08 <MX_USART1_UART_Init+0x4c>)
 8001be8:	2200      	movs	r2, #0
 8001bea:	619a      	str	r2, [r3, #24]
  huart1.Init.OverSampling = UART_OVERSAMPLING_16;
 8001bec:	4b06      	ldr	r3, [pc, #24]	@ (8001c08 <MX_USART1_UART_Init+0x4c>)
 8001bee:	2200      	movs	r2, #0
 8001bf0:	61da      	str	r2, [r3, #28]
  if (HAL_UART_Init(&huart1) != HAL_OK) {
 8001bf2:	4805      	ldr	r0, [pc, #20]	@ (8001c08 <MX_USART1_UART_Init+0x4c>)
 8001bf4:	f002 ffce 	bl	8004b94 <HAL_UART_Init>
 8001bf8:	4603      	mov	r3, r0
 8001bfa:	2b00      	cmp	r3, #0
 8001bfc:	d001      	beq.n	8001c02 <MX_USART1_UART_Init+0x46>
    Error_Handler();
 8001bfe:	f000 f851 	bl	8001ca4 <Error_Handler>
  }

  /* USER CODE BEGIN USART1_Init 2 */
  /* USER CODE END USART1_Init 2 */
}
 8001c02:	bf00      	nop
 8001c04:	bd80      	pop	{r7, pc}
 8001c06:	bf00      	nop
 8001c08:	200002f0 	.word	0x200002f0
 8001c0c:	40013800 	.word	0x40013800

08001c10 <MX_GPIO_Init>:
/**
 * @brief GPIO Initialization Function
 * @param None
 * @retval None
 */
static void MX_GPIO_Init(void) {
 8001c10:	b580      	push	{r7, lr}
 8001c12:	b088      	sub	sp, #32
 8001c14:	af00      	add	r7, sp, #0
  GPIO_InitTypeDef GPIO_InitStruct = {0};
 8001c16:	f107 0310 	add.w	r3, r7, #16
 8001c1a:	2200      	movs	r2, #0
 8001c1c:	601a      	str	r2, [r3, #0]
 8001c1e:	605a      	str	r2, [r3, #4]
 8001c20:	609a      	str	r2, [r3, #8]
 8001c22:	60da      	str	r2, [r3, #12]

  __HAL_RCC_GPIOD_CLK_ENABLE();
 8001c24:	4b1d      	ldr	r3, [pc, #116]	@ (8001c9c <MX_GPIO_Init+0x8c>)
 8001c26:	699b      	ldr	r3, [r3, #24]
 8001c28:	4a1c      	ldr	r2, [pc, #112]	@ (8001c9c <MX_GPIO_Init+0x8c>)
 8001c2a:	f043 0320 	orr.w	r3, r3, #32
 8001c2e:	6193      	str	r3, [r2, #24]
 8001c30:	4b1a      	ldr	r3, [pc, #104]	@ (8001c9c <MX_GPIO_Init+0x8c>)
 8001c32:	699b      	ldr	r3, [r3, #24]
 8001c34:	f003 0320 	and.w	r3, r3, #32
 8001c38:	60fb      	str	r3, [r7, #12]
 8001c3a:	68fb      	ldr	r3, [r7, #12]
  __HAL_RCC_GPIOA_CLK_ENABLE();
 8001c3c:	4b17      	ldr	r3, [pc, #92]	@ (8001c9c <MX_GPIO_Init+0x8c>)
 8001c3e:	699b      	ldr	r3, [r3, #24]
 8001c40:	4a16      	ldr	r2, [pc, #88]	@ (8001c9c <MX_GPIO_Init+0x8c>)
 8001c42:	f043 0304 	orr.w	r3, r3, #4
 8001c46:	6193      	str	r3, [r2, #24]
 8001c48:	4b14      	ldr	r3, [pc, #80]	@ (8001c9c <MX_GPIO_Init+0x8c>)
 8001c4a:	699b      	ldr	r3, [r3, #24]
 8001c4c:	f003 0304 	and.w	r3, r3, #4
 8001c50:	60bb      	str	r3, [r7, #8]
 8001c52:	68bb      	ldr	r3, [r7, #8]
  __HAL_RCC_GPIOB_CLK_ENABLE();
 8001c54:	4b11      	ldr	r3, [pc, #68]	@ (8001c9c <MX_GPIO_Init+0x8c>)
 8001c56:	699b      	ldr	r3, [r3, #24]
 8001c58:	4a10      	ldr	r2, [pc, #64]	@ (8001c9c <MX_GPIO_Init+0x8c>)
 8001c5a:	f043 0308 	orr.w	r3, r3, #8
 8001c5e:	6193      	str	r3, [r2, #24]
 8001c60:	4b0e      	ldr	r3, [pc, #56]	@ (8001c9c <MX_GPIO_Init+0x8c>)
 8001c62:	699b      	ldr	r3, [r3, #24]
 8001c64:	f003 0308 	and.w	r3, r3, #8
 8001c68:	607b      	str	r3, [r7, #4]
 8001c6a:	687b      	ldr	r3, [r7, #4]

  /* SET first — open-drain high = released = mux SYNC deasserted    */
  HAL_GPIO_WritePin(GPIOB, GPIO_PIN_0 | GPIO_PIN_1 | GPIO_PIN_2, GPIO_PIN_SET);
 8001c6c:	2201      	movs	r2, #1
 8001c6e:	2107      	movs	r1, #7
 8001c70:	480b      	ldr	r0, [pc, #44]	@ (8001ca0 <MX_GPIO_Init+0x90>)
 8001c72:	f001 fcdb 	bl	800362c <HAL_GPIO_WritePin>

  GPIO_InitStruct.Pin = GPIO_PIN_0 | GPIO_PIN_1 | GPIO_PIN_2;
 8001c76:	2307      	movs	r3, #7
 8001c78:	613b      	str	r3, [r7, #16]
  GPIO_InitStruct.Mode = GPIO_MODE_OUTPUT_OD;
 8001c7a:	2311      	movs	r3, #17
 8001c7c:	617b      	str	r3, [r7, #20]
  GPIO_InitStruct.Pull = GPIO_NOPULL;
 8001c7e:	2300      	movs	r3, #0
 8001c80:	61bb      	str	r3, [r7, #24]
  GPIO_InitStruct.Speed = GPIO_SPEED_FREQ_LOW;
 8001c82:	2302      	movs	r3, #2
 8001c84:	61fb      	str	r3, [r7, #28]
  HAL_GPIO_Init(GPIOB, &GPIO_InitStruct);
 8001c86:	f107 0310 	add.w	r3, r7, #16
 8001c8a:	4619      	mov	r1, r3
 8001c8c:	4804      	ldr	r0, [pc, #16]	@ (8001ca0 <MX_GPIO_Init+0x90>)
 8001c8e:	f001 fb49 	bl	8003324 <HAL_GPIO_Init>
}
 8001c92:	bf00      	nop
 8001c94:	3720      	adds	r7, #32
 8001c96:	46bd      	mov	sp, r7
 8001c98:	bd80      	pop	{r7, pc}
 8001c9a:	bf00      	nop
 8001c9c:	40021000 	.word	0x40021000
 8001ca0:	40010c00 	.word	0x40010c00

08001ca4 <Error_Handler>:

/**
 * @brief  This function is executed in case of error occurrence.
 * @retval None
 */
void Error_Handler(void) {
 8001ca4:	b480      	push	{r7}
 8001ca6:	af00      	add	r7, sp, #0
  \details Disables IRQ interrupts by setting the I-bit in the CPSR.
           Can only be executed in Privileged modes.
 */
__STATIC_FORCEINLINE void __disable_irq(void)
{
  __ASM volatile ("cpsid i" : : : "memory");
 8001ca8:	b672      	cpsid	i
}
 8001caa:	bf00      	nop
  /* USER CODE BEGIN Error_Handler_Debug */
  __disable_irq();
  while (1) {
 8001cac:	bf00      	nop
 8001cae:	e7fd      	b.n	8001cac <Error_Handler+0x8>

08001cb0 <HAL_MspInit>:
/* USER CODE END 0 */
/**
  * Initializes the Global MSP.
  */
void HAL_MspInit(void)
{
 8001cb0:	b480      	push	{r7}
 8001cb2:	b085      	sub	sp, #20
 8001cb4:	af00      	add	r7, sp, #0

  /* USER CODE BEGIN MspInit 0 */

  /* USER CODE END MspInit 0 */

  __HAL_RCC_AFIO_CLK_ENABLE();
 8001cb6:	4b15      	ldr	r3, [pc, #84]	@ (8001d0c <HAL_MspInit+0x5c>)
 8001cb8:	699b      	ldr	r3, [r3, #24]
 8001cba:	4a14      	ldr	r2, [pc, #80]	@ (8001d0c <HAL_MspInit+0x5c>)
 8001cbc:	f043 0301 	orr.w	r3, r3, #1
 8001cc0:	6193      	str	r3, [r2, #24]
 8001cc2:	4b12      	ldr	r3, [pc, #72]	@ (8001d0c <HAL_MspInit+0x5c>)
 8001cc4:	699b      	ldr	r3, [r3, #24]
 8001cc6:	f003 0301 	and.w	r3, r3, #1
 8001cca:	60bb      	str	r3, [r7, #8]
 8001ccc:	68bb      	ldr	r3, [r7, #8]
  __HAL_RCC_PWR_CLK_ENABLE();
 8001cce:	4b0f      	ldr	r3, [pc, #60]	@ (8001d0c <HAL_MspInit+0x5c>)
 8001cd0:	69db      	ldr	r3, [r3, #28]
 8001cd2:	4a0e      	ldr	r2, [pc, #56]	@ (8001d0c <HAL_MspInit+0x5c>)
 8001cd4:	f043 5380 	orr.w	r3, r3, #268435456	@ 0x10000000
 8001cd8:	61d3      	str	r3, [r2, #28]
 8001cda:	4b0c      	ldr	r3, [pc, #48]	@ (8001d0c <HAL_MspInit+0x5c>)
 8001cdc:	69db      	ldr	r3, [r3, #28]
 8001cde:	f003 5380 	and.w	r3, r3, #268435456	@ 0x10000000
 8001ce2:	607b      	str	r3, [r7, #4]
 8001ce4:	687b      	ldr	r3, [r7, #4]

  /* System interrupt init*/

  /** NOJTAG: JTAG-DP Disabled and SW-DP Enabled
  */
  __HAL_AFIO_REMAP_SWJ_NOJTAG();
 8001ce6:	4b0a      	ldr	r3, [pc, #40]	@ (8001d10 <HAL_MspInit+0x60>)
 8001ce8:	685b      	ldr	r3, [r3, #4]
 8001cea:	60fb      	str	r3, [r7, #12]
 8001cec:	68fb      	ldr	r3, [r7, #12]
 8001cee:	f023 63e0 	bic.w	r3, r3, #117440512	@ 0x7000000
 8001cf2:	60fb      	str	r3, [r7, #12]
 8001cf4:	68fb      	ldr	r3, [r7, #12]
 8001cf6:	f043 7300 	orr.w	r3, r3, #33554432	@ 0x2000000
 8001cfa:	60fb      	str	r3, [r7, #12]
 8001cfc:	4a04      	ldr	r2, [pc, #16]	@ (8001d10 <HAL_MspInit+0x60>)
 8001cfe:	68fb      	ldr	r3, [r7, #12]
 8001d00:	6053      	str	r3, [r2, #4]

  /* USER CODE BEGIN MspInit 1 */

  /* USER CODE END MspInit 1 */
}
 8001d02:	bf00      	nop
 8001d04:	3714      	adds	r7, #20
 8001d06:	46bd      	mov	sp, r7
 8001d08:	bc80      	pop	{r7}
 8001d0a:	4770      	bx	lr
 8001d0c:	40021000 	.word	0x40021000
 8001d10:	40010000 	.word	0x40010000

08001d14 <HAL_ADC_MspInit>:
  * This function configures the hardware resources used in this example
  * @param hadc: ADC handle pointer
  * @retval None
  */
void HAL_ADC_MspInit(ADC_HandleTypeDef* hadc)
{
 8001d14:	b580      	push	{r7, lr}
 8001d16:	b088      	sub	sp, #32
 8001d18:	af00      	add	r7, sp, #0
 8001d1a:	6078      	str	r0, [r7, #4]
  GPIO_InitTypeDef GPIO_InitStruct = {0};
 8001d1c:	f107 0310 	add.w	r3, r7, #16
 8001d20:	2200      	movs	r2, #0
 8001d22:	601a      	str	r2, [r3, #0]
 8001d24:	605a      	str	r2, [r3, #4]
 8001d26:	609a      	str	r2, [r3, #8]
 8001d28:	60da      	str	r2, [r3, #12]
  if(hadc->Instance==ADC1)
 8001d2a:	687b      	ldr	r3, [r7, #4]
 8001d2c:	681b      	ldr	r3, [r3, #0]
 8001d2e:	4a14      	ldr	r2, [pc, #80]	@ (8001d80 <HAL_ADC_MspInit+0x6c>)
 8001d30:	4293      	cmp	r3, r2
 8001d32:	d121      	bne.n	8001d78 <HAL_ADC_MspInit+0x64>
  {
    /* USER CODE BEGIN ADC1_MspInit 0 */

    /* USER CODE END ADC1_MspInit 0 */
    /* Peripheral clock enable */
    __HAL_RCC_ADC1_CLK_ENABLE();
 8001d34:	4b13      	ldr	r3, [pc, #76]	@ (8001d84 <HAL_ADC_MspInit+0x70>)
 8001d36:	699b      	ldr	r3, [r3, #24]
 8001d38:	4a12      	ldr	r2, [pc, #72]	@ (8001d84 <HAL_ADC_MspInit+0x70>)
 8001d3a:	f443 7300 	orr.w	r3, r3, #512	@ 0x200
 8001d3e:	6193      	str	r3, [r2, #24]
 8001d40:	4b10      	ldr	r3, [pc, #64]	@ (8001d84 <HAL_ADC_MspInit+0x70>)
 8001d42:	699b      	ldr	r3, [r3, #24]
 8001d44:	f403 7300 	and.w	r3, r3, #512	@ 0x200
 8001d48:	60fb      	str	r3, [r7, #12]
 8001d4a:	68fb      	ldr	r3, [r7, #12]

    __HAL_RCC_GPIOA_CLK_ENABLE();
 8001d4c:	4b0d      	ldr	r3, [pc, #52]	@ (8001d84 <HAL_ADC_MspInit+0x70>)
 8001d4e:	699b      	ldr	r3, [r3, #24]
 8001d50:	4a0c      	ldr	r2, [pc, #48]	@ (8001d84 <HAL_ADC_MspInit+0x70>)
 8001d52:	f043 0304 	orr.w	r3, r3, #4
 8001d56:	6193      	str	r3, [r2, #24]
 8001d58:	4b0a      	ldr	r3, [pc, #40]	@ (8001d84 <HAL_ADC_MspInit+0x70>)
 8001d5a:	699b      	ldr	r3, [r3, #24]
 8001d5c:	f003 0304 	and.w	r3, r3, #4
 8001d60:	60bb      	str	r3, [r7, #8]
 8001d62:	68bb      	ldr	r3, [r7, #8]
    /**ADC1 GPIO Configuration
    PA2     ------> ADC1_IN2
    */
    GPIO_InitStruct.Pin = GPIO_PIN_2;
 8001d64:	2304      	movs	r3, #4
 8001d66:	613b      	str	r3, [r7, #16]
    GPIO_InitStruct.Mode = GPIO_MODE_ANALOG;
 8001d68:	2303      	movs	r3, #3
 8001d6a:	617b      	str	r3, [r7, #20]
    HAL_GPIO_Init(GPIOA, &GPIO_InitStruct);
 8001d6c:	f107 0310 	add.w	r3, r7, #16
 8001d70:	4619      	mov	r1, r3
 8001d72:	4805      	ldr	r0, [pc, #20]	@ (8001d88 <HAL_ADC_MspInit+0x74>)
 8001d74:	f001 fad6 	bl	8003324 <HAL_GPIO_Init>

    /* USER CODE END ADC1_MspInit 1 */

  }

}
 8001d78:	bf00      	nop
 8001d7a:	3720      	adds	r7, #32
 8001d7c:	46bd      	mov	sp, r7
 8001d7e:	bd80      	pop	{r7, pc}
 8001d80:	40012400 	.word	0x40012400
 8001d84:	40021000 	.word	0x40021000
 8001d88:	40010800 	.word	0x40010800

08001d8c <HAL_CAN_MspInit>:
  * This function configures the hardware resources used in this example
  * @param hcan: CAN handle pointer
  * @retval None
  */
void HAL_CAN_MspInit(CAN_HandleTypeDef* hcan)
{
 8001d8c:	b580      	push	{r7, lr}
 8001d8e:	b088      	sub	sp, #32
 8001d90:	af00      	add	r7, sp, #0
 8001d92:	6078      	str	r0, [r7, #4]
  GPIO_InitTypeDef GPIO_InitStruct = {0};
 8001d94:	f107 0310 	add.w	r3, r7, #16
 8001d98:	2200      	movs	r2, #0
 8001d9a:	601a      	str	r2, [r3, #0]
 8001d9c:	605a      	str	r2, [r3, #4]
 8001d9e:	609a      	str	r2, [r3, #8]
 8001da0:	60da      	str	r2, [r3, #12]
  if(hcan->Instance==CAN1)
 8001da2:	687b      	ldr	r3, [r7, #4]
 8001da4:	681b      	ldr	r3, [r3, #0]
 8001da6:	4a1c      	ldr	r2, [pc, #112]	@ (8001e18 <HAL_CAN_MspInit+0x8c>)
 8001da8:	4293      	cmp	r3, r2
 8001daa:	d131      	bne.n	8001e10 <HAL_CAN_MspInit+0x84>
  {
    /* USER CODE BEGIN CAN1_MspInit 0 */

    /* USER CODE END CAN1_MspInit 0 */
    /* Peripheral clock enable */
    __HAL_RCC_CAN1_CLK_ENABLE();
 8001dac:	4b1b      	ldr	r3, [pc, #108]	@ (8001e1c <HAL_CAN_MspInit+0x90>)
 8001dae:	69db      	ldr	r3, [r3, #28]
 8001db0:	4a1a      	ldr	r2, [pc, #104]	@ (8001e1c <HAL_CAN_MspInit+0x90>)
 8001db2:	f043 7300 	orr.w	r3, r3, #33554432	@ 0x2000000
 8001db6:	61d3      	str	r3, [r2, #28]
 8001db8:	4b18      	ldr	r3, [pc, #96]	@ (8001e1c <HAL_CAN_MspInit+0x90>)
 8001dba:	69db      	ldr	r3, [r3, #28]
 8001dbc:	f003 7300 	and.w	r3, r3, #33554432	@ 0x2000000
 8001dc0:	60fb      	str	r3, [r7, #12]
 8001dc2:	68fb      	ldr	r3, [r7, #12]

    __HAL_RCC_GPIOA_CLK_ENABLE();
 8001dc4:	4b15      	ldr	r3, [pc, #84]	@ (8001e1c <HAL_CAN_MspInit+0x90>)
 8001dc6:	699b      	ldr	r3, [r3, #24]
 8001dc8:	4a14      	ldr	r2, [pc, #80]	@ (8001e1c <HAL_CAN_MspInit+0x90>)
 8001dca:	f043 0304 	orr.w	r3, r3, #4
 8001dce:	6193      	str	r3, [r2, #24]
 8001dd0:	4b12      	ldr	r3, [pc, #72]	@ (8001e1c <HAL_CAN_MspInit+0x90>)
 8001dd2:	699b      	ldr	r3, [r3, #24]
 8001dd4:	f003 0304 	and.w	r3, r3, #4
 8001dd8:	60bb      	str	r3, [r7, #8]
 8001dda:	68bb      	ldr	r3, [r7, #8]
    /**CAN GPIO Configuration
    PA11     ------> CAN_RX
    PA12     ------> CAN_TX
    */
    GPIO_InitStruct.Pin = GPIO_PIN_11;
 8001ddc:	f44f 6300 	mov.w	r3, #2048	@ 0x800
 8001de0:	613b      	str	r3, [r7, #16]
    GPIO_InitStruct.Mode = GPIO_MODE_INPUT;
 8001de2:	2300      	movs	r3, #0
 8001de4:	617b      	str	r3, [r7, #20]
    GPIO_InitStruct.Pull = GPIO_NOPULL;
 8001de6:	2300      	movs	r3, #0
 8001de8:	61bb      	str	r3, [r7, #24]
    HAL_GPIO_Init(GPIOA, &GPIO_InitStruct);
 8001dea:	f107 0310 	add.w	r3, r7, #16
 8001dee:	4619      	mov	r1, r3
 8001df0:	480b      	ldr	r0, [pc, #44]	@ (8001e20 <HAL_CAN_MspInit+0x94>)
 8001df2:	f001 fa97 	bl	8003324 <HAL_GPIO_Init>

    GPIO_InitStruct.Pin = GPIO_PIN_12;
 8001df6:	f44f 5380 	mov.w	r3, #4096	@ 0x1000
 8001dfa:	613b      	str	r3, [r7, #16]
    GPIO_InitStruct.Mode = GPIO_MODE_AF_PP;
 8001dfc:	2302      	movs	r3, #2
 8001dfe:	617b      	str	r3, [r7, #20]
    GPIO_InitStruct.Speed = GPIO_SPEED_FREQ_HIGH;
 8001e00:	2303      	movs	r3, #3
 8001e02:	61fb      	str	r3, [r7, #28]
    HAL_GPIO_Init(GPIOA, &GPIO_InitStruct);
 8001e04:	f107 0310 	add.w	r3, r7, #16
 8001e08:	4619      	mov	r1, r3
 8001e0a:	4805      	ldr	r0, [pc, #20]	@ (8001e20 <HAL_CAN_MspInit+0x94>)
 8001e0c:	f001 fa8a 	bl	8003324 <HAL_GPIO_Init>

    /* USER CODE END CAN1_MspInit 1 */

  }

}
 8001e10:	bf00      	nop
 8001e12:	3720      	adds	r7, #32
 8001e14:	46bd      	mov	sp, r7
 8001e16:	bd80      	pop	{r7, pc}
 8001e18:	40006400 	.word	0x40006400
 8001e1c:	40021000 	.word	0x40021000
 8001e20:	40010800 	.word	0x40010800

08001e24 <HAL_SPI_MspInit>:
  * This function configures the hardware resources used in this example
  * @param hspi: SPI handle pointer
  * @retval None
  */
void HAL_SPI_MspInit(SPI_HandleTypeDef* hspi)
{
 8001e24:	b580      	push	{r7, lr}
 8001e26:	b088      	sub	sp, #32
 8001e28:	af00      	add	r7, sp, #0
 8001e2a:	6078      	str	r0, [r7, #4]
  GPIO_InitTypeDef GPIO_InitStruct = {0};
 8001e2c:	f107 0310 	add.w	r3, r7, #16
 8001e30:	2200      	movs	r2, #0
 8001e32:	601a      	str	r2, [r3, #0]
 8001e34:	605a      	str	r2, [r3, #4]
 8001e36:	609a      	str	r2, [r3, #8]
 8001e38:	60da      	str	r2, [r3, #12]
  if(hspi->Instance==SPI1)
 8001e3a:	687b      	ldr	r3, [r7, #4]
 8001e3c:	681b      	ldr	r3, [r3, #0]
 8001e3e:	4a15      	ldr	r2, [pc, #84]	@ (8001e94 <HAL_SPI_MspInit+0x70>)
 8001e40:	4293      	cmp	r3, r2
 8001e42:	d123      	bne.n	8001e8c <HAL_SPI_MspInit+0x68>
  {
    /* USER CODE BEGIN SPI1_MspInit 0 */

    /* USER CODE END SPI1_MspInit 0 */
    /* Peripheral clock enable */
    __HAL_RCC_SPI1_CLK_ENABLE();
 8001e44:	4b14      	ldr	r3, [pc, #80]	@ (8001e98 <HAL_SPI_MspInit+0x74>)
 8001e46:	699b      	ldr	r3, [r3, #24]
 8001e48:	4a13      	ldr	r2, [pc, #76]	@ (8001e98 <HAL_SPI_MspInit+0x74>)
 8001e4a:	f443 5380 	orr.w	r3, r3, #4096	@ 0x1000
 8001e4e:	6193      	str	r3, [r2, #24]
 8001e50:	4b11      	ldr	r3, [pc, #68]	@ (8001e98 <HAL_SPI_MspInit+0x74>)
 8001e52:	699b      	ldr	r3, [r3, #24]
 8001e54:	f403 5380 	and.w	r3, r3, #4096	@ 0x1000
 8001e58:	60fb      	str	r3, [r7, #12]
 8001e5a:	68fb      	ldr	r3, [r7, #12]

    __HAL_RCC_GPIOA_CLK_ENABLE();
 8001e5c:	4b0e      	ldr	r3, [pc, #56]	@ (8001e98 <HAL_SPI_MspInit+0x74>)
 8001e5e:	699b      	ldr	r3, [r3, #24]
 8001e60:	4a0d      	ldr	r2, [pc, #52]	@ (8001e98 <HAL_SPI_MspInit+0x74>)
 8001e62:	f043 0304 	orr.w	r3, r3, #4
 8001e66:	6193      	str	r3, [r2, #24]
 8001e68:	4b0b      	ldr	r3, [pc, #44]	@ (8001e98 <HAL_SPI_MspInit+0x74>)
 8001e6a:	699b      	ldr	r3, [r3, #24]
 8001e6c:	f003 0304 	and.w	r3, r3, #4
 8001e70:	60bb      	str	r3, [r7, #8]
 8001e72:	68bb      	ldr	r3, [r7, #8]
    /**SPI1 GPIO Configuration
    PA5     ------> SPI1_SCK
    PA7     ------> SPI1_MOSI
    */
    GPIO_InitStruct.Pin = GPIO_PIN_5|GPIO_PIN_7;
 8001e74:	23a0      	movs	r3, #160	@ 0xa0
 8001e76:	613b      	str	r3, [r7, #16]
    GPIO_InitStruct.Mode = GPIO_MODE_AF_PP;
 8001e78:	2302      	movs	r3, #2
 8001e7a:	617b      	str	r3, [r7, #20]
    GPIO_InitStruct.Speed = GPIO_SPEED_FREQ_HIGH;
 8001e7c:	2303      	movs	r3, #3
 8001e7e:	61fb      	str	r3, [r7, #28]
    HAL_GPIO_Init(GPIOA, &GPIO_InitStruct);
 8001e80:	f107 0310 	add.w	r3, r7, #16
 8001e84:	4619      	mov	r1, r3
 8001e86:	4805      	ldr	r0, [pc, #20]	@ (8001e9c <HAL_SPI_MspInit+0x78>)
 8001e88:	f001 fa4c 	bl	8003324 <HAL_GPIO_Init>

    /* USER CODE END SPI1_MspInit 1 */

  }

}
 8001e8c:	bf00      	nop
 8001e8e:	3720      	adds	r7, #32
 8001e90:	46bd      	mov	sp, r7
 8001e92:	bd80      	pop	{r7, pc}
 8001e94:	40013000 	.word	0x40013000
 8001e98:	40021000 	.word	0x40021000
 8001e9c:	40010800 	.word	0x40010800

08001ea0 <HAL_TIM_Base_MspInit>:
  * This function configures the hardware resources used in this example
  * @param htim_base: TIM_Base handle pointer
  * @retval None
  */
void HAL_TIM_Base_MspInit(TIM_HandleTypeDef* htim_base)
{
 8001ea0:	b480      	push	{r7}
 8001ea2:	b085      	sub	sp, #20
 8001ea4:	af00      	add	r7, sp, #0
 8001ea6:	6078      	str	r0, [r7, #4]
  if(htim_base->Instance==TIM4)
 8001ea8:	687b      	ldr	r3, [r7, #4]
 8001eaa:	681b      	ldr	r3, [r3, #0]
 8001eac:	4a09      	ldr	r2, [pc, #36]	@ (8001ed4 <HAL_TIM_Base_MspInit+0x34>)
 8001eae:	4293      	cmp	r3, r2
 8001eb0:	d10b      	bne.n	8001eca <HAL_TIM_Base_MspInit+0x2a>
  {
    /* USER CODE BEGIN TIM4_MspInit 0 */

    /* USER CODE END TIM4_MspInit 0 */
    /* Peripheral clock enable */
    __HAL_RCC_TIM4_CLK_ENABLE();
 8001eb2:	4b09      	ldr	r3, [pc, #36]	@ (8001ed8 <HAL_TIM_Base_MspInit+0x38>)
 8001eb4:	69db      	ldr	r3, [r3, #28]
 8001eb6:	4a08      	ldr	r2, [pc, #32]	@ (8001ed8 <HAL_TIM_Base_MspInit+0x38>)
 8001eb8:	f043 0304 	orr.w	r3, r3, #4
 8001ebc:	61d3      	str	r3, [r2, #28]
 8001ebe:	4b06      	ldr	r3, [pc, #24]	@ (8001ed8 <HAL_TIM_Base_MspInit+0x38>)
 8001ec0:	69db      	ldr	r3, [r3, #28]
 8001ec2:	f003 0304 	and.w	r3, r3, #4
 8001ec6:	60fb      	str	r3, [r7, #12]
 8001ec8:	68fb      	ldr	r3, [r7, #12]

    /* USER CODE END TIM4_MspInit 1 */

  }

}
 8001eca:	bf00      	nop
 8001ecc:	3714      	adds	r7, #20
 8001ece:	46bd      	mov	sp, r7
 8001ed0:	bc80      	pop	{r7}
 8001ed2:	4770      	bx	lr
 8001ed4:	40000800 	.word	0x40000800
 8001ed8:	40021000 	.word	0x40021000

08001edc <HAL_UART_MspInit>:
  * This function configures the hardware resources used in this example
  * @param huart: UART handle pointer
  * @retval None
  */
void HAL_UART_MspInit(UART_HandleTypeDef* huart)
{
 8001edc:	b580      	push	{r7, lr}
 8001ede:	b088      	sub	sp, #32
 8001ee0:	af00      	add	r7, sp, #0
 8001ee2:	6078      	str	r0, [r7, #4]
  GPIO_InitTypeDef GPIO_InitStruct = {0};
 8001ee4:	f107 0310 	add.w	r3, r7, #16
 8001ee8:	2200      	movs	r2, #0
 8001eea:	601a      	str	r2, [r3, #0]
 8001eec:	605a      	str	r2, [r3, #4]
 8001eee:	609a      	str	r2, [r3, #8]
 8001ef0:	60da      	str	r2, [r3, #12]
  if(huart->Instance==USART1)
 8001ef2:	687b      	ldr	r3, [r7, #4]
 8001ef4:	681b      	ldr	r3, [r3, #0]
 8001ef6:	4a1c      	ldr	r2, [pc, #112]	@ (8001f68 <HAL_UART_MspInit+0x8c>)
 8001ef8:	4293      	cmp	r3, r2
 8001efa:	d131      	bne.n	8001f60 <HAL_UART_MspInit+0x84>
  {
    /* USER CODE BEGIN USART1_MspInit 0 */

    /* USER CODE END USART1_MspInit 0 */
    /* Peripheral clock enable */
    __HAL_RCC_USART1_CLK_ENABLE();
 8001efc:	4b1b      	ldr	r3, [pc, #108]	@ (8001f6c <HAL_UART_MspInit+0x90>)
 8001efe:	699b      	ldr	r3, [r3, #24]
 8001f00:	4a1a      	ldr	r2, [pc, #104]	@ (8001f6c <HAL_UART_MspInit+0x90>)
 8001f02:	f443 4380 	orr.w	r3, r3, #16384	@ 0x4000
 8001f06:	6193      	str	r3, [r2, #24]
 8001f08:	4b18      	ldr	r3, [pc, #96]	@ (8001f6c <HAL_UART_MspInit+0x90>)
 8001f0a:	699b      	ldr	r3, [r3, #24]
 8001f0c:	f403 4380 	and.w	r3, r3, #16384	@ 0x4000
 8001f10:	60fb      	str	r3, [r7, #12]
 8001f12:	68fb      	ldr	r3, [r7, #12]

    __HAL_RCC_GPIOA_CLK_ENABLE();
 8001f14:	4b15      	ldr	r3, [pc, #84]	@ (8001f6c <HAL_UART_MspInit+0x90>)
 8001f16:	699b      	ldr	r3, [r3, #24]
 8001f18:	4a14      	ldr	r2, [pc, #80]	@ (8001f6c <HAL_UART_MspInit+0x90>)
 8001f1a:	f043 0304 	orr.w	r3, r3, #4
 8001f1e:	6193      	str	r3, [r2, #24]
 8001f20:	4b12      	ldr	r3, [pc, #72]	@ (8001f6c <HAL_UART_MspInit+0x90>)
 8001f22:	699b      	ldr	r3, [r3, #24]
 8001f24:	f003 0304 	and.w	r3, r3, #4
 8001f28:	60bb      	str	r3, [r7, #8]
 8001f2a:	68bb      	ldr	r3, [r7, #8]
    /**USART1 GPIO Configuration
    PA9     ------> USART1_TX
    PA10     ------> USART1_RX
    */
    GPIO_InitStruct.Pin = GPIO_PIN_9;
 8001f2c:	f44f 7300 	mov.w	r3, #512	@ 0x200
 8001f30:	613b      	str	r3, [r7, #16]
    GPIO_InitStruct.Mode = GPIO_MODE_AF_PP;
 8001f32:	2302      	movs	r3, #2
 8001f34:	617b      	str	r3, [r7, #20]
    GPIO_InitStruct.Speed = GPIO_SPEED_FREQ_HIGH;
 8001f36:	2303      	movs	r3, #3
 8001f38:	61fb      	str	r3, [r7, #28]
    HAL_GPIO_Init(GPIOA, &GPIO_InitStruct);
 8001f3a:	f107 0310 	add.w	r3, r7, #16
 8001f3e:	4619      	mov	r1, r3
 8001f40:	480b      	ldr	r0, [pc, #44]	@ (8001f70 <HAL_UART_MspInit+0x94>)
 8001f42:	f001 f9ef 	bl	8003324 <HAL_GPIO_Init>

    GPIO_InitStruct.Pin = GPIO_PIN_10;
 8001f46:	f44f 6380 	mov.w	r3, #1024	@ 0x400
 8001f4a:	613b      	str	r3, [r7, #16]
    GPIO_InitStruct.Mode = GPIO_MODE_INPUT;
 8001f4c:	2300      	movs	r3, #0
 8001f4e:	617b      	str	r3, [r7, #20]
    GPIO_InitStruct.Pull = GPIO_NOPULL;
 8001f50:	2300      	movs	r3, #0
 8001f52:	61bb      	str	r3, [r7, #24]
    HAL_GPIO_Init(GPIOA, &GPIO_InitStruct);
 8001f54:	f107 0310 	add.w	r3, r7, #16
 8001f58:	4619      	mov	r1, r3
 8001f5a:	4805      	ldr	r0, [pc, #20]	@ (8001f70 <HAL_UART_MspInit+0x94>)
 8001f5c:	f001 f9e2 	bl	8003324 <HAL_GPIO_Init>

    /* USER CODE END USART1_MspInit 1 */

  }

}
 8001f60:	bf00      	nop
 8001f62:	3720      	adds	r7, #32
 8001f64:	46bd      	mov	sp, r7
 8001f66:	bd80      	pop	{r7, pc}
 8001f68:	40013800 	.word	0x40013800
 8001f6c:	40021000 	.word	0x40021000
 8001f70:	40010800 	.word	0x40010800

08001f74 <NMI_Handler>:
/******************************************************************************/
/**
  * @brief This function handles Non maskable interrupt.
  */
void NMI_Handler(void)
{
 8001f74:	b580      	push	{r7, lr}
 8001f76:	af00      	add	r7, sp, #0
  /* USER CODE BEGIN NonMaskableInt_IRQn 0 */

  /* USER CODE END NonMaskableInt_IRQn 0 */
  HAL_RCC_NMI_IRQHandler();
 8001f78:	f001 ff6e 	bl	8003e58 <HAL_RCC_NMI_IRQHandler>
  /* USER CODE BEGIN NonMaskableInt_IRQn 1 */
   while (1)
 8001f7c:	bf00      	nop
 8001f7e:	e7fd      	b.n	8001f7c <NMI_Handler+0x8>

08001f80 <HardFault_Handler>:

/**
  * @brief This function handles Hard fault interrupt.
  */
void HardFault_Handler(void)
{
 8001f80:	b480      	push	{r7}
 8001f82:	af00      	add	r7, sp, #0
  /* USER CODE BEGIN HardFault_IRQn 0 */

  /* USER CODE END HardFault_IRQn 0 */
  while (1)
 8001f84:	bf00      	nop
 8001f86:	e7fd      	b.n	8001f84 <HardFault_Handler+0x4>

08001f88 <MemManage_Handler>:

/**
  * @brief This function handles Memory management fault.
  */
void MemManage_Handler(void)
{
 8001f88:	b480      	push	{r7}
 8001f8a:	af00      	add	r7, sp, #0
  /* USER CODE BEGIN MemoryManagement_IRQn 0 */

  /* USER CODE END MemoryManagement_IRQn 0 */
  while (1)
 8001f8c:	bf00      	nop
 8001f8e:	e7fd      	b.n	8001f8c <MemManage_Handler+0x4>

08001f90 <BusFault_Handler>:

/**
  * @brief This function handles Prefetch fault, memory access fault.
  */
void BusFault_Handler(void)
{
 8001f90:	b480      	push	{r7}
 8001f92:	af00      	add	r7, sp, #0
  /* USER CODE BEGIN BusFault_IRQn 0 */

  /* USER CODE END BusFault_IRQn 0 */
  while (1)
 8001f94:	bf00      	nop
 8001f96:	e7fd      	b.n	8001f94 <BusFault_Handler+0x4>

08001f98 <UsageFault_Handler>:

/**
  * @brief This function handles Undefined instruction or illegal state.
  */
void UsageFault_Handler(void)
{
 8001f98:	b480      	push	{r7}
 8001f9a:	af00      	add	r7, sp, #0
  /* USER CODE BEGIN UsageFault_IRQn 0 */

  /* USER CODE END UsageFault_IRQn 0 */
  while (1)
 8001f9c:	bf00      	nop
 8001f9e:	e7fd      	b.n	8001f9c <UsageFault_Handler+0x4>

08001fa0 <SVC_Handler>:

/**
  * @brief This function handles System service call via SWI instruction.
  */
void SVC_Handler(void)
{
 8001fa0:	b480      	push	{r7}
 8001fa2:	af00      	add	r7, sp, #0

  /* USER CODE END SVCall_IRQn 0 */
  /* USER CODE BEGIN SVCall_IRQn 1 */

  /* USER CODE END SVCall_IRQn 1 */
}
 8001fa4:	bf00      	nop
 8001fa6:	46bd      	mov	sp, r7
 8001fa8:	bc80      	pop	{r7}
 8001faa:	4770      	bx	lr

08001fac <DebugMon_Handler>:

/**
  * @brief This function handles Debug monitor.
  */
void DebugMon_Handler(void)
{
 8001fac:	b480      	push	{r7}
 8001fae:	af00      	add	r7, sp, #0

  /* USER CODE END DebugMonitor_IRQn 0 */
  /* USER CODE BEGIN DebugMonitor_IRQn 1 */

  /* USER CODE END DebugMonitor_IRQn 1 */
}
 8001fb0:	bf00      	nop
 8001fb2:	46bd      	mov	sp, r7
 8001fb4:	bc80      	pop	{r7}
 8001fb6:	4770      	bx	lr

08001fb8 <PendSV_Handler>:

/**
  * @brief This function handles Pendable request for system service.
  */
void PendSV_Handler(void)
{
 8001fb8:	b480      	push	{r7}
 8001fba:	af00      	add	r7, sp, #0

  /* USER CODE END PendSV_IRQn 0 */
  /* USER CODE BEGIN PendSV_IRQn 1 */

  /* USER CODE END PendSV_IRQn 1 */
}
 8001fbc:	bf00      	nop
 8001fbe:	46bd      	mov	sp, r7
 8001fc0:	bc80      	pop	{r7}
 8001fc2:	4770      	bx	lr

08001fc4 <SysTick_Handler>:

/**
  * @brief This function handles System tick timer.
  */
void SysTick_Handler(void)
{
 8001fc4:	b580      	push	{r7, lr}
 8001fc6:	af00      	add	r7, sp, #0
  /* USER CODE BEGIN SysTick_IRQn 0 */

  /* USER CODE END SysTick_IRQn 0 */
  HAL_IncTick();
 8001fc8:	f000 f8aa 	bl	8002120 <HAL_IncTick>
  /* USER CODE BEGIN SysTick_IRQn 1 */

  /* USER CODE END SysTick_IRQn 1 */
}
 8001fcc:	bf00      	nop
 8001fce:	bd80      	pop	{r7, pc}

08001fd0 <_sbrk>:
 *
 * @param incr Memory size
 * @return Pointer to allocated memory
 */
void *_sbrk(ptrdiff_t incr)
{
 8001fd0:	b580      	push	{r7, lr}
 8001fd2:	b086      	sub	sp, #24
 8001fd4:	af00      	add	r7, sp, #0
 8001fd6:	6078      	str	r0, [r7, #4]
  extern uint8_t _end; /* Symbol defined in the linker script */
  extern uint8_t _estack; /* Symbol defined in the linker script */
  extern uint32_t _Min_Stack_Size; /* Symbol defined in the linker script */
  const uint32_t stack_limit = (uint32_t)&_estack - (uint32_t)&_Min_Stack_Size;
 8001fd8:	4a14      	ldr	r2, [pc, #80]	@ (800202c <_sbrk+0x5c>)
 8001fda:	4b15      	ldr	r3, [pc, #84]	@ (8002030 <_sbrk+0x60>)
 8001fdc:	1ad3      	subs	r3, r2, r3
 8001fde:	617b      	str	r3, [r7, #20]
  const uint8_t *max_heap = (uint8_t *)stack_limit;
 8001fe0:	697b      	ldr	r3, [r7, #20]
 8001fe2:	613b      	str	r3, [r7, #16]
  uint8_t *prev_heap_end;

  /* Initialize heap end at first call */
  if (NULL == __sbrk_heap_end)
 8001fe4:	4b13      	ldr	r3, [pc, #76]	@ (8002034 <_sbrk+0x64>)
 8001fe6:	681b      	ldr	r3, [r3, #0]
 8001fe8:	2b00      	cmp	r3, #0
 8001fea:	d102      	bne.n	8001ff2 <_sbrk+0x22>
  {
    __sbrk_heap_end = &_end;
 8001fec:	4b11      	ldr	r3, [pc, #68]	@ (8002034 <_sbrk+0x64>)
 8001fee:	4a12      	ldr	r2, [pc, #72]	@ (8002038 <_sbrk+0x68>)
 8001ff0:	601a      	str	r2, [r3, #0]
  }

  /* Protect heap from growing into the reserved MSP stack */
  if (__sbrk_heap_end + incr > max_heap)
 8001ff2:	4b10      	ldr	r3, [pc, #64]	@ (8002034 <_sbrk+0x64>)
 8001ff4:	681a      	ldr	r2, [r3, #0]
 8001ff6:	687b      	ldr	r3, [r7, #4]
 8001ff8:	4413      	add	r3, r2
 8001ffa:	693a      	ldr	r2, [r7, #16]
 8001ffc:	429a      	cmp	r2, r3
 8001ffe:	d207      	bcs.n	8002010 <_sbrk+0x40>
  {
    errno = ENOMEM;
 8002000:	f003 fbe6 	bl	80057d0 <__errno>
 8002004:	4603      	mov	r3, r0
 8002006:	220c      	movs	r2, #12
 8002008:	601a      	str	r2, [r3, #0]
    return (void *)-1;
 800200a:	f04f 33ff 	mov.w	r3, #4294967295	@ 0xffffffff
 800200e:	e009      	b.n	8002024 <_sbrk+0x54>
  }

  prev_heap_end = __sbrk_heap_end;
 8002010:	4b08      	ldr	r3, [pc, #32]	@ (8002034 <_sbrk+0x64>)
 8002012:	681b      	ldr	r3, [r3, #0]
 8002014:	60fb      	str	r3, [r7, #12]
  __sbrk_heap_end += incr;
 8002016:	4b07      	ldr	r3, [pc, #28]	@ (8002034 <_sbrk+0x64>)
 8002018:	681a      	ldr	r2, [r3, #0]
 800201a:	687b      	ldr	r3, [r7, #4]
 800201c:	4413      	add	r3, r2
 800201e:	4a05      	ldr	r2, [pc, #20]	@ (8002034 <_sbrk+0x64>)
 8002020:	6013      	str	r3, [r2, #0]

  return (void *)prev_heap_end;
 8002022:	68fb      	ldr	r3, [r7, #12]
}
 8002024:	4618      	mov	r0, r3
 8002026:	3718      	adds	r7, #24
 8002028:	46bd      	mov	sp, r7
 800202a:	bd80      	pop	{r7, pc}
 800202c:	20005000 	.word	0x20005000
 8002030:	00000400 	.word	0x00000400
 8002034:	2000035c 	.word	0x2000035c
 8002038:	20000560 	.word	0x20000560

0800203c <SystemInit>:
  * @note   This function should be used only after reset.
  * @param  None
  * @retval None
  */
void SystemInit (void)
{
 800203c:	b480      	push	{r7}
 800203e:	af00      	add	r7, sp, #0

  /* Configure the Vector Table location -------------------------------------*/
#if defined(USER_VECT_TAB_ADDRESS)
  SCB->VTOR = VECT_TAB_BASE_ADDRESS | VECT_TAB_OFFSET; /* Vector Table Relocation in Internal SRAM. */
#endif /* USER_VECT_TAB_ADDRESS */
}
 8002040:	bf00      	nop
 8002042:	46bd      	mov	sp, r7
 8002044:	bc80      	pop	{r7}
 8002046:	4770      	bx	lr

08002048 <Reset_Handler>:
  .weak Reset_Handler
  .type Reset_Handler, %function
Reset_Handler:

/* Call the clock system initialization function.*/
    bl  SystemInit
 8002048:	f7ff fff8 	bl	800203c <SystemInit>

/* Copy the data segment initializers from flash to SRAM */
  ldr r0, =_sdata
 800204c:	480b      	ldr	r0, [pc, #44]	@ (800207c <LoopFillZerobss+0xe>)
  ldr r1, =_edata
 800204e:	490c      	ldr	r1, [pc, #48]	@ (8002080 <LoopFillZerobss+0x12>)
  ldr r2, =_sidata
 8002050:	4a0c      	ldr	r2, [pc, #48]	@ (8002084 <LoopFillZerobss+0x16>)
  movs r3, #0
 8002052:	2300      	movs	r3, #0
  b LoopCopyDataInit
 8002054:	e002      	b.n	800205c <LoopCopyDataInit>

08002056 <CopyDataInit>:

CopyDataInit:
  ldr r4, [r2, r3]
 8002056:	58d4      	ldr	r4, [r2, r3]
  str r4, [r0, r3]
 8002058:	50c4      	str	r4, [r0, r3]
  adds r3, r3, #4
 800205a:	3304      	adds	r3, #4

0800205c <LoopCopyDataInit>:

LoopCopyDataInit:
  adds r4, r0, r3
 800205c:	18c4      	adds	r4, r0, r3
  cmp r4, r1
 800205e:	428c      	cmp	r4, r1
  bcc CopyDataInit
 8002060:	d3f9      	bcc.n	8002056 <CopyDataInit>
  
/* Zero fill the bss segment. */
  ldr r2, =_sbss
 8002062:	4a09      	ldr	r2, [pc, #36]	@ (8002088 <LoopFillZerobss+0x1a>)
  ldr r4, =_ebss
 8002064:	4c09      	ldr	r4, [pc, #36]	@ (800208c <LoopFillZerobss+0x1e>)
  movs r3, #0
 8002066:	2300      	movs	r3, #0
  b LoopFillZerobss
 8002068:	e001      	b.n	800206e <LoopFillZerobss>

0800206a <FillZerobss>:

FillZerobss:
  str  r3, [r2]
 800206a:	6013      	str	r3, [r2, #0]
  adds r2, r2, #4
 800206c:	3204      	adds	r2, #4

0800206e <LoopFillZerobss>:

LoopFillZerobss:
  cmp r2, r4
 800206e:	42a2      	cmp	r2, r4
  bcc FillZerobss
 8002070:	d3fb      	bcc.n	800206a <FillZerobss>

/* Call static constructors */
    bl __libc_init_array
 8002072:	f003 fbb3 	bl	80057dc <__libc_init_array>
/* Call the application's entry point.*/
  bl main
 8002076:	f7ff fbed 	bl	8001854 <main>
  bx lr
 800207a:	4770      	bx	lr
  ldr r0, =_sdata
 800207c:	20000000 	.word	0x20000000
  ldr r1, =_edata
 8002080:	200001dc 	.word	0x200001dc
  ldr r2, =_sidata
 8002084:	08008194 	.word	0x08008194
  ldr r2, =_sbss
 8002088:	200001dc 	.word	0x200001dc
  ldr r4, =_ebss
 800208c:	2000055c 	.word	0x2000055c

08002090 <ADC1_2_IRQHandler>:
 * @retval : None
*/
    .section .text.Default_Handler,"ax",%progbits
Default_Handler:
Infinite_Loop:
  b Infinite_Loop
 8002090:	e7fe      	b.n	8002090 <ADC1_2_IRQHandler>
	...

08002094 <HAL_Init>:
  *         need to ensure that the SysTick time base is always set to 1 millisecond
  *         to have correct HAL operation.
  * @retval HAL status
  */
HAL_StatusTypeDef HAL_Init(void)
{
 8002094:	b580      	push	{r7, lr}
 8002096:	af00      	add	r7, sp, #0
    defined(STM32F102x6) || defined(STM32F102xB) || \
    defined(STM32F103x6) || defined(STM32F103xB) || defined(STM32F103xE) || defined(STM32F103xG) || \
    defined(STM32F105xC) || defined(STM32F107xC)

  /* Prefetch buffer is not available on value line devices */
  __HAL_FLASH_PREFETCH_BUFFER_ENABLE();
 8002098:	4b08      	ldr	r3, [pc, #32]	@ (80020bc <HAL_Init+0x28>)
 800209a:	681b      	ldr	r3, [r3, #0]
 800209c:	4a07      	ldr	r2, [pc, #28]	@ (80020bc <HAL_Init+0x28>)
 800209e:	f043 0310 	orr.w	r3, r3, #16
 80020a2:	6013      	str	r3, [r2, #0]
#endif
#endif /* PREFETCH_ENABLE */

  /* Set Interrupt Group Priority */
  HAL_NVIC_SetPriorityGrouping(NVIC_PRIORITYGROUP_4);
 80020a4:	2003      	movs	r0, #3
 80020a6:	f001 f909 	bl	80032bc <HAL_NVIC_SetPriorityGrouping>

  /* Use systick as time base source and configure 1ms tick (default clock after Reset is HSI) */
  HAL_InitTick(TICK_INT_PRIORITY);
 80020aa:	200f      	movs	r0, #15
 80020ac:	f000 f808 	bl	80020c0 <HAL_InitTick>

  /* Init the low level hardware */
  HAL_MspInit();
 80020b0:	f7ff fdfe 	bl	8001cb0 <HAL_MspInit>

  /* Return function status */
  return HAL_OK;
 80020b4:	2300      	movs	r3, #0
}
 80020b6:	4618      	mov	r0, r3
 80020b8:	bd80      	pop	{r7, pc}
 80020ba:	bf00      	nop
 80020bc:	40022000 	.word	0x40022000

080020c0 <HAL_InitTick>:
  *       implementation  in user file.
  * @param TickPriority Tick interrupt priority.
  * @retval HAL status
  */
__weak HAL_StatusTypeDef HAL_InitTick(uint32_t TickPriority)
{
 80020c0:	b580      	push	{r7, lr}
 80020c2:	b082      	sub	sp, #8
 80020c4:	af00      	add	r7, sp, #0
 80020c6:	6078      	str	r0, [r7, #4]
  /* Configure the SysTick to have interrupt in 1ms time basis*/
  if (HAL_SYSTICK_Config(SystemCoreClock / (1000U / uwTickFreq)) > 0U)
 80020c8:	4b12      	ldr	r3, [pc, #72]	@ (8002114 <HAL_InitTick+0x54>)
 80020ca:	681a      	ldr	r2, [r3, #0]
 80020cc:	4b12      	ldr	r3, [pc, #72]	@ (8002118 <HAL_InitTick+0x58>)
 80020ce:	781b      	ldrb	r3, [r3, #0]
 80020d0:	4619      	mov	r1, r3
 80020d2:	f44f 737a 	mov.w	r3, #1000	@ 0x3e8
 80020d6:	fbb3 f3f1 	udiv	r3, r3, r1
 80020da:	fbb2 f3f3 	udiv	r3, r2, r3
 80020de:	4618      	mov	r0, r3
 80020e0:	f001 f913 	bl	800330a <HAL_SYSTICK_Config>
 80020e4:	4603      	mov	r3, r0
 80020e6:	2b00      	cmp	r3, #0
 80020e8:	d001      	beq.n	80020ee <HAL_InitTick+0x2e>
  {
    return HAL_ERROR;
 80020ea:	2301      	movs	r3, #1
 80020ec:	e00e      	b.n	800210c <HAL_InitTick+0x4c>
  }

  /* Configure the SysTick IRQ priority */
  if (TickPriority < (1UL << __NVIC_PRIO_BITS))
 80020ee:	687b      	ldr	r3, [r7, #4]
 80020f0:	2b0f      	cmp	r3, #15
 80020f2:	d80a      	bhi.n	800210a <HAL_InitTick+0x4a>
  {
    HAL_NVIC_SetPriority(SysTick_IRQn, TickPriority, 0U);
 80020f4:	2200      	movs	r2, #0
 80020f6:	6879      	ldr	r1, [r7, #4]
 80020f8:	f04f 30ff 	mov.w	r0, #4294967295	@ 0xffffffff
 80020fc:	f001 f8e9 	bl	80032d2 <HAL_NVIC_SetPriority>
    uwTickPrio = TickPriority;
 8002100:	4a06      	ldr	r2, [pc, #24]	@ (800211c <HAL_InitTick+0x5c>)
 8002102:	687b      	ldr	r3, [r7, #4]
 8002104:	6013      	str	r3, [r2, #0]
  {
    return HAL_ERROR;
  }

  /* Return function status */
  return HAL_OK;
 8002106:	2300      	movs	r3, #0
 8002108:	e000      	b.n	800210c <HAL_InitTick+0x4c>
    return HAL_ERROR;
 800210a:	2301      	movs	r3, #1
}
 800210c:	4618      	mov	r0, r3
 800210e:	3708      	adds	r7, #8
 8002110:	46bd      	mov	sp, r7
 8002112:	bd80      	pop	{r7, pc}
 8002114:	20000000 	.word	0x20000000
 8002118:	20000008 	.word	0x20000008
 800211c:	20000004 	.word	0x20000004

08002120 <HAL_IncTick>:
  * @note This function is declared as __weak to be overwritten in case of other
  *      implementations in user file.
  * @retval None
  */
__weak void HAL_IncTick(void)
{
 8002120:	b480      	push	{r7}
 8002122:	af00      	add	r7, sp, #0
  uwTick += uwTickFreq;
 8002124:	4b05      	ldr	r3, [pc, #20]	@ (800213c <HAL_IncTick+0x1c>)
 8002126:	781b      	ldrb	r3, [r3, #0]
 8002128:	461a      	mov	r2, r3
 800212a:	4b05      	ldr	r3, [pc, #20]	@ (8002140 <HAL_IncTick+0x20>)
 800212c:	681b      	ldr	r3, [r3, #0]
 800212e:	4413      	add	r3, r2
 8002130:	4a03      	ldr	r2, [pc, #12]	@ (8002140 <HAL_IncTick+0x20>)
 8002132:	6013      	str	r3, [r2, #0]
}
 8002134:	bf00      	nop
 8002136:	46bd      	mov	sp, r7
 8002138:	bc80      	pop	{r7}
 800213a:	4770      	bx	lr
 800213c:	20000008 	.word	0x20000008
 8002140:	20000360 	.word	0x20000360

08002144 <HAL_GetTick>:
  * @note  This function is declared as __weak to be overwritten in case of other
  *       implementations in user file.
  * @retval tick value
  */
__weak uint32_t HAL_GetTick(void)
{
 8002144:	b480      	push	{r7}
 8002146:	af00      	add	r7, sp, #0
  return uwTick;
 8002148:	4b02      	ldr	r3, [pc, #8]	@ (8002154 <HAL_GetTick+0x10>)
 800214a:	681b      	ldr	r3, [r3, #0]
}
 800214c:	4618      	mov	r0, r3
 800214e:	46bd      	mov	sp, r7
 8002150:	bc80      	pop	{r7}
 8002152:	4770      	bx	lr
 8002154:	20000360 	.word	0x20000360

08002158 <HAL_Delay>:
  *       implementations in user file.
  * @param Delay specifies the delay time length, in milliseconds.
  * @retval None
  */
__weak void HAL_Delay(uint32_t Delay)
{
 8002158:	b580      	push	{r7, lr}
 800215a:	b084      	sub	sp, #16
 800215c:	af00      	add	r7, sp, #0
 800215e:	6078      	str	r0, [r7, #4]
  uint32_t tickstart = HAL_GetTick();
 8002160:	f7ff fff0 	bl	8002144 <HAL_GetTick>
 8002164:	60b8      	str	r0, [r7, #8]
  uint32_t wait = Delay;
 8002166:	687b      	ldr	r3, [r7, #4]
 8002168:	60fb      	str	r3, [r7, #12]

  /* Add a freq to guarantee minimum wait */
  if (wait < HAL_MAX_DELAY)
 800216a:	68fb      	ldr	r3, [r7, #12]
 800216c:	f1b3 3fff 	cmp.w	r3, #4294967295	@ 0xffffffff
 8002170:	d005      	beq.n	800217e <HAL_Delay+0x26>
  {
    wait += (uint32_t)(uwTickFreq);
 8002172:	4b0a      	ldr	r3, [pc, #40]	@ (800219c <HAL_Delay+0x44>)
 8002174:	781b      	ldrb	r3, [r3, #0]
 8002176:	461a      	mov	r2, r3
 8002178:	68fb      	ldr	r3, [r7, #12]
 800217a:	4413      	add	r3, r2
 800217c:	60fb      	str	r3, [r7, #12]
  }

  while ((HAL_GetTick() - tickstart) < wait)
 800217e:	bf00      	nop
 8002180:	f7ff ffe0 	bl	8002144 <HAL_GetTick>
 8002184:	4602      	mov	r2, r0
 8002186:	68bb      	ldr	r3, [r7, #8]
 8002188:	1ad3      	subs	r3, r2, r3
 800218a:	68fa      	ldr	r2, [r7, #12]
 800218c:	429a      	cmp	r2, r3
 800218e:	d8f7      	bhi.n	8002180 <HAL_Delay+0x28>
  {
  }
}
 8002190:	bf00      	nop
 8002192:	bf00      	nop
 8002194:	3710      	adds	r7, #16
 8002196:	46bd      	mov	sp, r7
 8002198:	bd80      	pop	{r7, pc}
 800219a:	bf00      	nop
 800219c:	20000008 	.word	0x20000008

080021a0 <HAL_ADC_Init>:
  *         of structure "ADC_InitTypeDef".
  * @param  hadc: ADC handle
  * @retval HAL status
  */
HAL_StatusTypeDef HAL_ADC_Init(ADC_HandleTypeDef* hadc)
{
 80021a0:	b580      	push	{r7, lr}
 80021a2:	b086      	sub	sp, #24
 80021a4:	af00      	add	r7, sp, #0
 80021a6:	6078      	str	r0, [r7, #4]
  HAL_StatusTypeDef tmp_hal_status = HAL_OK;
 80021a8:	2300      	movs	r3, #0
 80021aa:	75fb      	strb	r3, [r7, #23]
  uint32_t tmp_cr1 = 0U;
 80021ac:	2300      	movs	r3, #0
 80021ae:	613b      	str	r3, [r7, #16]
  uint32_t tmp_cr2 = 0U;
 80021b0:	2300      	movs	r3, #0
 80021b2:	60bb      	str	r3, [r7, #8]
  uint32_t tmp_sqr1 = 0U;
 80021b4:	2300      	movs	r3, #0
 80021b6:	60fb      	str	r3, [r7, #12]
  
  /* Check ADC handle */
  if(hadc == NULL)
 80021b8:	687b      	ldr	r3, [r7, #4]
 80021ba:	2b00      	cmp	r3, #0
 80021bc:	d101      	bne.n	80021c2 <HAL_ADC_Init+0x22>
  {
    return HAL_ERROR;
 80021be:	2301      	movs	r3, #1
 80021c0:	e0be      	b.n	8002340 <HAL_ADC_Init+0x1a0>
  assert_param(IS_ADC_DATA_ALIGN(hadc->Init.DataAlign));
  assert_param(IS_ADC_SCAN_MODE(hadc->Init.ScanConvMode));
  assert_param(IS_FUNCTIONAL_STATE(hadc->Init.ContinuousConvMode));
  assert_param(IS_ADC_EXTTRIG(hadc->Init.ExternalTrigConv));
  
  if(hadc->Init.ScanConvMode != ADC_SCAN_DISABLE)
 80021c2:	687b      	ldr	r3, [r7, #4]
 80021c4:	689b      	ldr	r3, [r3, #8]
 80021c6:	2b00      	cmp	r3, #0
  /* Refer to header of this file for more details on clock enabling          */
  /* procedure.                                                               */

  /* Actions performed only if ADC is coming from state reset:                */
  /* - Initialization of ADC MSP                                              */
  if (hadc->State == HAL_ADC_STATE_RESET)
 80021c8:	687b      	ldr	r3, [r7, #4]
 80021ca:	6a9b      	ldr	r3, [r3, #40]	@ 0x28
 80021cc:	2b00      	cmp	r3, #0
 80021ce:	d109      	bne.n	80021e4 <HAL_ADC_Init+0x44>
  {
    /* Initialize ADC error code */
    ADC_CLEAR_ERRORCODE(hadc);
 80021d0:	687b      	ldr	r3, [r7, #4]
 80021d2:	2200      	movs	r2, #0
 80021d4:	62da      	str	r2, [r3, #44]	@ 0x2c
    
    /* Allocate lock resource and initialize it */
    hadc->Lock = HAL_UNLOCKED;
 80021d6:	687b      	ldr	r3, [r7, #4]
 80021d8:	2200      	movs	r2, #0
 80021da:	f883 2024 	strb.w	r2, [r3, #36]	@ 0x24
    
    /* Init the low level hardware */
    hadc->MspInitCallback(hadc);
#else
    /* Init the low level hardware */
    HAL_ADC_MspInit(hadc);
 80021de:	6878      	ldr	r0, [r7, #4]
 80021e0:	f7ff fd98 	bl	8001d14 <HAL_ADC_MspInit>
  /* Stop potential conversion on going, on regular and injected groups */
  /* Disable ADC peripheral */
  /* Note: In case of ADC already enabled, precaution to not launch an        */
  /*       unwanted conversion while modifying register CR2 by writing 1 to   */
  /*       bit ADON.                                                          */
  tmp_hal_status = ADC_ConversionStop_Disable(hadc);
 80021e4:	6878      	ldr	r0, [r7, #4]
 80021e6:	f000 fbf1 	bl	80029cc <ADC_ConversionStop_Disable>
 80021ea:	4603      	mov	r3, r0
 80021ec:	75fb      	strb	r3, [r7, #23]
  
  
  /* Configuration of ADC parameters if previous preliminary actions are      */ 
  /* correctly completed.                                                     */
  if (HAL_IS_BIT_CLR(hadc->State, HAL_ADC_STATE_ERROR_INTERNAL) &&
 80021ee:	687b      	ldr	r3, [r7, #4]
 80021f0:	6a9b      	ldr	r3, [r3, #40]	@ 0x28
 80021f2:	f003 0310 	and.w	r3, r3, #16
 80021f6:	2b00      	cmp	r3, #0
 80021f8:	f040 8099 	bne.w	800232e <HAL_ADC_Init+0x18e>
 80021fc:	7dfb      	ldrb	r3, [r7, #23]
 80021fe:	2b00      	cmp	r3, #0
 8002200:	f040 8095 	bne.w	800232e <HAL_ADC_Init+0x18e>
      (tmp_hal_status == HAL_OK)                                  )
  {
    /* Set ADC state */
    ADC_STATE_CLR_SET(hadc->State,
 8002204:	687b      	ldr	r3, [r7, #4]
 8002206:	6a9b      	ldr	r3, [r3, #40]	@ 0x28
 8002208:	f423 5388 	bic.w	r3, r3, #4352	@ 0x1100
 800220c:	f023 0302 	bic.w	r3, r3, #2
 8002210:	f043 0202 	orr.w	r2, r3, #2
 8002214:	687b      	ldr	r3, [r7, #4]
 8002216:	629a      	str	r2, [r3, #40]	@ 0x28
    /*  - continuous conversion mode                                          */
    /* Note: External trigger polarity (ADC_CR2_EXTTRIG) is set into          */
    /*       HAL_ADC_Start_xxx functions because if set in this function,     */
    /*       a conversion on injected group would start a conversion also on  */
    /*       regular group after ADC enabling.                                */
    tmp_cr2 |= (hadc->Init.DataAlign                                          |
 8002218:	687b      	ldr	r3, [r7, #4]
 800221a:	685a      	ldr	r2, [r3, #4]
                ADC_CFGR_EXTSEL(hadc, hadc->Init.ExternalTrigConv)            |
 800221c:	687b      	ldr	r3, [r7, #4]
 800221e:	69db      	ldr	r3, [r3, #28]
    tmp_cr2 |= (hadc->Init.DataAlign                                          |
 8002220:	431a      	orrs	r2, r3
                ADC_CR2_CONTINUOUS((uint32_t)hadc->Init.ContinuousConvMode)   );
 8002222:	687b      	ldr	r3, [r7, #4]
 8002224:	7b1b      	ldrb	r3, [r3, #12]
 8002226:	005b      	lsls	r3, r3, #1
                ADC_CFGR_EXTSEL(hadc, hadc->Init.ExternalTrigConv)            |
 8002228:	4313      	orrs	r3, r2
    tmp_cr2 |= (hadc->Init.DataAlign                                          |
 800222a:	68ba      	ldr	r2, [r7, #8]
 800222c:	4313      	orrs	r3, r2
 800222e:	60bb      	str	r3, [r7, #8]

    /* Configuration of ADC:                                                  */
    /*  - scan mode                                                           */
    /*  - discontinuous mode disable/enable                                   */
    /*  - discontinuous mode number of conversions                            */
    tmp_cr1 |= (ADC_CR1_SCAN_SET(hadc->Init.ScanConvMode));
 8002230:	687b      	ldr	r3, [r7, #4]
 8002232:	689b      	ldr	r3, [r3, #8]
 8002234:	f5b3 7f80 	cmp.w	r3, #256	@ 0x100
 8002238:	d003      	beq.n	8002242 <HAL_ADC_Init+0xa2>
 800223a:	687b      	ldr	r3, [r7, #4]
 800223c:	689b      	ldr	r3, [r3, #8]
 800223e:	2b01      	cmp	r3, #1
 8002240:	d102      	bne.n	8002248 <HAL_ADC_Init+0xa8>
 8002242:	f44f 7380 	mov.w	r3, #256	@ 0x100
 8002246:	e000      	b.n	800224a <HAL_ADC_Init+0xaa>
 8002248:	2300      	movs	r3, #0
 800224a:	693a      	ldr	r2, [r7, #16]
 800224c:	4313      	orrs	r3, r2
 800224e:	613b      	str	r3, [r7, #16]
    
    /* Enable discontinuous mode only if continuous mode is disabled */
    /* Note: If parameter "Init.ScanConvMode" is set to disable, parameter    */
    /*       discontinuous is set anyway, but will have no effect on ADC HW.  */
    if (hadc->Init.DiscontinuousConvMode == ENABLE)
 8002250:	687b      	ldr	r3, [r7, #4]
 8002252:	7d1b      	ldrb	r3, [r3, #20]
 8002254:	2b01      	cmp	r3, #1
 8002256:	d119      	bne.n	800228c <HAL_ADC_Init+0xec>
    {
      if (hadc->Init.ContinuousConvMode == DISABLE)
 8002258:	687b      	ldr	r3, [r7, #4]
 800225a:	7b1b      	ldrb	r3, [r3, #12]
 800225c:	2b00      	cmp	r3, #0
 800225e:	d109      	bne.n	8002274 <HAL_ADC_Init+0xd4>
      {
        /* Enable the selected ADC regular discontinuous mode */
        /* Set the number of channels to be converted in discontinuous mode */
        SET_BIT(tmp_cr1, ADC_CR1_DISCEN                                            |
 8002260:	687b      	ldr	r3, [r7, #4]
 8002262:	699b      	ldr	r3, [r3, #24]
 8002264:	3b01      	subs	r3, #1
 8002266:	035a      	lsls	r2, r3, #13
 8002268:	693b      	ldr	r3, [r7, #16]
 800226a:	4313      	orrs	r3, r2
 800226c:	f443 6300 	orr.w	r3, r3, #2048	@ 0x800
 8002270:	613b      	str	r3, [r7, #16]
 8002272:	e00b      	b.n	800228c <HAL_ADC_Init+0xec>
      {
        /* ADC regular group settings continuous and sequencer discontinuous*/
        /* cannot be enabled simultaneously.                                */
        
        /* Update ADC state machine to error */
        SET_BIT(hadc->State, HAL_ADC_STATE_ERROR_CONFIG);
 8002274:	687b      	ldr	r3, [r7, #4]
 8002276:	6a9b      	ldr	r3, [r3, #40]	@ 0x28
 8002278:	f043 0220 	orr.w	r2, r3, #32
 800227c:	687b      	ldr	r3, [r7, #4]
 800227e:	629a      	str	r2, [r3, #40]	@ 0x28
        
        /* Set ADC error code to ADC IP internal error */
        SET_BIT(hadc->ErrorCode, HAL_ADC_ERROR_INTERNAL);
 8002280:	687b      	ldr	r3, [r7, #4]
 8002282:	6adb      	ldr	r3, [r3, #44]	@ 0x2c
 8002284:	f043 0201 	orr.w	r2, r3, #1
 8002288:	687b      	ldr	r3, [r7, #4]
 800228a:	62da      	str	r2, [r3, #44]	@ 0x2c
      }
    }
    
    /* Update ADC configuration register CR1 with previous settings */
      MODIFY_REG(hadc->Instance->CR1,
 800228c:	687b      	ldr	r3, [r7, #4]
 800228e:	681b      	ldr	r3, [r3, #0]
 8002290:	685b      	ldr	r3, [r3, #4]
 8002292:	f423 4169 	bic.w	r1, r3, #59648	@ 0xe900
 8002296:	687b      	ldr	r3, [r7, #4]
 8002298:	681b      	ldr	r3, [r3, #0]
 800229a:	693a      	ldr	r2, [r7, #16]
 800229c:	430a      	orrs	r2, r1
 800229e:	605a      	str	r2, [r3, #4]
                 ADC_CR1_DISCEN  |
                 ADC_CR1_DISCNUM    ,
                 tmp_cr1             );
    
    /* Update ADC configuration register CR2 with previous settings */
      MODIFY_REG(hadc->Instance->CR2,
 80022a0:	687b      	ldr	r3, [r7, #4]
 80022a2:	681b      	ldr	r3, [r3, #0]
 80022a4:	689a      	ldr	r2, [r3, #8]
 80022a6:	4b28      	ldr	r3, [pc, #160]	@ (8002348 <HAL_ADC_Init+0x1a8>)
 80022a8:	4013      	ands	r3, r2
 80022aa:	687a      	ldr	r2, [r7, #4]
 80022ac:	6812      	ldr	r2, [r2, #0]
 80022ae:	68b9      	ldr	r1, [r7, #8]
 80022b0:	430b      	orrs	r3, r1
 80022b2:	6093      	str	r3, [r2, #8]
    /*   Note: Scan mode is present by hardware on this device and, if        */
    /*   disabled, discards automatically nb of conversions. Anyway, nb of    */
    /*   conversions is forced to 0x00 for alignment over all STM32 devices.  */
    /* - if scan mode is enabled, regular channels sequence length is set to  */
    /*   parameter "NbrOfConversion"                                          */
    if (ADC_CR1_SCAN_SET(hadc->Init.ScanConvMode) == ADC_SCAN_ENABLE)
 80022b4:	687b      	ldr	r3, [r7, #4]
 80022b6:	689b      	ldr	r3, [r3, #8]
 80022b8:	f5b3 7f80 	cmp.w	r3, #256	@ 0x100
 80022bc:	d003      	beq.n	80022c6 <HAL_ADC_Init+0x126>
 80022be:	687b      	ldr	r3, [r7, #4]
 80022c0:	689b      	ldr	r3, [r3, #8]
 80022c2:	2b01      	cmp	r3, #1
 80022c4:	d104      	bne.n	80022d0 <HAL_ADC_Init+0x130>
    {
      tmp_sqr1 = ADC_SQR1_L_SHIFT(hadc->Init.NbrOfConversion);
 80022c6:	687b      	ldr	r3, [r7, #4]
 80022c8:	691b      	ldr	r3, [r3, #16]
 80022ca:	3b01      	subs	r3, #1
 80022cc:	051b      	lsls	r3, r3, #20
 80022ce:	60fb      	str	r3, [r7, #12]
    }
      
    MODIFY_REG(hadc->Instance->SQR1,
 80022d0:	687b      	ldr	r3, [r7, #4]
 80022d2:	681b      	ldr	r3, [r3, #0]
 80022d4:	6adb      	ldr	r3, [r3, #44]	@ 0x2c
 80022d6:	f423 0170 	bic.w	r1, r3, #15728640	@ 0xf00000
 80022da:	687b      	ldr	r3, [r7, #4]
 80022dc:	681b      	ldr	r3, [r3, #0]
 80022de:	68fa      	ldr	r2, [r7, #12]
 80022e0:	430a      	orrs	r2, r1
 80022e2:	62da      	str	r2, [r3, #44]	@ 0x2c
    /* ensure of no potential problem of ADC core IP clocking.                */
    /* Check through register CR2 (excluding bits set in other functions:     */
    /* execution control bits (ADON, JSWSTART, SWSTART), regular group bits   */
    /* (DMA), injected group bits (JEXTTRIG and JEXTSEL), channel internal    */
    /* measurement path bit (TSVREFE).                                        */
    if (READ_BIT(hadc->Instance->CR2, ~(ADC_CR2_ADON | ADC_CR2_DMA |
 80022e4:	687b      	ldr	r3, [r7, #4]
 80022e6:	681b      	ldr	r3, [r3, #0]
 80022e8:	689a      	ldr	r2, [r3, #8]
 80022ea:	4b18      	ldr	r3, [pc, #96]	@ (800234c <HAL_ADC_Init+0x1ac>)
 80022ec:	4013      	ands	r3, r2
 80022ee:	68ba      	ldr	r2, [r7, #8]
 80022f0:	429a      	cmp	r2, r3
 80022f2:	d10b      	bne.n	800230c <HAL_ADC_Init+0x16c>
                                        ADC_CR2_JEXTTRIG | ADC_CR2_JEXTSEL |
                                        ADC_CR2_TSVREFE                     ))
         == tmp_cr2)
    {
      /* Set ADC error code to none */
      ADC_CLEAR_ERRORCODE(hadc);
 80022f4:	687b      	ldr	r3, [r7, #4]
 80022f6:	2200      	movs	r2, #0
 80022f8:	62da      	str	r2, [r3, #44]	@ 0x2c
      
      /* Set the ADC state */
      ADC_STATE_CLR_SET(hadc->State,
 80022fa:	687b      	ldr	r3, [r7, #4]
 80022fc:	6a9b      	ldr	r3, [r3, #40]	@ 0x28
 80022fe:	f023 0303 	bic.w	r3, r3, #3
 8002302:	f043 0201 	orr.w	r2, r3, #1
 8002306:	687b      	ldr	r3, [r7, #4]
 8002308:	629a      	str	r2, [r3, #40]	@ 0x28
    if (READ_BIT(hadc->Instance->CR2, ~(ADC_CR2_ADON | ADC_CR2_DMA |
 800230a:	e018      	b.n	800233e <HAL_ADC_Init+0x19e>
                        HAL_ADC_STATE_READY);
    }
    else
    {
      /* Update ADC state machine to error */
      ADC_STATE_CLR_SET(hadc->State,
 800230c:	687b      	ldr	r3, [r7, #4]
 800230e:	6a9b      	ldr	r3, [r3, #40]	@ 0x28
 8002310:	f023 0312 	bic.w	r3, r3, #18
 8002314:	f043 0210 	orr.w	r2, r3, #16
 8002318:	687b      	ldr	r3, [r7, #4]
 800231a:	629a      	str	r2, [r3, #40]	@ 0x28
                        HAL_ADC_STATE_BUSY_INTERNAL,
                        HAL_ADC_STATE_ERROR_INTERNAL);
      
      /* Set ADC error code to ADC IP internal error */
      SET_BIT(hadc->ErrorCode, HAL_ADC_ERROR_INTERNAL);
 800231c:	687b      	ldr	r3, [r7, #4]
 800231e:	6adb      	ldr	r3, [r3, #44]	@ 0x2c
 8002320:	f043 0201 	orr.w	r2, r3, #1
 8002324:	687b      	ldr	r3, [r7, #4]
 8002326:	62da      	str	r2, [r3, #44]	@ 0x2c
      
      tmp_hal_status = HAL_ERROR;
 8002328:	2301      	movs	r3, #1
 800232a:	75fb      	strb	r3, [r7, #23]
    if (READ_BIT(hadc->Instance->CR2, ~(ADC_CR2_ADON | ADC_CR2_DMA |
 800232c:	e007      	b.n	800233e <HAL_ADC_Init+0x19e>
  
  }
  else
  {
    /* Update ADC state machine to error */
    SET_BIT(hadc->State, HAL_ADC_STATE_ERROR_INTERNAL);
 800232e:	687b      	ldr	r3, [r7, #4]
 8002330:	6a9b      	ldr	r3, [r3, #40]	@ 0x28
 8002332:	f043 0210 	orr.w	r2, r3, #16
 8002336:	687b      	ldr	r3, [r7, #4]
 8002338:	629a      	str	r2, [r3, #40]	@ 0x28
        
    tmp_hal_status = HAL_ERROR;
 800233a:	2301      	movs	r3, #1
 800233c:	75fb      	strb	r3, [r7, #23]
  }
  
  /* Return function status */
  return tmp_hal_status;
 800233e:	7dfb      	ldrb	r3, [r7, #23]
}
 8002340:	4618      	mov	r0, r3
 8002342:	3718      	adds	r7, #24
 8002344:	46bd      	mov	sp, r7
 8002346:	bd80      	pop	{r7, pc}
 8002348:	ffe1f7fd 	.word	0xffe1f7fd
 800234c:	ff1f0efe 	.word	0xff1f0efe

08002350 <HAL_ADC_Start>:
  *         Interruptions enabled in this function: None.
  * @param  hadc: ADC handle
  * @retval HAL status
  */
HAL_StatusTypeDef HAL_ADC_Start(ADC_HandleTypeDef* hadc)
{
 8002350:	b580      	push	{r7, lr}
 8002352:	b084      	sub	sp, #16
 8002354:	af00      	add	r7, sp, #0
 8002356:	6078      	str	r0, [r7, #4]
  HAL_StatusTypeDef tmp_hal_status = HAL_OK;
 8002358:	2300      	movs	r3, #0
 800235a:	73fb      	strb	r3, [r7, #15]
  
  /* Check the parameters */
  assert_param(IS_ADC_ALL_INSTANCE(hadc->Instance));
  
  /* Process locked */
  __HAL_LOCK(hadc);
 800235c:	687b      	ldr	r3, [r7, #4]
 800235e:	f893 3024 	ldrb.w	r3, [r3, #36]	@ 0x24
 8002362:	2b01      	cmp	r3, #1
 8002364:	d101      	bne.n	800236a <HAL_ADC_Start+0x1a>
 8002366:	2302      	movs	r3, #2
 8002368:	e098      	b.n	800249c <HAL_ADC_Start+0x14c>
 800236a:	687b      	ldr	r3, [r7, #4]
 800236c:	2201      	movs	r2, #1
 800236e:	f883 2024 	strb.w	r2, [r3, #36]	@ 0x24
   
  /* Enable the ADC peripheral */
  tmp_hal_status = ADC_Enable(hadc);
 8002372:	6878      	ldr	r0, [r7, #4]
 8002374:	f000 fad0 	bl	8002918 <ADC_Enable>
 8002378:	4603      	mov	r3, r0
 800237a:	73fb      	strb	r3, [r7, #15]
  
  /* Start conversion if ADC is effectively enabled */
  if (tmp_hal_status == HAL_OK)
 800237c:	7bfb      	ldrb	r3, [r7, #15]
 800237e:	2b00      	cmp	r3, #0
 8002380:	f040 8087 	bne.w	8002492 <HAL_ADC_Start+0x142>
  {
    /* Set ADC state                                                          */
    /* - Clear state bitfield related to regular group conversion results     */
    /* - Set state bitfield related to regular operation                      */
    ADC_STATE_CLR_SET(hadc->State,
 8002384:	687b      	ldr	r3, [r7, #4]
 8002386:	6a9b      	ldr	r3, [r3, #40]	@ 0x28
 8002388:	f423 7340 	bic.w	r3, r3, #768	@ 0x300
 800238c:	f023 0301 	bic.w	r3, r3, #1
 8002390:	f443 7280 	orr.w	r2, r3, #256	@ 0x100
 8002394:	687b      	ldr	r3, [r7, #4]
 8002396:	629a      	str	r2, [r3, #40]	@ 0x28
                      HAL_ADC_STATE_REG_BUSY);
    
    /* Set group injected state (from auto-injection) and multimode state     */
    /* for all cases of multimode: independent mode, multimode ADC master     */
    /* or multimode ADC slave (for devices with several ADCs):                */
    if (ADC_NONMULTIMODE_OR_MULTIMODEMASTER(hadc))
 8002398:	687b      	ldr	r3, [r7, #4]
 800239a:	681b      	ldr	r3, [r3, #0]
 800239c:	4a41      	ldr	r2, [pc, #260]	@ (80024a4 <HAL_ADC_Start+0x154>)
 800239e:	4293      	cmp	r3, r2
 80023a0:	d105      	bne.n	80023ae <HAL_ADC_Start+0x5e>
 80023a2:	4b41      	ldr	r3, [pc, #260]	@ (80024a8 <HAL_ADC_Start+0x158>)
 80023a4:	685b      	ldr	r3, [r3, #4]
 80023a6:	f403 2370 	and.w	r3, r3, #983040	@ 0xf0000
 80023aa:	2b00      	cmp	r3, #0
 80023ac:	d115      	bne.n	80023da <HAL_ADC_Start+0x8a>
    {
      /* Set ADC state (ADC independent or master) */
      CLEAR_BIT(hadc->State, HAL_ADC_STATE_MULTIMODE_SLAVE);
 80023ae:	687b      	ldr	r3, [r7, #4]
 80023b0:	6a9b      	ldr	r3, [r3, #40]	@ 0x28
 80023b2:	f423 1280 	bic.w	r2, r3, #1048576	@ 0x100000
 80023b6:	687b      	ldr	r3, [r7, #4]
 80023b8:	629a      	str	r2, [r3, #40]	@ 0x28
      
      /* If conversions on group regular are also triggering group injected,  */
      /* update ADC state.                                                    */
      if (READ_BIT(hadc->Instance->CR1, ADC_CR1_JAUTO) != RESET)
 80023ba:	687b      	ldr	r3, [r7, #4]
 80023bc:	681b      	ldr	r3, [r3, #0]
 80023be:	685b      	ldr	r3, [r3, #4]
 80023c0:	f403 6380 	and.w	r3, r3, #1024	@ 0x400
 80023c4:	2b00      	cmp	r3, #0
 80023c6:	d026      	beq.n	8002416 <HAL_ADC_Start+0xc6>
      {
        ADC_STATE_CLR_SET(hadc->State, HAL_ADC_STATE_INJ_EOC, HAL_ADC_STATE_INJ_BUSY);  
 80023c8:	687b      	ldr	r3, [r7, #4]
 80023ca:	6a9b      	ldr	r3, [r3, #40]	@ 0x28
 80023cc:	f423 5340 	bic.w	r3, r3, #12288	@ 0x3000
 80023d0:	f443 5280 	orr.w	r2, r3, #4096	@ 0x1000
 80023d4:	687b      	ldr	r3, [r7, #4]
 80023d6:	629a      	str	r2, [r3, #40]	@ 0x28
      if (READ_BIT(hadc->Instance->CR1, ADC_CR1_JAUTO) != RESET)
 80023d8:	e01d      	b.n	8002416 <HAL_ADC_Start+0xc6>
      }
    }
    else
    {
      /* Set ADC state (ADC slave) */
      SET_BIT(hadc->State, HAL_ADC_STATE_MULTIMODE_SLAVE);
 80023da:	687b      	ldr	r3, [r7, #4]
 80023dc:	6a9b      	ldr	r3, [r3, #40]	@ 0x28
 80023de:	f443 1280 	orr.w	r2, r3, #1048576	@ 0x100000
 80023e2:	687b      	ldr	r3, [r7, #4]
 80023e4:	629a      	str	r2, [r3, #40]	@ 0x28
      
      /* If conversions on group regular are also triggering group injected,  */
      /* update ADC state.                                                    */
      if (ADC_MULTIMODE_AUTO_INJECTED(hadc))
 80023e6:	687b      	ldr	r3, [r7, #4]
 80023e8:	681b      	ldr	r3, [r3, #0]
 80023ea:	4a2f      	ldr	r2, [pc, #188]	@ (80024a8 <HAL_ADC_Start+0x158>)
 80023ec:	4293      	cmp	r3, r2
 80023ee:	d004      	beq.n	80023fa <HAL_ADC_Start+0xaa>
 80023f0:	687b      	ldr	r3, [r7, #4]
 80023f2:	681b      	ldr	r3, [r3, #0]
 80023f4:	4a2b      	ldr	r2, [pc, #172]	@ (80024a4 <HAL_ADC_Start+0x154>)
 80023f6:	4293      	cmp	r3, r2
 80023f8:	d10d      	bne.n	8002416 <HAL_ADC_Start+0xc6>
 80023fa:	4b2b      	ldr	r3, [pc, #172]	@ (80024a8 <HAL_ADC_Start+0x158>)
 80023fc:	685b      	ldr	r3, [r3, #4]
 80023fe:	f403 6380 	and.w	r3, r3, #1024	@ 0x400
 8002402:	2b00      	cmp	r3, #0
 8002404:	d007      	beq.n	8002416 <HAL_ADC_Start+0xc6>
      {
        ADC_STATE_CLR_SET(hadc->State, HAL_ADC_STATE_INJ_EOC, HAL_ADC_STATE_INJ_BUSY);
 8002406:	687b      	ldr	r3, [r7, #4]
 8002408:	6a9b      	ldr	r3, [r3, #40]	@ 0x28
 800240a:	f423 5340 	bic.w	r3, r3, #12288	@ 0x3000
 800240e:	f443 5280 	orr.w	r2, r3, #4096	@ 0x1000
 8002412:	687b      	ldr	r3, [r7, #4]
 8002414:	629a      	str	r2, [r3, #40]	@ 0x28
      }
    }
    
    /* State machine update: Check if an injected conversion is ongoing */
    if (HAL_IS_BIT_SET(hadc->State, HAL_ADC_STATE_INJ_BUSY))
 8002416:	687b      	ldr	r3, [r7, #4]
 8002418:	6a9b      	ldr	r3, [r3, #40]	@ 0x28
 800241a:	f403 5380 	and.w	r3, r3, #4096	@ 0x1000
 800241e:	2b00      	cmp	r3, #0
 8002420:	d006      	beq.n	8002430 <HAL_ADC_Start+0xe0>
    {
      /* Reset ADC error code fields related to conversions on group regular */
      CLEAR_BIT(hadc->ErrorCode, (HAL_ADC_ERROR_OVR | HAL_ADC_ERROR_DMA));         
 8002422:	687b      	ldr	r3, [r7, #4]
 8002424:	6adb      	ldr	r3, [r3, #44]	@ 0x2c
 8002426:	f023 0206 	bic.w	r2, r3, #6
 800242a:	687b      	ldr	r3, [r7, #4]
 800242c:	62da      	str	r2, [r3, #44]	@ 0x2c
 800242e:	e002      	b.n	8002436 <HAL_ADC_Start+0xe6>
    }
    else
    {
      /* Reset ADC all error code fields */
      ADC_CLEAR_ERRORCODE(hadc);
 8002430:	687b      	ldr	r3, [r7, #4]
 8002432:	2200      	movs	r2, #0
 8002434:	62da      	str	r2, [r3, #44]	@ 0x2c
    }
    
    /* Process unlocked */
    /* Unlock before starting ADC conversions: in case of potential           */
    /* interruption, to let the process to ADC IRQ Handler.                   */
    __HAL_UNLOCK(hadc);
 8002436:	687b      	ldr	r3, [r7, #4]
 8002438:	2200      	movs	r2, #0
 800243a:	f883 2024 	strb.w	r2, [r3, #36]	@ 0x24
  
    /* Clear regular group conversion flag */
    /* (To ensure of no unknown state from potential previous ADC operations) */
    __HAL_ADC_CLEAR_FLAG(hadc, ADC_FLAG_EOC);
 800243e:	687b      	ldr	r3, [r7, #4]
 8002440:	681b      	ldr	r3, [r3, #0]
 8002442:	f06f 0202 	mvn.w	r2, #2
 8002446:	601a      	str	r2, [r3, #0]
    /*  - if ADC is slave, ADC is enabled only (conversion is not started).   */
    /*  - if ADC is master, ADC is enabled and conversion is started.         */
    /* If ADC is master, ADC is enabled and conversion is started.            */
    /* Note: Alternate trigger for single conversion could be to force an     */
    /*       additional set of bit ADON "hadc->Instance->CR2 |= ADC_CR2_ADON;"*/
    if (ADC_IS_SOFTWARE_START_REGULAR(hadc)      &&
 8002448:	687b      	ldr	r3, [r7, #4]
 800244a:	681b      	ldr	r3, [r3, #0]
 800244c:	689b      	ldr	r3, [r3, #8]
 800244e:	f403 2360 	and.w	r3, r3, #917504	@ 0xe0000
 8002452:	f5b3 2f60 	cmp.w	r3, #917504	@ 0xe0000
 8002456:	d113      	bne.n	8002480 <HAL_ADC_Start+0x130>
        ADC_NONMULTIMODE_OR_MULTIMODEMASTER(hadc)  )
 8002458:	687b      	ldr	r3, [r7, #4]
 800245a:	681b      	ldr	r3, [r3, #0]
    if (ADC_IS_SOFTWARE_START_REGULAR(hadc)      &&
 800245c:	4a11      	ldr	r2, [pc, #68]	@ (80024a4 <HAL_ADC_Start+0x154>)
 800245e:	4293      	cmp	r3, r2
 8002460:	d105      	bne.n	800246e <HAL_ADC_Start+0x11e>
        ADC_NONMULTIMODE_OR_MULTIMODEMASTER(hadc)  )
 8002462:	4b11      	ldr	r3, [pc, #68]	@ (80024a8 <HAL_ADC_Start+0x158>)
 8002464:	685b      	ldr	r3, [r3, #4]
 8002466:	f403 2370 	and.w	r3, r3, #983040	@ 0xf0000
    if (ADC_IS_SOFTWARE_START_REGULAR(hadc)      &&
 800246a:	2b00      	cmp	r3, #0
 800246c:	d108      	bne.n	8002480 <HAL_ADC_Start+0x130>
    {
      /* Start ADC conversion on regular group with SW start */
      SET_BIT(hadc->Instance->CR2, (ADC_CR2_SWSTART | ADC_CR2_EXTTRIG));
 800246e:	687b      	ldr	r3, [r7, #4]
 8002470:	681b      	ldr	r3, [r3, #0]
 8002472:	689a      	ldr	r2, [r3, #8]
 8002474:	687b      	ldr	r3, [r7, #4]
 8002476:	681b      	ldr	r3, [r3, #0]
 8002478:	f442 02a0 	orr.w	r2, r2, #5242880	@ 0x500000
 800247c:	609a      	str	r2, [r3, #8]
 800247e:	e00c      	b.n	800249a <HAL_ADC_Start+0x14a>
    }
    else
    {
      /* Start ADC conversion on regular group with external trigger */
      SET_BIT(hadc->Instance->CR2, ADC_CR2_EXTTRIG);
 8002480:	687b      	ldr	r3, [r7, #4]
 8002482:	681b      	ldr	r3, [r3, #0]
 8002484:	689a      	ldr	r2, [r3, #8]
 8002486:	687b      	ldr	r3, [r7, #4]
 8002488:	681b      	ldr	r3, [r3, #0]
 800248a:	f442 1280 	orr.w	r2, r2, #1048576	@ 0x100000
 800248e:	609a      	str	r2, [r3, #8]
 8002490:	e003      	b.n	800249a <HAL_ADC_Start+0x14a>
    }
  }
  else
  {
    /* Process unlocked */
    __HAL_UNLOCK(hadc);
 8002492:	687b      	ldr	r3, [r7, #4]
 8002494:	2200      	movs	r2, #0
 8002496:	f883 2024 	strb.w	r2, [r3, #36]	@ 0x24
  }
    
  /* Return function status */
  return tmp_hal_status;
 800249a:	7bfb      	ldrb	r3, [r7, #15]
}
 800249c:	4618      	mov	r0, r3
 800249e:	3710      	adds	r7, #16
 80024a0:	46bd      	mov	sp, r7
 80024a2:	bd80      	pop	{r7, pc}
 80024a4:	40012800 	.word	0x40012800
 80024a8:	40012400 	.word	0x40012400

080024ac <HAL_ADC_Stop>:
  *         should be preliminarily stopped using HAL_ADCEx_InjectedStop function.
  * @param  hadc: ADC handle
  * @retval HAL status.
  */
HAL_StatusTypeDef HAL_ADC_Stop(ADC_HandleTypeDef* hadc)
{
 80024ac:	b580      	push	{r7, lr}
 80024ae:	b084      	sub	sp, #16
 80024b0:	af00      	add	r7, sp, #0
 80024b2:	6078      	str	r0, [r7, #4]
  HAL_StatusTypeDef tmp_hal_status = HAL_OK;
 80024b4:	2300      	movs	r3, #0
 80024b6:	73fb      	strb	r3, [r7, #15]
  
  /* Check the parameters */
  assert_param(IS_ADC_ALL_INSTANCE(hadc->Instance));
     
  /* Process locked */
  __HAL_LOCK(hadc);
 80024b8:	687b      	ldr	r3, [r7, #4]
 80024ba:	f893 3024 	ldrb.w	r3, [r3, #36]	@ 0x24
 80024be:	2b01      	cmp	r3, #1
 80024c0:	d101      	bne.n	80024c6 <HAL_ADC_Stop+0x1a>
 80024c2:	2302      	movs	r3, #2
 80024c4:	e01a      	b.n	80024fc <HAL_ADC_Stop+0x50>
 80024c6:	687b      	ldr	r3, [r7, #4]
 80024c8:	2201      	movs	r2, #1
 80024ca:	f883 2024 	strb.w	r2, [r3, #36]	@ 0x24
  
  /* Stop potential conversion on going, on regular and injected groups */
  /* Disable ADC peripheral */
  tmp_hal_status = ADC_ConversionStop_Disable(hadc);
 80024ce:	6878      	ldr	r0, [r7, #4]
 80024d0:	f000 fa7c 	bl	80029cc <ADC_ConversionStop_Disable>
 80024d4:	4603      	mov	r3, r0
 80024d6:	73fb      	strb	r3, [r7, #15]
  
  /* Check if ADC is effectively disabled */
  if (tmp_hal_status == HAL_OK)
 80024d8:	7bfb      	ldrb	r3, [r7, #15]
 80024da:	2b00      	cmp	r3, #0
 80024dc:	d109      	bne.n	80024f2 <HAL_ADC_Stop+0x46>
  {
    /* Set ADC state */
    ADC_STATE_CLR_SET(hadc->State,
 80024de:	687b      	ldr	r3, [r7, #4]
 80024e0:	6a9b      	ldr	r3, [r3, #40]	@ 0x28
 80024e2:	f423 5388 	bic.w	r3, r3, #4352	@ 0x1100
 80024e6:	f023 0301 	bic.w	r3, r3, #1
 80024ea:	f043 0201 	orr.w	r2, r3, #1
 80024ee:	687b      	ldr	r3, [r7, #4]
 80024f0:	629a      	str	r2, [r3, #40]	@ 0x28
                      HAL_ADC_STATE_REG_BUSY | HAL_ADC_STATE_INJ_BUSY,
                      HAL_ADC_STATE_READY);
  }
  
  /* Process unlocked */
  __HAL_UNLOCK(hadc);
 80024f2:	687b      	ldr	r3, [r7, #4]
 80024f4:	2200      	movs	r2, #0
 80024f6:	f883 2024 	strb.w	r2, [r3, #36]	@ 0x24
  
  /* Return function status */
  return tmp_hal_status;
 80024fa:	7bfb      	ldrb	r3, [r7, #15]
}
 80024fc:	4618      	mov	r0, r3
 80024fe:	3710      	adds	r7, #16
 8002500:	46bd      	mov	sp, r7
 8002502:	bd80      	pop	{r7, pc}

08002504 <HAL_ADC_PollForConversion>:
  * @param  hadc: ADC handle
  * @param  Timeout: Timeout value in millisecond.
  * @retval HAL status
  */
HAL_StatusTypeDef HAL_ADC_PollForConversion(ADC_HandleTypeDef* hadc, uint32_t Timeout)
{
 8002504:	b590      	push	{r4, r7, lr}
 8002506:	b087      	sub	sp, #28
 8002508:	af00      	add	r7, sp, #0
 800250a:	6078      	str	r0, [r7, #4]
 800250c:	6039      	str	r1, [r7, #0]
  uint32_t tickstart = 0U;
 800250e:	2300      	movs	r3, #0
 8002510:	617b      	str	r3, [r7, #20]
  
  /* Variables for polling in case of scan mode enabled and polling for each  */
  /* conversion.                                                              */
  __IO uint32_t Conversion_Timeout_CPU_cycles = 0U;
 8002512:	2300      	movs	r3, #0
 8002514:	60fb      	str	r3, [r7, #12]
  uint32_t Conversion_Timeout_CPU_cycles_max = 0U;
 8002516:	2300      	movs	r3, #0
 8002518:	613b      	str	r3, [r7, #16]
 
  /* Check the parameters */
  assert_param(IS_ADC_ALL_INSTANCE(hadc->Instance));
  
  /* Get tick count */
  tickstart = HAL_GetTick();
 800251a:	f7ff fe13 	bl	8002144 <HAL_GetTick>
 800251e:	6178      	str	r0, [r7, #20]
  
  /* Verification that ADC configuration is compliant with polling for        */
  /* each conversion:                                                         */
  /* Particular case is ADC configured in DMA mode                            */
  if (HAL_IS_BIT_SET(hadc->Instance->CR2, ADC_CR2_DMA))
 8002520:	687b      	ldr	r3, [r7, #4]
 8002522:	681b      	ldr	r3, [r3, #0]
 8002524:	689b      	ldr	r3, [r3, #8]
 8002526:	f403 7380 	and.w	r3, r3, #256	@ 0x100
 800252a:	2b00      	cmp	r3, #0
 800252c:	d00b      	beq.n	8002546 <HAL_ADC_PollForConversion+0x42>
  {
    /* Update ADC state machine to error */
    SET_BIT(hadc->State, HAL_ADC_STATE_ERROR_CONFIG);
 800252e:	687b      	ldr	r3, [r7, #4]
 8002530:	6a9b      	ldr	r3, [r3, #40]	@ 0x28
 8002532:	f043 0220 	orr.w	r2, r3, #32
 8002536:	687b      	ldr	r3, [r7, #4]
 8002538:	629a      	str	r2, [r3, #40]	@ 0x28
    
    /* Process unlocked */
    __HAL_UNLOCK(hadc);
 800253a:	687b      	ldr	r3, [r7, #4]
 800253c:	2200      	movs	r2, #0
 800253e:	f883 2024 	strb.w	r2, [r3, #36]	@ 0x24
    
    return HAL_ERROR;
 8002542:	2301      	movs	r3, #1
 8002544:	e0d3      	b.n	80026ee <HAL_ADC_PollForConversion+0x1ea>
  /*    from ADC conversion time (selected sampling time + conversion time of */
  /*    12.5 ADC clock cycles) and APB2/ADC clock prescalers (depending on    */
  /*    settings, conversion time range can be from 28 to 32256 CPU cycles).  */
  /*    As flag EOC is not set after each conversion, no timeout status can   */
  /*    be set.                                                               */
  if (HAL_IS_BIT_CLR(hadc->Instance->CR1, ADC_CR1_SCAN) &&
 8002546:	687b      	ldr	r3, [r7, #4]
 8002548:	681b      	ldr	r3, [r3, #0]
 800254a:	685b      	ldr	r3, [r3, #4]
 800254c:	f403 7380 	and.w	r3, r3, #256	@ 0x100
 8002550:	2b00      	cmp	r3, #0
 8002552:	d131      	bne.n	80025b8 <HAL_ADC_PollForConversion+0xb4>
      HAL_IS_BIT_CLR(hadc->Instance->SQR1, ADC_SQR1_L)    )
 8002554:	687b      	ldr	r3, [r7, #4]
 8002556:	681b      	ldr	r3, [r3, #0]
 8002558:	6adb      	ldr	r3, [r3, #44]	@ 0x2c
 800255a:	f403 0370 	and.w	r3, r3, #15728640	@ 0xf00000
  if (HAL_IS_BIT_CLR(hadc->Instance->CR1, ADC_CR1_SCAN) &&
 800255e:	2b00      	cmp	r3, #0
 8002560:	d12a      	bne.n	80025b8 <HAL_ADC_PollForConversion+0xb4>
  {
    /* Wait until End of Conversion flag is raised */
    while(HAL_IS_BIT_CLR(hadc->Instance->SR, ADC_FLAG_EOC))
 8002562:	e021      	b.n	80025a8 <HAL_ADC_PollForConversion+0xa4>
    {
      /* Check if timeout is disabled (set to infinite wait) */
      if(Timeout != HAL_MAX_DELAY)
 8002564:	683b      	ldr	r3, [r7, #0]
 8002566:	f1b3 3fff 	cmp.w	r3, #4294967295	@ 0xffffffff
 800256a:	d01d      	beq.n	80025a8 <HAL_ADC_PollForConversion+0xa4>
      {
        if((Timeout == 0U) || ((HAL_GetTick() - tickstart ) > Timeout))
 800256c:	683b      	ldr	r3, [r7, #0]
 800256e:	2b00      	cmp	r3, #0
 8002570:	d007      	beq.n	8002582 <HAL_ADC_PollForConversion+0x7e>
 8002572:	f7ff fde7 	bl	8002144 <HAL_GetTick>
 8002576:	4602      	mov	r2, r0
 8002578:	697b      	ldr	r3, [r7, #20]
 800257a:	1ad3      	subs	r3, r2, r3
 800257c:	683a      	ldr	r2, [r7, #0]
 800257e:	429a      	cmp	r2, r3
 8002580:	d212      	bcs.n	80025a8 <HAL_ADC_PollForConversion+0xa4>
        {
          /* New check to avoid false timeout detection in case of preemption */
          if(HAL_IS_BIT_CLR(hadc->Instance->SR, ADC_FLAG_EOC))
 8002582:	687b      	ldr	r3, [r7, #4]
 8002584:	681b      	ldr	r3, [r3, #0]
 8002586:	681b      	ldr	r3, [r3, #0]
 8002588:	f003 0302 	and.w	r3, r3, #2
 800258c:	2b00      	cmp	r3, #0
 800258e:	d10b      	bne.n	80025a8 <HAL_ADC_PollForConversion+0xa4>
          {
            /* Update ADC state machine to timeout */
            SET_BIT(hadc->State, HAL_ADC_STATE_TIMEOUT);
 8002590:	687b      	ldr	r3, [r7, #4]
 8002592:	6a9b      	ldr	r3, [r3, #40]	@ 0x28
 8002594:	f043 0204 	orr.w	r2, r3, #4
 8002598:	687b      	ldr	r3, [r7, #4]
 800259a:	629a      	str	r2, [r3, #40]	@ 0x28
            
            /* Process unlocked */
            __HAL_UNLOCK(hadc);
 800259c:	687b      	ldr	r3, [r7, #4]
 800259e:	2200      	movs	r2, #0
 80025a0:	f883 2024 	strb.w	r2, [r3, #36]	@ 0x24
            
            return HAL_TIMEOUT;
 80025a4:	2303      	movs	r3, #3
 80025a6:	e0a2      	b.n	80026ee <HAL_ADC_PollForConversion+0x1ea>
    while(HAL_IS_BIT_CLR(hadc->Instance->SR, ADC_FLAG_EOC))
 80025a8:	687b      	ldr	r3, [r7, #4]
 80025aa:	681b      	ldr	r3, [r3, #0]
 80025ac:	681b      	ldr	r3, [r3, #0]
 80025ae:	f003 0302 	and.w	r3, r3, #2
 80025b2:	2b00      	cmp	r3, #0
 80025b4:	d0d6      	beq.n	8002564 <HAL_ADC_PollForConversion+0x60>
  if (HAL_IS_BIT_CLR(hadc->Instance->CR1, ADC_CR1_SCAN) &&
 80025b6:	e070      	b.n	800269a <HAL_ADC_PollForConversion+0x196>
    /* Replace polling by wait for maximum conversion time */
    /*  - Computation of CPU clock cycles corresponding to ADC clock cycles   */
    /*    and ADC maximum conversion cycles on all channels.                  */
    /*  - Wait for the expected ADC clock cycles delay                        */
    Conversion_Timeout_CPU_cycles_max = ((SystemCoreClock
                                          / HAL_RCCEx_GetPeriphCLKFreq(RCC_PERIPHCLK_ADC))
 80025b8:	4b4f      	ldr	r3, [pc, #316]	@ (80026f8 <HAL_ADC_PollForConversion+0x1f4>)
 80025ba:	681c      	ldr	r4, [r3, #0]
 80025bc:	2002      	movs	r0, #2
 80025be:	f001 fd39 	bl	8004034 <HAL_RCCEx_GetPeriphCLKFreq>
 80025c2:	4603      	mov	r3, r0
 80025c4:	fbb4 f2f3 	udiv	r2, r4, r3
                                         * ADC_CONVCYCLES_MAX_RANGE(hadc)                 );
 80025c8:	687b      	ldr	r3, [r7, #4]
 80025ca:	681b      	ldr	r3, [r3, #0]
 80025cc:	6919      	ldr	r1, [r3, #16]
 80025ce:	4b4b      	ldr	r3, [pc, #300]	@ (80026fc <HAL_ADC_PollForConversion+0x1f8>)
 80025d0:	400b      	ands	r3, r1
 80025d2:	2b00      	cmp	r3, #0
 80025d4:	d118      	bne.n	8002608 <HAL_ADC_PollForConversion+0x104>
 80025d6:	687b      	ldr	r3, [r7, #4]
 80025d8:	681b      	ldr	r3, [r3, #0]
 80025da:	68d9      	ldr	r1, [r3, #12]
 80025dc:	4b48      	ldr	r3, [pc, #288]	@ (8002700 <HAL_ADC_PollForConversion+0x1fc>)
 80025de:	400b      	ands	r3, r1
 80025e0:	2b00      	cmp	r3, #0
 80025e2:	d111      	bne.n	8002608 <HAL_ADC_PollForConversion+0x104>
 80025e4:	687b      	ldr	r3, [r7, #4]
 80025e6:	681b      	ldr	r3, [r3, #0]
 80025e8:	6919      	ldr	r1, [r3, #16]
 80025ea:	4b46      	ldr	r3, [pc, #280]	@ (8002704 <HAL_ADC_PollForConversion+0x200>)
 80025ec:	400b      	ands	r3, r1
 80025ee:	2b00      	cmp	r3, #0
 80025f0:	d108      	bne.n	8002604 <HAL_ADC_PollForConversion+0x100>
 80025f2:	687b      	ldr	r3, [r7, #4]
 80025f4:	681b      	ldr	r3, [r3, #0]
 80025f6:	68d9      	ldr	r1, [r3, #12]
 80025f8:	4b43      	ldr	r3, [pc, #268]	@ (8002708 <HAL_ADC_PollForConversion+0x204>)
 80025fa:	400b      	ands	r3, r1
 80025fc:	2b00      	cmp	r3, #0
 80025fe:	d101      	bne.n	8002604 <HAL_ADC_PollForConversion+0x100>
 8002600:	2314      	movs	r3, #20
 8002602:	e020      	b.n	8002646 <HAL_ADC_PollForConversion+0x142>
 8002604:	2329      	movs	r3, #41	@ 0x29
 8002606:	e01e      	b.n	8002646 <HAL_ADC_PollForConversion+0x142>
 8002608:	687b      	ldr	r3, [r7, #4]
 800260a:	681b      	ldr	r3, [r3, #0]
 800260c:	6919      	ldr	r1, [r3, #16]
 800260e:	4b3d      	ldr	r3, [pc, #244]	@ (8002704 <HAL_ADC_PollForConversion+0x200>)
 8002610:	400b      	ands	r3, r1
 8002612:	2b00      	cmp	r3, #0
 8002614:	d106      	bne.n	8002624 <HAL_ADC_PollForConversion+0x120>
 8002616:	687b      	ldr	r3, [r7, #4]
 8002618:	681b      	ldr	r3, [r3, #0]
 800261a:	68d9      	ldr	r1, [r3, #12]
 800261c:	4b3a      	ldr	r3, [pc, #232]	@ (8002708 <HAL_ADC_PollForConversion+0x204>)
 800261e:	400b      	ands	r3, r1
 8002620:	2b00      	cmp	r3, #0
 8002622:	d00d      	beq.n	8002640 <HAL_ADC_PollForConversion+0x13c>
 8002624:	687b      	ldr	r3, [r7, #4]
 8002626:	681b      	ldr	r3, [r3, #0]
 8002628:	6919      	ldr	r1, [r3, #16]
 800262a:	4b38      	ldr	r3, [pc, #224]	@ (800270c <HAL_ADC_PollForConversion+0x208>)
 800262c:	400b      	ands	r3, r1
 800262e:	2b00      	cmp	r3, #0
 8002630:	d108      	bne.n	8002644 <HAL_ADC_PollForConversion+0x140>
 8002632:	687b      	ldr	r3, [r7, #4]
 8002634:	681b      	ldr	r3, [r3, #0]
 8002636:	68d9      	ldr	r1, [r3, #12]
 8002638:	4b34      	ldr	r3, [pc, #208]	@ (800270c <HAL_ADC_PollForConversion+0x208>)
 800263a:	400b      	ands	r3, r1
 800263c:	2b00      	cmp	r3, #0
 800263e:	d101      	bne.n	8002644 <HAL_ADC_PollForConversion+0x140>
 8002640:	2354      	movs	r3, #84	@ 0x54
 8002642:	e000      	b.n	8002646 <HAL_ADC_PollForConversion+0x142>
 8002644:	23fc      	movs	r3, #252	@ 0xfc
    Conversion_Timeout_CPU_cycles_max = ((SystemCoreClock
 8002646:	fb02 f303 	mul.w	r3, r2, r3
 800264a:	613b      	str	r3, [r7, #16]
    
    while(Conversion_Timeout_CPU_cycles < Conversion_Timeout_CPU_cycles_max)
 800264c:	e021      	b.n	8002692 <HAL_ADC_PollForConversion+0x18e>
    {
      /* Check if timeout is disabled (set to infinite wait) */
      if(Timeout != HAL_MAX_DELAY)
 800264e:	683b      	ldr	r3, [r7, #0]
 8002650:	f1b3 3fff 	cmp.w	r3, #4294967295	@ 0xffffffff
 8002654:	d01a      	beq.n	800268c <HAL_ADC_PollForConversion+0x188>
      {
        if((Timeout == 0U) || ((HAL_GetTick() - tickstart) > Timeout))
 8002656:	683b      	ldr	r3, [r7, #0]
 8002658:	2b00      	cmp	r3, #0
 800265a:	d007      	beq.n	800266c <HAL_ADC_PollForConversion+0x168>
 800265c:	f7ff fd72 	bl	8002144 <HAL_GetTick>
 8002660:	4602      	mov	r2, r0
 8002662:	697b      	ldr	r3, [r7, #20]
 8002664:	1ad3      	subs	r3, r2, r3
 8002666:	683a      	ldr	r2, [r7, #0]
 8002668:	429a      	cmp	r2, r3
 800266a:	d20f      	bcs.n	800268c <HAL_ADC_PollForConversion+0x188>
        {
          /* New check to avoid false timeout detection in case of preemption */
          if(Conversion_Timeout_CPU_cycles < Conversion_Timeout_CPU_cycles_max)
 800266c:	68fb      	ldr	r3, [r7, #12]
 800266e:	693a      	ldr	r2, [r7, #16]
 8002670:	429a      	cmp	r2, r3
 8002672:	d90b      	bls.n	800268c <HAL_ADC_PollForConversion+0x188>
          {
            /* Update ADC state machine to timeout */
            SET_BIT(hadc->State, HAL_ADC_STATE_TIMEOUT);
 8002674:	687b      	ldr	r3, [r7, #4]
 8002676:	6a9b      	ldr	r3, [r3, #40]	@ 0x28
 8002678:	f043 0204 	orr.w	r2, r3, #4
 800267c:	687b      	ldr	r3, [r7, #4]
 800267e:	629a      	str	r2, [r3, #40]	@ 0x28

            /* Process unlocked */
            __HAL_UNLOCK(hadc);
 8002680:	687b      	ldr	r3, [r7, #4]
 8002682:	2200      	movs	r2, #0
 8002684:	f883 2024 	strb.w	r2, [r3, #36]	@ 0x24

            return HAL_TIMEOUT;
 8002688:	2303      	movs	r3, #3
 800268a:	e030      	b.n	80026ee <HAL_ADC_PollForConversion+0x1ea>
          }
        }
      }
      Conversion_Timeout_CPU_cycles ++;
 800268c:	68fb      	ldr	r3, [r7, #12]
 800268e:	3301      	adds	r3, #1
 8002690:	60fb      	str	r3, [r7, #12]
    while(Conversion_Timeout_CPU_cycles < Conversion_Timeout_CPU_cycles_max)
 8002692:	68fb      	ldr	r3, [r7, #12]
 8002694:	693a      	ldr	r2, [r7, #16]
 8002696:	429a      	cmp	r2, r3
 8002698:	d8d9      	bhi.n	800264e <HAL_ADC_PollForConversion+0x14a>
    }
  }
  
  /* Clear regular group conversion flag */
  __HAL_ADC_CLEAR_FLAG(hadc, ADC_FLAG_STRT | ADC_FLAG_EOC);
 800269a:	687b      	ldr	r3, [r7, #4]
 800269c:	681b      	ldr	r3, [r3, #0]
 800269e:	f06f 0212 	mvn.w	r2, #18
 80026a2:	601a      	str	r2, [r3, #0]
  
  /* Update ADC state machine */
  SET_BIT(hadc->State, HAL_ADC_STATE_REG_EOC);
 80026a4:	687b      	ldr	r3, [r7, #4]
 80026a6:	6a9b      	ldr	r3, [r3, #40]	@ 0x28
 80026a8:	f443 7200 	orr.w	r2, r3, #512	@ 0x200
 80026ac:	687b      	ldr	r3, [r7, #4]
 80026ae:	629a      	str	r2, [r3, #40]	@ 0x28
  /* Determine whether any further conversion upcoming on group regular       */
  /* by external trigger, continuous mode or scan sequence on going.          */
  /* Note: On STM32F1 devices, in case of sequencer enabled                   */
  /*       (several ranks selected), end of conversion flag is raised         */
  /*       at the end of the sequence.                                        */
  if(ADC_IS_SOFTWARE_START_REGULAR(hadc)        && 
 80026b0:	687b      	ldr	r3, [r7, #4]
 80026b2:	681b      	ldr	r3, [r3, #0]
 80026b4:	689b      	ldr	r3, [r3, #8]
 80026b6:	f403 2360 	and.w	r3, r3, #917504	@ 0xe0000
 80026ba:	f5b3 2f60 	cmp.w	r3, #917504	@ 0xe0000
 80026be:	d115      	bne.n	80026ec <HAL_ADC_PollForConversion+0x1e8>
     (hadc->Init.ContinuousConvMode == DISABLE)   )
 80026c0:	687b      	ldr	r3, [r7, #4]
 80026c2:	7b1b      	ldrb	r3, [r3, #12]
  if(ADC_IS_SOFTWARE_START_REGULAR(hadc)        && 
 80026c4:	2b00      	cmp	r3, #0
 80026c6:	d111      	bne.n	80026ec <HAL_ADC_PollForConversion+0x1e8>
  {   
    /* Set ADC state */
    CLEAR_BIT(hadc->State, HAL_ADC_STATE_REG_BUSY);   
 80026c8:	687b      	ldr	r3, [r7, #4]
 80026ca:	6a9b      	ldr	r3, [r3, #40]	@ 0x28
 80026cc:	f423 7280 	bic.w	r2, r3, #256	@ 0x100
 80026d0:	687b      	ldr	r3, [r7, #4]
 80026d2:	629a      	str	r2, [r3, #40]	@ 0x28

    if (HAL_IS_BIT_CLR(hadc->State, HAL_ADC_STATE_INJ_BUSY))
 80026d4:	687b      	ldr	r3, [r7, #4]
 80026d6:	6a9b      	ldr	r3, [r3, #40]	@ 0x28
 80026d8:	f403 5380 	and.w	r3, r3, #4096	@ 0x1000
 80026dc:	2b00      	cmp	r3, #0
 80026de:	d105      	bne.n	80026ec <HAL_ADC_PollForConversion+0x1e8>
    { 
      SET_BIT(hadc->State, HAL_ADC_STATE_READY);
 80026e0:	687b      	ldr	r3, [r7, #4]
 80026e2:	6a9b      	ldr	r3, [r3, #40]	@ 0x28
 80026e4:	f043 0201 	orr.w	r2, r3, #1
 80026e8:	687b      	ldr	r3, [r7, #4]
 80026ea:	629a      	str	r2, [r3, #40]	@ 0x28
    }
  }
  
  /* Return ADC state */
  return HAL_OK;
 80026ec:	2300      	movs	r3, #0
}
 80026ee:	4618      	mov	r0, r3
 80026f0:	371c      	adds	r7, #28
 80026f2:	46bd      	mov	sp, r7
 80026f4:	bd90      	pop	{r4, r7, pc}
 80026f6:	bf00      	nop
 80026f8:	20000000 	.word	0x20000000
 80026fc:	24924924 	.word	0x24924924
 8002700:	00924924 	.word	0x00924924
 8002704:	12492492 	.word	0x12492492
 8002708:	00492492 	.word	0x00492492
 800270c:	00249249 	.word	0x00249249

08002710 <HAL_ADC_GetValue>:
  *         or @ref __HAL_ADC_CLEAR_FLAG(&hadc, ADC_FLAG_EOS).
  * @param  hadc: ADC handle
  * @retval ADC group regular conversion data
  */
uint32_t HAL_ADC_GetValue(ADC_HandleTypeDef* hadc)
{
 8002710:	b480      	push	{r7}
 8002712:	b083      	sub	sp, #12
 8002714:	af00      	add	r7, sp, #0
 8002716:	6078      	str	r0, [r7, #4]

  /* Note: EOC flag is not cleared here by software because automatically     */
  /*       cleared by hardware when reading register DR.                      */
  
  /* Return ADC converted value */ 
  return hadc->Instance->DR;
 8002718:	687b      	ldr	r3, [r7, #4]
 800271a:	681b      	ldr	r3, [r3, #0]
 800271c:	6cdb      	ldr	r3, [r3, #76]	@ 0x4c
}
 800271e:	4618      	mov	r0, r3
 8002720:	370c      	adds	r7, #12
 8002722:	46bd      	mov	sp, r7
 8002724:	bc80      	pop	{r7}
 8002726:	4770      	bx	lr

08002728 <HAL_ADC_ConfigChannel>:
  * @param  hadc: ADC handle
  * @param  sConfig: Structure of ADC channel for regular group.
  * @retval HAL status
  */
HAL_StatusTypeDef HAL_ADC_ConfigChannel(ADC_HandleTypeDef* hadc, ADC_ChannelConfTypeDef* sConfig)
{ 
 8002728:	b480      	push	{r7}
 800272a:	b085      	sub	sp, #20
 800272c:	af00      	add	r7, sp, #0
 800272e:	6078      	str	r0, [r7, #4]
 8002730:	6039      	str	r1, [r7, #0]
  HAL_StatusTypeDef tmp_hal_status = HAL_OK;
 8002732:	2300      	movs	r3, #0
 8002734:	73fb      	strb	r3, [r7, #15]
  __IO uint32_t wait_loop_index = 0U;
 8002736:	2300      	movs	r3, #0
 8002738:	60bb      	str	r3, [r7, #8]
  assert_param(IS_ADC_CHANNEL(sConfig->Channel));
  assert_param(IS_ADC_REGULAR_RANK(sConfig->Rank));
  assert_param(IS_ADC_SAMPLE_TIME(sConfig->SamplingTime));
  
  /* Process locked */
  __HAL_LOCK(hadc);
 800273a:	687b      	ldr	r3, [r7, #4]
 800273c:	f893 3024 	ldrb.w	r3, [r3, #36]	@ 0x24
 8002740:	2b01      	cmp	r3, #1
 8002742:	d101      	bne.n	8002748 <HAL_ADC_ConfigChannel+0x20>
 8002744:	2302      	movs	r3, #2
 8002746:	e0dc      	b.n	8002902 <HAL_ADC_ConfigChannel+0x1da>
 8002748:	687b      	ldr	r3, [r7, #4]
 800274a:	2201      	movs	r2, #1
 800274c:	f883 2024 	strb.w	r2, [r3, #36]	@ 0x24
  
  
  /* Regular sequence configuration */
  /* For Rank 1 to 6 */
  if (sConfig->Rank < 7U)
 8002750:	683b      	ldr	r3, [r7, #0]
 8002752:	685b      	ldr	r3, [r3, #4]
 8002754:	2b06      	cmp	r3, #6
 8002756:	d81c      	bhi.n	8002792 <HAL_ADC_ConfigChannel+0x6a>
  {
    MODIFY_REG(hadc->Instance->SQR3                        ,
 8002758:	687b      	ldr	r3, [r7, #4]
 800275a:	681b      	ldr	r3, [r3, #0]
 800275c:	6b59      	ldr	r1, [r3, #52]	@ 0x34
 800275e:	683b      	ldr	r3, [r7, #0]
 8002760:	685a      	ldr	r2, [r3, #4]
 8002762:	4613      	mov	r3, r2
 8002764:	009b      	lsls	r3, r3, #2
 8002766:	4413      	add	r3, r2
 8002768:	3b05      	subs	r3, #5
 800276a:	221f      	movs	r2, #31
 800276c:	fa02 f303 	lsl.w	r3, r2, r3
 8002770:	43db      	mvns	r3, r3
 8002772:	4019      	ands	r1, r3
 8002774:	683b      	ldr	r3, [r7, #0]
 8002776:	6818      	ldr	r0, [r3, #0]
 8002778:	683b      	ldr	r3, [r7, #0]
 800277a:	685a      	ldr	r2, [r3, #4]
 800277c:	4613      	mov	r3, r2
 800277e:	009b      	lsls	r3, r3, #2
 8002780:	4413      	add	r3, r2
 8002782:	3b05      	subs	r3, #5
 8002784:	fa00 f203 	lsl.w	r2, r0, r3
 8002788:	687b      	ldr	r3, [r7, #4]
 800278a:	681b      	ldr	r3, [r3, #0]
 800278c:	430a      	orrs	r2, r1
 800278e:	635a      	str	r2, [r3, #52]	@ 0x34
 8002790:	e03c      	b.n	800280c <HAL_ADC_ConfigChannel+0xe4>
               ADC_SQR3_RK(ADC_SQR3_SQ1, sConfig->Rank)    ,
               ADC_SQR3_RK(sConfig->Channel, sConfig->Rank) );
  }
  /* For Rank 7 to 12 */
  else if (sConfig->Rank < 13U)
 8002792:	683b      	ldr	r3, [r7, #0]
 8002794:	685b      	ldr	r3, [r3, #4]
 8002796:	2b0c      	cmp	r3, #12
 8002798:	d81c      	bhi.n	80027d4 <HAL_ADC_ConfigChannel+0xac>
  {
    MODIFY_REG(hadc->Instance->SQR2                        ,
 800279a:	687b      	ldr	r3, [r7, #4]
 800279c:	681b      	ldr	r3, [r3, #0]
 800279e:	6b19      	ldr	r1, [r3, #48]	@ 0x30
 80027a0:	683b      	ldr	r3, [r7, #0]
 80027a2:	685a      	ldr	r2, [r3, #4]
 80027a4:	4613      	mov	r3, r2
 80027a6:	009b      	lsls	r3, r3, #2
 80027a8:	4413      	add	r3, r2
 80027aa:	3b23      	subs	r3, #35	@ 0x23
 80027ac:	221f      	movs	r2, #31
 80027ae:	fa02 f303 	lsl.w	r3, r2, r3
 80027b2:	43db      	mvns	r3, r3
 80027b4:	4019      	ands	r1, r3
 80027b6:	683b      	ldr	r3, [r7, #0]
 80027b8:	6818      	ldr	r0, [r3, #0]
 80027ba:	683b      	ldr	r3, [r7, #0]
 80027bc:	685a      	ldr	r2, [r3, #4]
 80027be:	4613      	mov	r3, r2
 80027c0:	009b      	lsls	r3, r3, #2
 80027c2:	4413      	add	r3, r2
 80027c4:	3b23      	subs	r3, #35	@ 0x23
 80027c6:	fa00 f203 	lsl.w	r2, r0, r3
 80027ca:	687b      	ldr	r3, [r7, #4]
 80027cc:	681b      	ldr	r3, [r3, #0]
 80027ce:	430a      	orrs	r2, r1
 80027d0:	631a      	str	r2, [r3, #48]	@ 0x30
 80027d2:	e01b      	b.n	800280c <HAL_ADC_ConfigChannel+0xe4>
               ADC_SQR2_RK(sConfig->Channel, sConfig->Rank) );
  }
  /* For Rank 13 to 16 */
  else
  {
    MODIFY_REG(hadc->Instance->SQR1                        ,
 80027d4:	687b      	ldr	r3, [r7, #4]
 80027d6:	681b      	ldr	r3, [r3, #0]
 80027d8:	6ad9      	ldr	r1, [r3, #44]	@ 0x2c
 80027da:	683b      	ldr	r3, [r7, #0]
 80027dc:	685a      	ldr	r2, [r3, #4]
 80027de:	4613      	mov	r3, r2
 80027e0:	009b      	lsls	r3, r3, #2
 80027e2:	4413      	add	r3, r2
 80027e4:	3b41      	subs	r3, #65	@ 0x41
 80027e6:	221f      	movs	r2, #31
 80027e8:	fa02 f303 	lsl.w	r3, r2, r3
 80027ec:	43db      	mvns	r3, r3
 80027ee:	4019      	ands	r1, r3
 80027f0:	683b      	ldr	r3, [r7, #0]
 80027f2:	6818      	ldr	r0, [r3, #0]
 80027f4:	683b      	ldr	r3, [r7, #0]
 80027f6:	685a      	ldr	r2, [r3, #4]
 80027f8:	4613      	mov	r3, r2
 80027fa:	009b      	lsls	r3, r3, #2
 80027fc:	4413      	add	r3, r2
 80027fe:	3b41      	subs	r3, #65	@ 0x41
 8002800:	fa00 f203 	lsl.w	r2, r0, r3
 8002804:	687b      	ldr	r3, [r7, #4]
 8002806:	681b      	ldr	r3, [r3, #0]
 8002808:	430a      	orrs	r2, r1
 800280a:	62da      	str	r2, [r3, #44]	@ 0x2c
  }
  
  
  /* Channel sampling time configuration */
  /* For channels 10 to 17 */
  if (sConfig->Channel >= ADC_CHANNEL_10)
 800280c:	683b      	ldr	r3, [r7, #0]
 800280e:	681b      	ldr	r3, [r3, #0]
 8002810:	2b09      	cmp	r3, #9
 8002812:	d91c      	bls.n	800284e <HAL_ADC_ConfigChannel+0x126>
  {
    MODIFY_REG(hadc->Instance->SMPR1                             ,
 8002814:	687b      	ldr	r3, [r7, #4]
 8002816:	681b      	ldr	r3, [r3, #0]
 8002818:	68d9      	ldr	r1, [r3, #12]
 800281a:	683b      	ldr	r3, [r7, #0]
 800281c:	681a      	ldr	r2, [r3, #0]
 800281e:	4613      	mov	r3, r2
 8002820:	005b      	lsls	r3, r3, #1
 8002822:	4413      	add	r3, r2
 8002824:	3b1e      	subs	r3, #30
 8002826:	2207      	movs	r2, #7
 8002828:	fa02 f303 	lsl.w	r3, r2, r3
 800282c:	43db      	mvns	r3, r3
 800282e:	4019      	ands	r1, r3
 8002830:	683b      	ldr	r3, [r7, #0]
 8002832:	6898      	ldr	r0, [r3, #8]
 8002834:	683b      	ldr	r3, [r7, #0]
 8002836:	681a      	ldr	r2, [r3, #0]
 8002838:	4613      	mov	r3, r2
 800283a:	005b      	lsls	r3, r3, #1
 800283c:	4413      	add	r3, r2
 800283e:	3b1e      	subs	r3, #30
 8002840:	fa00 f203 	lsl.w	r2, r0, r3
 8002844:	687b      	ldr	r3, [r7, #4]
 8002846:	681b      	ldr	r3, [r3, #0]
 8002848:	430a      	orrs	r2, r1
 800284a:	60da      	str	r2, [r3, #12]
 800284c:	e019      	b.n	8002882 <HAL_ADC_ConfigChannel+0x15a>
               ADC_SMPR1(ADC_SMPR1_SMP10, sConfig->Channel)      ,
               ADC_SMPR1(sConfig->SamplingTime, sConfig->Channel) );
  }
  else /* For channels 0 to 9 */
  {
    MODIFY_REG(hadc->Instance->SMPR2                             ,
 800284e:	687b      	ldr	r3, [r7, #4]
 8002850:	681b      	ldr	r3, [r3, #0]
 8002852:	6919      	ldr	r1, [r3, #16]
 8002854:	683b      	ldr	r3, [r7, #0]
 8002856:	681a      	ldr	r2, [r3, #0]
 8002858:	4613      	mov	r3, r2
 800285a:	005b      	lsls	r3, r3, #1
 800285c:	4413      	add	r3, r2
 800285e:	2207      	movs	r2, #7
 8002860:	fa02 f303 	lsl.w	r3, r2, r3
 8002864:	43db      	mvns	r3, r3
 8002866:	4019      	ands	r1, r3
 8002868:	683b      	ldr	r3, [r7, #0]
 800286a:	6898      	ldr	r0, [r3, #8]
 800286c:	683b      	ldr	r3, [r7, #0]
 800286e:	681a      	ldr	r2, [r3, #0]
 8002870:	4613      	mov	r3, r2
 8002872:	005b      	lsls	r3, r3, #1
 8002874:	4413      	add	r3, r2
 8002876:	fa00 f203 	lsl.w	r2, r0, r3
 800287a:	687b      	ldr	r3, [r7, #4]
 800287c:	681b      	ldr	r3, [r3, #0]
 800287e:	430a      	orrs	r2, r1
 8002880:	611a      	str	r2, [r3, #16]
               ADC_SMPR2(sConfig->SamplingTime, sConfig->Channel) );
  }
  
  /* If ADC1 Channel_16 or Channel_17 is selected, enable Temperature sensor  */
  /* and VREFINT measurement path.                                            */
  if ((sConfig->Channel == ADC_CHANNEL_TEMPSENSOR) ||
 8002882:	683b      	ldr	r3, [r7, #0]
 8002884:	681b      	ldr	r3, [r3, #0]
 8002886:	2b10      	cmp	r3, #16
 8002888:	d003      	beq.n	8002892 <HAL_ADC_ConfigChannel+0x16a>
      (sConfig->Channel == ADC_CHANNEL_VREFINT)      )
 800288a:	683b      	ldr	r3, [r7, #0]
 800288c:	681b      	ldr	r3, [r3, #0]
  if ((sConfig->Channel == ADC_CHANNEL_TEMPSENSOR) ||
 800288e:	2b11      	cmp	r3, #17
 8002890:	d132      	bne.n	80028f8 <HAL_ADC_ConfigChannel+0x1d0>
  {
    /* For STM32F1 devices with several ADC: Only ADC1 can access internal    */
    /* measurement channels (VrefInt/TempSensor). If these channels are       */
    /* intended to be set on other ADC instances, an error is reported.       */
    if (hadc->Instance == ADC1)
 8002892:	687b      	ldr	r3, [r7, #4]
 8002894:	681b      	ldr	r3, [r3, #0]
 8002896:	4a1d      	ldr	r2, [pc, #116]	@ (800290c <HAL_ADC_ConfigChannel+0x1e4>)
 8002898:	4293      	cmp	r3, r2
 800289a:	d125      	bne.n	80028e8 <HAL_ADC_ConfigChannel+0x1c0>
    {
      if (READ_BIT(hadc->Instance->CR2, ADC_CR2_TSVREFE) == RESET)
 800289c:	687b      	ldr	r3, [r7, #4]
 800289e:	681b      	ldr	r3, [r3, #0]
 80028a0:	689b      	ldr	r3, [r3, #8]
 80028a2:	f403 0300 	and.w	r3, r3, #8388608	@ 0x800000
 80028a6:	2b00      	cmp	r3, #0
 80028a8:	d126      	bne.n	80028f8 <HAL_ADC_ConfigChannel+0x1d0>
      {
        SET_BIT(hadc->Instance->CR2, ADC_CR2_TSVREFE);
 80028aa:	687b      	ldr	r3, [r7, #4]
 80028ac:	681b      	ldr	r3, [r3, #0]
 80028ae:	689a      	ldr	r2, [r3, #8]
 80028b0:	687b      	ldr	r3, [r7, #4]
 80028b2:	681b      	ldr	r3, [r3, #0]
 80028b4:	f442 0200 	orr.w	r2, r2, #8388608	@ 0x800000
 80028b8:	609a      	str	r2, [r3, #8]
        
        if (sConfig->Channel == ADC_CHANNEL_TEMPSENSOR)
 80028ba:	683b      	ldr	r3, [r7, #0]
 80028bc:	681b      	ldr	r3, [r3, #0]
 80028be:	2b10      	cmp	r3, #16
 80028c0:	d11a      	bne.n	80028f8 <HAL_ADC_ConfigChannel+0x1d0>
        {
          /* Delay for temperature sensor stabilization time */
          /* Compute number of CPU cycles to wait for */
          wait_loop_index = (ADC_TEMPSENSOR_DELAY_US * (SystemCoreClock / 1000000U));
 80028c2:	4b13      	ldr	r3, [pc, #76]	@ (8002910 <HAL_ADC_ConfigChannel+0x1e8>)
 80028c4:	681b      	ldr	r3, [r3, #0]
 80028c6:	4a13      	ldr	r2, [pc, #76]	@ (8002914 <HAL_ADC_ConfigChannel+0x1ec>)
 80028c8:	fba2 2303 	umull	r2, r3, r2, r3
 80028cc:	0c9a      	lsrs	r2, r3, #18
 80028ce:	4613      	mov	r3, r2
 80028d0:	009b      	lsls	r3, r3, #2
 80028d2:	4413      	add	r3, r2
 80028d4:	005b      	lsls	r3, r3, #1
 80028d6:	60bb      	str	r3, [r7, #8]
          while(wait_loop_index != 0U)
 80028d8:	e002      	b.n	80028e0 <HAL_ADC_ConfigChannel+0x1b8>
          {
            wait_loop_index--;
 80028da:	68bb      	ldr	r3, [r7, #8]
 80028dc:	3b01      	subs	r3, #1
 80028de:	60bb      	str	r3, [r7, #8]
          while(wait_loop_index != 0U)
 80028e0:	68bb      	ldr	r3, [r7, #8]
 80028e2:	2b00      	cmp	r3, #0
 80028e4:	d1f9      	bne.n	80028da <HAL_ADC_ConfigChannel+0x1b2>
 80028e6:	e007      	b.n	80028f8 <HAL_ADC_ConfigChannel+0x1d0>
      }
    }
    else
    {
      /* Update ADC state machine to error */
      SET_BIT(hadc->State, HAL_ADC_STATE_ERROR_CONFIG);
 80028e8:	687b      	ldr	r3, [r7, #4]
 80028ea:	6a9b      	ldr	r3, [r3, #40]	@ 0x28
 80028ec:	f043 0220 	orr.w	r2, r3, #32
 80028f0:	687b      	ldr	r3, [r7, #4]
 80028f2:	629a      	str	r2, [r3, #40]	@ 0x28
      
      tmp_hal_status = HAL_ERROR;
 80028f4:	2301      	movs	r3, #1
 80028f6:	73fb      	strb	r3, [r7, #15]
    }
  }
  
  /* Process unlocked */
  __HAL_UNLOCK(hadc);
 80028f8:	687b      	ldr	r3, [r7, #4]
 80028fa:	2200      	movs	r2, #0
 80028fc:	f883 2024 	strb.w	r2, [r3, #36]	@ 0x24
  
  /* Return function status */
  return tmp_hal_status;
 8002900:	7bfb      	ldrb	r3, [r7, #15]
}
 8002902:	4618      	mov	r0, r3
 8002904:	3714      	adds	r7, #20
 8002906:	46bd      	mov	sp, r7
 8002908:	bc80      	pop	{r7}
 800290a:	4770      	bx	lr
 800290c:	40012400 	.word	0x40012400
 8002910:	20000000 	.word	0x20000000
 8002914:	431bde83 	.word	0x431bde83

08002918 <ADC_Enable>:
  *         and voltage regulator must be enabled (done into HAL_ADC_Init()).
  * @param  hadc: ADC handle
  * @retval HAL status.
  */
HAL_StatusTypeDef ADC_Enable(ADC_HandleTypeDef* hadc)
{
 8002918:	b580      	push	{r7, lr}
 800291a:	b084      	sub	sp, #16
 800291c:	af00      	add	r7, sp, #0
 800291e:	6078      	str	r0, [r7, #4]
  uint32_t tickstart = 0U;
 8002920:	2300      	movs	r3, #0
 8002922:	60fb      	str	r3, [r7, #12]
  __IO uint32_t wait_loop_index = 0U;
 8002924:	2300      	movs	r3, #0
 8002926:	60bb      	str	r3, [r7, #8]
  
  /* ADC enable and wait for ADC ready (in case of ADC is disabled or         */
  /* enabling phase not yet completed: flag ADC ready not yet set).           */
  /* Timeout implemented to not be stuck if ADC cannot be enabled (possible   */
  /* causes: ADC clock not running, ...).                                     */
  if (ADC_IS_ENABLE(hadc) == RESET)
 8002928:	687b      	ldr	r3, [r7, #4]
 800292a:	681b      	ldr	r3, [r3, #0]
 800292c:	689b      	ldr	r3, [r3, #8]
 800292e:	f003 0301 	and.w	r3, r3, #1
 8002932:	2b01      	cmp	r3, #1
 8002934:	d040      	beq.n	80029b8 <ADC_Enable+0xa0>
  {
    /* Enable the Peripheral */
    __HAL_ADC_ENABLE(hadc);
 8002936:	687b      	ldr	r3, [r7, #4]
 8002938:	681b      	ldr	r3, [r3, #0]
 800293a:	689a      	ldr	r2, [r3, #8]
 800293c:	687b      	ldr	r3, [r7, #4]
 800293e:	681b      	ldr	r3, [r3, #0]
 8002940:	f042 0201 	orr.w	r2, r2, #1
 8002944:	609a      	str	r2, [r3, #8]
    
    /* Delay for ADC stabilization time */
    /* Compute number of CPU cycles to wait for */
    wait_loop_index = (ADC_STAB_DELAY_US * (SystemCoreClock / 1000000U));
 8002946:	4b1f      	ldr	r3, [pc, #124]	@ (80029c4 <ADC_Enable+0xac>)
 8002948:	681b      	ldr	r3, [r3, #0]
 800294a:	4a1f      	ldr	r2, [pc, #124]	@ (80029c8 <ADC_Enable+0xb0>)
 800294c:	fba2 2303 	umull	r2, r3, r2, r3
 8002950:	0c9b      	lsrs	r3, r3, #18
 8002952:	60bb      	str	r3, [r7, #8]
    while(wait_loop_index != 0U)
 8002954:	e002      	b.n	800295c <ADC_Enable+0x44>
    {
      wait_loop_index--;
 8002956:	68bb      	ldr	r3, [r7, #8]
 8002958:	3b01      	subs	r3, #1
 800295a:	60bb      	str	r3, [r7, #8]
    while(wait_loop_index != 0U)
 800295c:	68bb      	ldr	r3, [r7, #8]
 800295e:	2b00      	cmp	r3, #0
 8002960:	d1f9      	bne.n	8002956 <ADC_Enable+0x3e>
    }
    
    /* Get tick count */
    tickstart = HAL_GetTick();
 8002962:	f7ff fbef 	bl	8002144 <HAL_GetTick>
 8002966:	60f8      	str	r0, [r7, #12]

    /* Wait for ADC effectively enabled */
    while(ADC_IS_ENABLE(hadc) == RESET)
 8002968:	e01f      	b.n	80029aa <ADC_Enable+0x92>
    {
      if((HAL_GetTick() - tickstart) > ADC_ENABLE_TIMEOUT)
 800296a:	f7ff fbeb 	bl	8002144 <HAL_GetTick>
 800296e:	4602      	mov	r2, r0
 8002970:	68fb      	ldr	r3, [r7, #12]
 8002972:	1ad3      	subs	r3, r2, r3
 8002974:	2b02      	cmp	r3, #2
 8002976:	d918      	bls.n	80029aa <ADC_Enable+0x92>
      {
        /* New check to avoid false timeout detection in case of preemption */
        if(ADC_IS_ENABLE(hadc) == RESET)
 8002978:	687b      	ldr	r3, [r7, #4]
 800297a:	681b      	ldr	r3, [r3, #0]
 800297c:	689b      	ldr	r3, [r3, #8]
 800297e:	f003 0301 	and.w	r3, r3, #1
 8002982:	2b01      	cmp	r3, #1
 8002984:	d011      	beq.n	80029aa <ADC_Enable+0x92>
        {
          /* Update ADC state machine to error */
          SET_BIT(hadc->State, HAL_ADC_STATE_ERROR_INTERNAL);
 8002986:	687b      	ldr	r3, [r7, #4]
 8002988:	6a9b      	ldr	r3, [r3, #40]	@ 0x28
 800298a:	f043 0210 	orr.w	r2, r3, #16
 800298e:	687b      	ldr	r3, [r7, #4]
 8002990:	629a      	str	r2, [r3, #40]	@ 0x28

          /* Set ADC error code to ADC IP internal error */
          SET_BIT(hadc->ErrorCode, HAL_ADC_ERROR_INTERNAL);
 8002992:	687b      	ldr	r3, [r7, #4]
 8002994:	6adb      	ldr	r3, [r3, #44]	@ 0x2c
 8002996:	f043 0201 	orr.w	r2, r3, #1
 800299a:	687b      	ldr	r3, [r7, #4]
 800299c:	62da      	str	r2, [r3, #44]	@ 0x2c

          /* Process unlocked */
          __HAL_UNLOCK(hadc);
 800299e:	687b      	ldr	r3, [r7, #4]
 80029a0:	2200      	movs	r2, #0
 80029a2:	f883 2024 	strb.w	r2, [r3, #36]	@ 0x24

          return HAL_ERROR;
 80029a6:	2301      	movs	r3, #1
 80029a8:	e007      	b.n	80029ba <ADC_Enable+0xa2>
    while(ADC_IS_ENABLE(hadc) == RESET)
 80029aa:	687b      	ldr	r3, [r7, #4]
 80029ac:	681b      	ldr	r3, [r3, #0]
 80029ae:	689b      	ldr	r3, [r3, #8]
 80029b0:	f003 0301 	and.w	r3, r3, #1
 80029b4:	2b01      	cmp	r3, #1
 80029b6:	d1d8      	bne.n	800296a <ADC_Enable+0x52>
      }
    }
  }
   
  /* Return HAL status */
  return HAL_OK;
 80029b8:	2300      	movs	r3, #0
}
 80029ba:	4618      	mov	r0, r3
 80029bc:	3710      	adds	r7, #16
 80029be:	46bd      	mov	sp, r7
 80029c0:	bd80      	pop	{r7, pc}
 80029c2:	bf00      	nop
 80029c4:	20000000 	.word	0x20000000
 80029c8:	431bde83 	.word	0x431bde83

080029cc <ADC_ConversionStop_Disable>:
  *         stopped to disable the ADC.
  * @param  hadc: ADC handle
  * @retval HAL status.
  */
HAL_StatusTypeDef ADC_ConversionStop_Disable(ADC_HandleTypeDef* hadc)
{
 80029cc:	b580      	push	{r7, lr}
 80029ce:	b084      	sub	sp, #16
 80029d0:	af00      	add	r7, sp, #0
 80029d2:	6078      	str	r0, [r7, #4]
  uint32_t tickstart = 0U;
 80029d4:	2300      	movs	r3, #0
 80029d6:	60fb      	str	r3, [r7, #12]
  
  /* Verification if ADC is not already disabled */
  if (ADC_IS_ENABLE(hadc) != RESET)
 80029d8:	687b      	ldr	r3, [r7, #4]
 80029da:	681b      	ldr	r3, [r3, #0]
 80029dc:	689b      	ldr	r3, [r3, #8]
 80029de:	f003 0301 	and.w	r3, r3, #1
 80029e2:	2b01      	cmp	r3, #1
 80029e4:	d12e      	bne.n	8002a44 <ADC_ConversionStop_Disable+0x78>
  {
    /* Disable the ADC peripheral */
    __HAL_ADC_DISABLE(hadc);
 80029e6:	687b      	ldr	r3, [r7, #4]
 80029e8:	681b      	ldr	r3, [r3, #0]
 80029ea:	689a      	ldr	r2, [r3, #8]
 80029ec:	687b      	ldr	r3, [r7, #4]
 80029ee:	681b      	ldr	r3, [r3, #0]
 80029f0:	f022 0201 	bic.w	r2, r2, #1
 80029f4:	609a      	str	r2, [r3, #8]
     
    /* Get tick count */
    tickstart = HAL_GetTick();
 80029f6:	f7ff fba5 	bl	8002144 <HAL_GetTick>
 80029fa:	60f8      	str	r0, [r7, #12]
    
    /* Wait for ADC effectively disabled */
    while(ADC_IS_ENABLE(hadc) != RESET)
 80029fc:	e01b      	b.n	8002a36 <ADC_ConversionStop_Disable+0x6a>
    {
      if((HAL_GetTick() - tickstart) > ADC_DISABLE_TIMEOUT)
 80029fe:	f7ff fba1 	bl	8002144 <HAL_GetTick>
 8002a02:	4602      	mov	r2, r0
 8002a04:	68fb      	ldr	r3, [r7, #12]
 8002a06:	1ad3      	subs	r3, r2, r3
 8002a08:	2b02      	cmp	r3, #2
 8002a0a:	d914      	bls.n	8002a36 <ADC_ConversionStop_Disable+0x6a>
      {
        /* New check to avoid false timeout detection in case of preemption */
        if(ADC_IS_ENABLE(hadc) != RESET)
 8002a0c:	687b      	ldr	r3, [r7, #4]
 8002a0e:	681b      	ldr	r3, [r3, #0]
 8002a10:	689b      	ldr	r3, [r3, #8]
 8002a12:	f003 0301 	and.w	r3, r3, #1
 8002a16:	2b01      	cmp	r3, #1
 8002a18:	d10d      	bne.n	8002a36 <ADC_ConversionStop_Disable+0x6a>
        {
          /* Update ADC state machine to error */
          SET_BIT(hadc->State, HAL_ADC_STATE_ERROR_INTERNAL);
 8002a1a:	687b      	ldr	r3, [r7, #4]
 8002a1c:	6a9b      	ldr	r3, [r3, #40]	@ 0x28
 8002a1e:	f043 0210 	orr.w	r2, r3, #16
 8002a22:	687b      	ldr	r3, [r7, #4]
 8002a24:	629a      	str	r2, [r3, #40]	@ 0x28

          /* Set ADC error code to ADC IP internal error */
          SET_BIT(hadc->ErrorCode, HAL_ADC_ERROR_INTERNAL);
 8002a26:	687b      	ldr	r3, [r7, #4]
 8002a28:	6adb      	ldr	r3, [r3, #44]	@ 0x2c
 8002a2a:	f043 0201 	orr.w	r2, r3, #1
 8002a2e:	687b      	ldr	r3, [r7, #4]
 8002a30:	62da      	str	r2, [r3, #44]	@ 0x2c

          return HAL_ERROR;
 8002a32:	2301      	movs	r3, #1
 8002a34:	e007      	b.n	8002a46 <ADC_ConversionStop_Disable+0x7a>
    while(ADC_IS_ENABLE(hadc) != RESET)
 8002a36:	687b      	ldr	r3, [r7, #4]
 8002a38:	681b      	ldr	r3, [r3, #0]
 8002a3a:	689b      	ldr	r3, [r3, #8]
 8002a3c:	f003 0301 	and.w	r3, r3, #1
 8002a40:	2b01      	cmp	r3, #1
 8002a42:	d0dc      	beq.n	80029fe <ADC_ConversionStop_Disable+0x32>
      }
    }
  }
  
  /* Return HAL status */
  return HAL_OK;
 8002a44:	2300      	movs	r3, #0
}
 8002a46:	4618      	mov	r0, r3
 8002a48:	3710      	adds	r7, #16
 8002a4a:	46bd      	mov	sp, r7
 8002a4c:	bd80      	pop	{r7, pc}
	...

08002a50 <HAL_ADCEx_Calibration_Start>:
  *         the completion of this function.
  * @param  hadc: ADC handle
  * @retval HAL status
  */
HAL_StatusTypeDef HAL_ADCEx_Calibration_Start(ADC_HandleTypeDef* hadc)
{
 8002a50:	b590      	push	{r4, r7, lr}
 8002a52:	b087      	sub	sp, #28
 8002a54:	af00      	add	r7, sp, #0
 8002a56:	6078      	str	r0, [r7, #4]
  HAL_StatusTypeDef tmp_hal_status = HAL_OK;
 8002a58:	2300      	movs	r3, #0
 8002a5a:	75fb      	strb	r3, [r7, #23]
  uint32_t tickstart;
  __IO uint32_t wait_loop_index = 0U;
 8002a5c:	2300      	movs	r3, #0
 8002a5e:	60fb      	str	r3, [r7, #12]
  
  /* Check the parameters */
  assert_param(IS_ADC_ALL_INSTANCE(hadc->Instance));

  /* Process locked */
  __HAL_LOCK(hadc);
 8002a60:	687b      	ldr	r3, [r7, #4]
 8002a62:	f893 3024 	ldrb.w	r3, [r3, #36]	@ 0x24
 8002a66:	2b01      	cmp	r3, #1
 8002a68:	d101      	bne.n	8002a6e <HAL_ADCEx_Calibration_Start+0x1e>
 8002a6a:	2302      	movs	r3, #2
 8002a6c:	e097      	b.n	8002b9e <HAL_ADCEx_Calibration_Start+0x14e>
 8002a6e:	687b      	ldr	r3, [r7, #4]
 8002a70:	2201      	movs	r2, #1
 8002a72:	f883 2024 	strb.w	r2, [r3, #36]	@ 0x24
    
   /* 1. Disable ADC peripheral                                                 */
   tmp_hal_status = ADC_ConversionStop_Disable(hadc);
 8002a76:	6878      	ldr	r0, [r7, #4]
 8002a78:	f7ff ffa8 	bl	80029cc <ADC_ConversionStop_Disable>
 8002a7c:	4603      	mov	r3, r0
 8002a7e:	75fb      	strb	r3, [r7, #23]
  
   /* 2. Calibration prerequisite delay before starting the calibration.       */
   /*    - ADC must be enabled for at least two ADC clock cycles               */
   tmp_hal_status = ADC_Enable(hadc);
 8002a80:	6878      	ldr	r0, [r7, #4]
 8002a82:	f7ff ff49 	bl	8002918 <ADC_Enable>
 8002a86:	4603      	mov	r3, r0
 8002a88:	75fb      	strb	r3, [r7, #23]

   /* Check if ADC is effectively enabled */
   if (tmp_hal_status == HAL_OK)
 8002a8a:	7dfb      	ldrb	r3, [r7, #23]
 8002a8c:	2b00      	cmp	r3, #0
 8002a8e:	f040 8081 	bne.w	8002b94 <HAL_ADCEx_Calibration_Start+0x144>
   {
     /* Set ADC state */
     ADC_STATE_CLR_SET(hadc->State,
 8002a92:	687b      	ldr	r3, [r7, #4]
 8002a94:	6a9b      	ldr	r3, [r3, #40]	@ 0x28
 8002a96:	f423 5388 	bic.w	r3, r3, #4352	@ 0x1100
 8002a9a:	f023 0302 	bic.w	r3, r3, #2
 8002a9e:	f043 0202 	orr.w	r2, r3, #2
 8002aa2:	687b      	ldr	r3, [r7, #4]
 8002aa4:	629a      	str	r2, [r3, #40]	@ 0x28
    
    /* Hardware prerequisite: delay before starting the calibration.          */
    /*  - Computation of CPU clock cycles corresponding to ADC clock cycles.  */
    /*  - Wait for the expected ADC clock cycles delay */
    wait_loop_index = ((SystemCoreClock
                        / HAL_RCCEx_GetPeriphCLKFreq(RCC_PERIPHCLK_ADC))
 8002aa6:	4b40      	ldr	r3, [pc, #256]	@ (8002ba8 <HAL_ADCEx_Calibration_Start+0x158>)
 8002aa8:	681c      	ldr	r4, [r3, #0]
 8002aaa:	2002      	movs	r0, #2
 8002aac:	f001 fac2 	bl	8004034 <HAL_RCCEx_GetPeriphCLKFreq>
 8002ab0:	4603      	mov	r3, r0
 8002ab2:	fbb4 f3f3 	udiv	r3, r4, r3
                       * ADC_PRECALIBRATION_DELAY_ADCCLOCKCYCLES        );
 8002ab6:	005b      	lsls	r3, r3, #1
    wait_loop_index = ((SystemCoreClock
 8002ab8:	60fb      	str	r3, [r7, #12]

    while(wait_loop_index != 0U)
 8002aba:	e002      	b.n	8002ac2 <HAL_ADCEx_Calibration_Start+0x72>
    {
      wait_loop_index--;
 8002abc:	68fb      	ldr	r3, [r7, #12]
 8002abe:	3b01      	subs	r3, #1
 8002ac0:	60fb      	str	r3, [r7, #12]
    while(wait_loop_index != 0U)
 8002ac2:	68fb      	ldr	r3, [r7, #12]
 8002ac4:	2b00      	cmp	r3, #0
 8002ac6:	d1f9      	bne.n	8002abc <HAL_ADCEx_Calibration_Start+0x6c>
    }

    /* 3. Resets ADC calibration registers */  
    SET_BIT(hadc->Instance->CR2, ADC_CR2_RSTCAL);
 8002ac8:	687b      	ldr	r3, [r7, #4]
 8002aca:	681b      	ldr	r3, [r3, #0]
 8002acc:	689a      	ldr	r2, [r3, #8]
 8002ace:	687b      	ldr	r3, [r7, #4]
 8002ad0:	681b      	ldr	r3, [r3, #0]
 8002ad2:	f042 0208 	orr.w	r2, r2, #8
 8002ad6:	609a      	str	r2, [r3, #8]
    
    tickstart = HAL_GetTick();  
 8002ad8:	f7ff fb34 	bl	8002144 <HAL_GetTick>
 8002adc:	6138      	str	r0, [r7, #16]

    /* Wait for calibration reset completion */
    while(HAL_IS_BIT_SET(hadc->Instance->CR2, ADC_CR2_RSTCAL))
 8002ade:	e01b      	b.n	8002b18 <HAL_ADCEx_Calibration_Start+0xc8>
    {
      if((HAL_GetTick() - tickstart) > ADC_CALIBRATION_TIMEOUT)
 8002ae0:	f7ff fb30 	bl	8002144 <HAL_GetTick>
 8002ae4:	4602      	mov	r2, r0
 8002ae6:	693b      	ldr	r3, [r7, #16]
 8002ae8:	1ad3      	subs	r3, r2, r3
 8002aea:	2b0a      	cmp	r3, #10
 8002aec:	d914      	bls.n	8002b18 <HAL_ADCEx_Calibration_Start+0xc8>
      {
        /* New check to avoid false timeout detection in case of preemption */
        if(HAL_IS_BIT_SET(hadc->Instance->CR2, ADC_CR2_RSTCAL))
 8002aee:	687b      	ldr	r3, [r7, #4]
 8002af0:	681b      	ldr	r3, [r3, #0]
 8002af2:	689b      	ldr	r3, [r3, #8]
 8002af4:	f003 0308 	and.w	r3, r3, #8
 8002af8:	2b00      	cmp	r3, #0
 8002afa:	d00d      	beq.n	8002b18 <HAL_ADCEx_Calibration_Start+0xc8>
        {
          /* Update ADC state machine to error */
          ADC_STATE_CLR_SET(hadc->State,
 8002afc:	687b      	ldr	r3, [r7, #4]
 8002afe:	6a9b      	ldr	r3, [r3, #40]	@ 0x28
 8002b00:	f023 0312 	bic.w	r3, r3, #18
 8002b04:	f043 0210 	orr.w	r2, r3, #16
 8002b08:	687b      	ldr	r3, [r7, #4]
 8002b0a:	629a      	str	r2, [r3, #40]	@ 0x28
                            HAL_ADC_STATE_BUSY_INTERNAL,
                            HAL_ADC_STATE_ERROR_INTERNAL);

          /* Process unlocked */
          __HAL_UNLOCK(hadc);
 8002b0c:	687b      	ldr	r3, [r7, #4]
 8002b0e:	2200      	movs	r2, #0
 8002b10:	f883 2024 	strb.w	r2, [r3, #36]	@ 0x24

          return HAL_ERROR;
 8002b14:	2301      	movs	r3, #1
 8002b16:	e042      	b.n	8002b9e <HAL_ADCEx_Calibration_Start+0x14e>
    while(HAL_IS_BIT_SET(hadc->Instance->CR2, ADC_CR2_RSTCAL))
 8002b18:	687b      	ldr	r3, [r7, #4]
 8002b1a:	681b      	ldr	r3, [r3, #0]
 8002b1c:	689b      	ldr	r3, [r3, #8]
 8002b1e:	f003 0308 	and.w	r3, r3, #8
 8002b22:	2b00      	cmp	r3, #0
 8002b24:	d1dc      	bne.n	8002ae0 <HAL_ADCEx_Calibration_Start+0x90>
        }
      }
    }
    
    /* 4. Start ADC calibration */
    SET_BIT(hadc->Instance->CR2, ADC_CR2_CAL);
 8002b26:	687b      	ldr	r3, [r7, #4]
 8002b28:	681b      	ldr	r3, [r3, #0]
 8002b2a:	689a      	ldr	r2, [r3, #8]
 8002b2c:	687b      	ldr	r3, [r7, #4]
 8002b2e:	681b      	ldr	r3, [r3, #0]
 8002b30:	f042 0204 	orr.w	r2, r2, #4
 8002b34:	609a      	str	r2, [r3, #8]
    
    tickstart = HAL_GetTick();  
 8002b36:	f7ff fb05 	bl	8002144 <HAL_GetTick>
 8002b3a:	6138      	str	r0, [r7, #16]

    /* Wait for calibration completion */
    while(HAL_IS_BIT_SET(hadc->Instance->CR2, ADC_CR2_CAL))
 8002b3c:	e01b      	b.n	8002b76 <HAL_ADCEx_Calibration_Start+0x126>
    {
      if((HAL_GetTick() - tickstart) > ADC_CALIBRATION_TIMEOUT)
 8002b3e:	f7ff fb01 	bl	8002144 <HAL_GetTick>
 8002b42:	4602      	mov	r2, r0
 8002b44:	693b      	ldr	r3, [r7, #16]
 8002b46:	1ad3      	subs	r3, r2, r3
 8002b48:	2b0a      	cmp	r3, #10
 8002b4a:	d914      	bls.n	8002b76 <HAL_ADCEx_Calibration_Start+0x126>
      {
        /* New check to avoid false timeout detection in case of preemption */
        if(HAL_IS_BIT_SET(hadc->Instance->CR2, ADC_CR2_CAL))
 8002b4c:	687b      	ldr	r3, [r7, #4]
 8002b4e:	681b      	ldr	r3, [r3, #0]
 8002b50:	689b      	ldr	r3, [r3, #8]
 8002b52:	f003 0304 	and.w	r3, r3, #4
 8002b56:	2b00      	cmp	r3, #0
 8002b58:	d00d      	beq.n	8002b76 <HAL_ADCEx_Calibration_Start+0x126>
        {
          /* Update ADC state machine to error */
          ADC_STATE_CLR_SET(hadc->State,
 8002b5a:	687b      	ldr	r3, [r7, #4]
 8002b5c:	6a9b      	ldr	r3, [r3, #40]	@ 0x28
 8002b5e:	f023 0312 	bic.w	r3, r3, #18
 8002b62:	f043 0210 	orr.w	r2, r3, #16
 8002b66:	687b      	ldr	r3, [r7, #4]
 8002b68:	629a      	str	r2, [r3, #40]	@ 0x28
                            HAL_ADC_STATE_BUSY_INTERNAL,
                            HAL_ADC_STATE_ERROR_INTERNAL);

          /* Process unlocked */
          __HAL_UNLOCK(hadc);
 8002b6a:	687b      	ldr	r3, [r7, #4]
 8002b6c:	2200      	movs	r2, #0
 8002b6e:	f883 2024 	strb.w	r2, [r3, #36]	@ 0x24

          return HAL_ERROR;
 8002b72:	2301      	movs	r3, #1
 8002b74:	e013      	b.n	8002b9e <HAL_ADCEx_Calibration_Start+0x14e>
    while(HAL_IS_BIT_SET(hadc->Instance->CR2, ADC_CR2_CAL))
 8002b76:	687b      	ldr	r3, [r7, #4]
 8002b78:	681b      	ldr	r3, [r3, #0]
 8002b7a:	689b      	ldr	r3, [r3, #8]
 8002b7c:	f003 0304 	and.w	r3, r3, #4
 8002b80:	2b00      	cmp	r3, #0
 8002b82:	d1dc      	bne.n	8002b3e <HAL_ADCEx_Calibration_Start+0xee>
        }
      }
    }
    
    /* Set ADC state */
    ADC_STATE_CLR_SET(hadc->State,
 8002b84:	687b      	ldr	r3, [r7, #4]
 8002b86:	6a9b      	ldr	r3, [r3, #40]	@ 0x28
 8002b88:	f023 0303 	bic.w	r3, r3, #3
 8002b8c:	f043 0201 	orr.w	r2, r3, #1
 8002b90:	687b      	ldr	r3, [r7, #4]
 8002b92:	629a      	str	r2, [r3, #40]	@ 0x28
                      HAL_ADC_STATE_BUSY_INTERNAL,
                      HAL_ADC_STATE_READY);
  }
  
  /* Process unlocked */
  __HAL_UNLOCK(hadc);
 8002b94:	687b      	ldr	r3, [r7, #4]
 8002b96:	2200      	movs	r2, #0
 8002b98:	f883 2024 	strb.w	r2, [r3, #36]	@ 0x24
  
  /* Return function status */
  return tmp_hal_status;
 8002b9c:	7dfb      	ldrb	r3, [r7, #23]
}
 8002b9e:	4618      	mov	r0, r3
 8002ba0:	371c      	adds	r7, #28
 8002ba2:	46bd      	mov	sp, r7
 8002ba4:	bd90      	pop	{r4, r7, pc}
 8002ba6:	bf00      	nop
 8002ba8:	20000000 	.word	0x20000000

08002bac <HAL_CAN_Init>:
  * @param  hcan pointer to a CAN_HandleTypeDef structure that contains
  *         the configuration information for the specified CAN.
  * @retval HAL status
  */
HAL_StatusTypeDef HAL_CAN_Init(CAN_HandleTypeDef *hcan)
{
 8002bac:	b580      	push	{r7, lr}
 8002bae:	b084      	sub	sp, #16
 8002bb0:	af00      	add	r7, sp, #0
 8002bb2:	6078      	str	r0, [r7, #4]
  uint32_t tickstart;

  /* Check CAN handle */
  if (hcan == NULL)
 8002bb4:	687b      	ldr	r3, [r7, #4]
 8002bb6:	2b00      	cmp	r3, #0
 8002bb8:	d101      	bne.n	8002bbe <HAL_CAN_Init+0x12>
  {
    return HAL_ERROR;
 8002bba:	2301      	movs	r3, #1
 8002bbc:	e0ed      	b.n	8002d9a <HAL_CAN_Init+0x1ee>
    /* Init the low level hardware: CLOCK, NVIC */
    hcan->MspInitCallback(hcan);
  }

#else
  if (hcan->State == HAL_CAN_STATE_RESET)
 8002bbe:	687b      	ldr	r3, [r7, #4]
 8002bc0:	f893 3020 	ldrb.w	r3, [r3, #32]
 8002bc4:	b2db      	uxtb	r3, r3
 8002bc6:	2b00      	cmp	r3, #0
 8002bc8:	d102      	bne.n	8002bd0 <HAL_CAN_Init+0x24>
  {
    /* Init the low level hardware: CLOCK, NVIC */
    HAL_CAN_MspInit(hcan);
 8002bca:	6878      	ldr	r0, [r7, #4]
 8002bcc:	f7ff f8de 	bl	8001d8c <HAL_CAN_MspInit>
  }
#endif /* USE_HAL_CAN_REGISTER_CALLBACKS */

  /* Request initialisation */
  SET_BIT(hcan->Instance->MCR, CAN_MCR_INRQ);
 8002bd0:	687b      	ldr	r3, [r7, #4]
 8002bd2:	681b      	ldr	r3, [r3, #0]
 8002bd4:	681a      	ldr	r2, [r3, #0]
 8002bd6:	687b      	ldr	r3, [r7, #4]
 8002bd8:	681b      	ldr	r3, [r3, #0]
 8002bda:	f042 0201 	orr.w	r2, r2, #1
 8002bde:	601a      	str	r2, [r3, #0]

  /* Get tick */
  tickstart = HAL_GetTick();
 8002be0:	f7ff fab0 	bl	8002144 <HAL_GetTick>
 8002be4:	60f8      	str	r0, [r7, #12]

  /* Wait initialisation acknowledge */
  while ((hcan->Instance->MSR & CAN_MSR_INAK) == 0U)
 8002be6:	e012      	b.n	8002c0e <HAL_CAN_Init+0x62>
  {
    if ((HAL_GetTick() - tickstart) > CAN_TIMEOUT_VALUE)
 8002be8:	f7ff faac 	bl	8002144 <HAL_GetTick>
 8002bec:	4602      	mov	r2, r0
 8002bee:	68fb      	ldr	r3, [r7, #12]
 8002bf0:	1ad3      	subs	r3, r2, r3
 8002bf2:	2b0a      	cmp	r3, #10
 8002bf4:	d90b      	bls.n	8002c0e <HAL_CAN_Init+0x62>
    {
      /* Update error code */
      hcan->ErrorCode |= HAL_CAN_ERROR_TIMEOUT;
 8002bf6:	687b      	ldr	r3, [r7, #4]
 8002bf8:	6a5b      	ldr	r3, [r3, #36]	@ 0x24
 8002bfa:	f443 3200 	orr.w	r2, r3, #131072	@ 0x20000
 8002bfe:	687b      	ldr	r3, [r7, #4]
 8002c00:	625a      	str	r2, [r3, #36]	@ 0x24

      /* Change CAN state */
      hcan->State = HAL_CAN_STATE_ERROR;
 8002c02:	687b      	ldr	r3, [r7, #4]
 8002c04:	2205      	movs	r2, #5
 8002c06:	f883 2020 	strb.w	r2, [r3, #32]

      return HAL_ERROR;
 8002c0a:	2301      	movs	r3, #1
 8002c0c:	e0c5      	b.n	8002d9a <HAL_CAN_Init+0x1ee>
  while ((hcan->Instance->MSR & CAN_MSR_INAK) == 0U)
 8002c0e:	687b      	ldr	r3, [r7, #4]
 8002c10:	681b      	ldr	r3, [r3, #0]
 8002c12:	685b      	ldr	r3, [r3, #4]
 8002c14:	f003 0301 	and.w	r3, r3, #1
 8002c18:	2b00      	cmp	r3, #0
 8002c1a:	d0e5      	beq.n	8002be8 <HAL_CAN_Init+0x3c>
    }
  }

  /* Exit from sleep mode */
  CLEAR_BIT(hcan->Instance->MCR, CAN_MCR_SLEEP);
 8002c1c:	687b      	ldr	r3, [r7, #4]
 8002c1e:	681b      	ldr	r3, [r3, #0]
 8002c20:	681a      	ldr	r2, [r3, #0]
 8002c22:	687b      	ldr	r3, [r7, #4]
 8002c24:	681b      	ldr	r3, [r3, #0]
 8002c26:	f022 0202 	bic.w	r2, r2, #2
 8002c2a:	601a      	str	r2, [r3, #0]

  /* Get tick */
  tickstart = HAL_GetTick();
 8002c2c:	f7ff fa8a 	bl	8002144 <HAL_GetTick>
 8002c30:	60f8      	str	r0, [r7, #12]

  /* Check Sleep mode leave acknowledge */
  while ((hcan->Instance->MSR & CAN_MSR_SLAK) != 0U)
 8002c32:	e012      	b.n	8002c5a <HAL_CAN_Init+0xae>
  {
    if ((HAL_GetTick() - tickstart) > CAN_TIMEOUT_VALUE)
 8002c34:	f7ff fa86 	bl	8002144 <HAL_GetTick>
 8002c38:	4602      	mov	r2, r0
 8002c3a:	68fb      	ldr	r3, [r7, #12]
 8002c3c:	1ad3      	subs	r3, r2, r3
 8002c3e:	2b0a      	cmp	r3, #10
 8002c40:	d90b      	bls.n	8002c5a <HAL_CAN_Init+0xae>
    {
      /* Update error code */
      hcan->ErrorCode |= HAL_CAN_ERROR_TIMEOUT;
 8002c42:	687b      	ldr	r3, [r7, #4]
 8002c44:	6a5b      	ldr	r3, [r3, #36]	@ 0x24
 8002c46:	f443 3200 	orr.w	r2, r3, #131072	@ 0x20000
 8002c4a:	687b      	ldr	r3, [r7, #4]
 8002c4c:	625a      	str	r2, [r3, #36]	@ 0x24

      /* Change CAN state */
      hcan->State = HAL_CAN_STATE_ERROR;
 8002c4e:	687b      	ldr	r3, [r7, #4]
 8002c50:	2205      	movs	r2, #5
 8002c52:	f883 2020 	strb.w	r2, [r3, #32]

      return HAL_ERROR;
 8002c56:	2301      	movs	r3, #1
 8002c58:	e09f      	b.n	8002d9a <HAL_CAN_Init+0x1ee>
  while ((hcan->Instance->MSR & CAN_MSR_SLAK) != 0U)
 8002c5a:	687b      	ldr	r3, [r7, #4]
 8002c5c:	681b      	ldr	r3, [r3, #0]
 8002c5e:	685b      	ldr	r3, [r3, #4]
 8002c60:	f003 0302 	and.w	r3, r3, #2
 8002c64:	2b00      	cmp	r3, #0
 8002c66:	d1e5      	bne.n	8002c34 <HAL_CAN_Init+0x88>
    }
  }

  /* Set the time triggered communication mode */
  if (hcan->Init.TimeTriggeredMode == ENABLE)
 8002c68:	687b      	ldr	r3, [r7, #4]
 8002c6a:	7e1b      	ldrb	r3, [r3, #24]
 8002c6c:	2b01      	cmp	r3, #1
 8002c6e:	d108      	bne.n	8002c82 <HAL_CAN_Init+0xd6>
  {
    SET_BIT(hcan->Instance->MCR, CAN_MCR_TTCM);
 8002c70:	687b      	ldr	r3, [r7, #4]
 8002c72:	681b      	ldr	r3, [r3, #0]
 8002c74:	681a      	ldr	r2, [r3, #0]
 8002c76:	687b      	ldr	r3, [r7, #4]
 8002c78:	681b      	ldr	r3, [r3, #0]
 8002c7a:	f042 0280 	orr.w	r2, r2, #128	@ 0x80
 8002c7e:	601a      	str	r2, [r3, #0]
 8002c80:	e007      	b.n	8002c92 <HAL_CAN_Init+0xe6>
  }
  else
  {
    CLEAR_BIT(hcan->Instance->MCR, CAN_MCR_TTCM);
 8002c82:	687b      	ldr	r3, [r7, #4]
 8002c84:	681b      	ldr	r3, [r3, #0]
 8002c86:	681a      	ldr	r2, [r3, #0]
 8002c88:	687b      	ldr	r3, [r7, #4]
 8002c8a:	681b      	ldr	r3, [r3, #0]
 8002c8c:	f022 0280 	bic.w	r2, r2, #128	@ 0x80
 8002c90:	601a      	str	r2, [r3, #0]
  }

  /* Set the automatic bus-off management */
  if (hcan->Init.AutoBusOff == ENABLE)
 8002c92:	687b      	ldr	r3, [r7, #4]
 8002c94:	7e5b      	ldrb	r3, [r3, #25]
 8002c96:	2b01      	cmp	r3, #1
 8002c98:	d108      	bne.n	8002cac <HAL_CAN_Init+0x100>
  {
    SET_BIT(hcan->Instance->MCR, CAN_MCR_ABOM);
 8002c9a:	687b      	ldr	r3, [r7, #4]
 8002c9c:	681b      	ldr	r3, [r3, #0]
 8002c9e:	681a      	ldr	r2, [r3, #0]
 8002ca0:	687b      	ldr	r3, [r7, #4]
 8002ca2:	681b      	ldr	r3, [r3, #0]
 8002ca4:	f042 0240 	orr.w	r2, r2, #64	@ 0x40
 8002ca8:	601a      	str	r2, [r3, #0]
 8002caa:	e007      	b.n	8002cbc <HAL_CAN_Init+0x110>
  }
  else
  {
    CLEAR_BIT(hcan->Instance->MCR, CAN_MCR_ABOM);
 8002cac:	687b      	ldr	r3, [r7, #4]
 8002cae:	681b      	ldr	r3, [r3, #0]
 8002cb0:	681a      	ldr	r2, [r3, #0]
 8002cb2:	687b      	ldr	r3, [r7, #4]
 8002cb4:	681b      	ldr	r3, [r3, #0]
 8002cb6:	f022 0240 	bic.w	r2, r2, #64	@ 0x40
 8002cba:	601a      	str	r2, [r3, #0]
  }

  /* Set the automatic wake-up mode */
  if (hcan->Init.AutoWakeUp == ENABLE)
 8002cbc:	687b      	ldr	r3, [r7, #4]
 8002cbe:	7e9b      	ldrb	r3, [r3, #26]
 8002cc0:	2b01      	cmp	r3, #1
 8002cc2:	d108      	bne.n	8002cd6 <HAL_CAN_Init+0x12a>
  {
    SET_BIT(hcan->Instance->MCR, CAN_MCR_AWUM);
 8002cc4:	687b      	ldr	r3, [r7, #4]
 8002cc6:	681b      	ldr	r3, [r3, #0]
 8002cc8:	681a      	ldr	r2, [r3, #0]
 8002cca:	687b      	ldr	r3, [r7, #4]
 8002ccc:	681b      	ldr	r3, [r3, #0]
 8002cce:	f042 0220 	orr.w	r2, r2, #32
 8002cd2:	601a      	str	r2, [r3, #0]
 8002cd4:	e007      	b.n	8002ce6 <HAL_CAN_Init+0x13a>
  }
  else
  {
    CLEAR_BIT(hcan->Instance->MCR, CAN_MCR_AWUM);
 8002cd6:	687b      	ldr	r3, [r7, #4]
 8002cd8:	681b      	ldr	r3, [r3, #0]
 8002cda:	681a      	ldr	r2, [r3, #0]
 8002cdc:	687b      	ldr	r3, [r7, #4]
 8002cde:	681b      	ldr	r3, [r3, #0]
 8002ce0:	f022 0220 	bic.w	r2, r2, #32
 8002ce4:	601a      	str	r2, [r3, #0]
  }

  /* Set the automatic retransmission */
  if (hcan->Init.AutoRetransmission == ENABLE)
 8002ce6:	687b      	ldr	r3, [r7, #4]
 8002ce8:	7edb      	ldrb	r3, [r3, #27]
 8002cea:	2b01      	cmp	r3, #1
 8002cec:	d108      	bne.n	8002d00 <HAL_CAN_Init+0x154>
  {
    CLEAR_BIT(hcan->Instance->MCR, CAN_MCR_NART);
 8002cee:	687b      	ldr	r3, [r7, #4]
 8002cf0:	681b      	ldr	r3, [r3, #0]
 8002cf2:	681a      	ldr	r2, [r3, #0]
 8002cf4:	687b      	ldr	r3, [r7, #4]
 8002cf6:	681b      	ldr	r3, [r3, #0]
 8002cf8:	f022 0210 	bic.w	r2, r2, #16
 8002cfc:	601a      	str	r2, [r3, #0]
 8002cfe:	e007      	b.n	8002d10 <HAL_CAN_Init+0x164>
  }
  else
  {
    SET_BIT(hcan->Instance->MCR, CAN_MCR_NART);
 8002d00:	687b      	ldr	r3, [r7, #4]
 8002d02:	681b      	ldr	r3, [r3, #0]
 8002d04:	681a      	ldr	r2, [r3, #0]
 8002d06:	687b      	ldr	r3, [r7, #4]
 8002d08:	681b      	ldr	r3, [r3, #0]
 8002d0a:	f042 0210 	orr.w	r2, r2, #16
 8002d0e:	601a      	str	r2, [r3, #0]
  }

  /* Set the receive FIFO locked mode */
  if (hcan->Init.ReceiveFifoLocked == ENABLE)
 8002d10:	687b      	ldr	r3, [r7, #4]
 8002d12:	7f1b      	ldrb	r3, [r3, #28]
 8002d14:	2b01      	cmp	r3, #1
 8002d16:	d108      	bne.n	8002d2a <HAL_CAN_Init+0x17e>
  {
    SET_BIT(hcan->Instance->MCR, CAN_MCR_RFLM);
 8002d18:	687b      	ldr	r3, [r7, #4]
 8002d1a:	681b      	ldr	r3, [r3, #0]
 8002d1c:	681a      	ldr	r2, [r3, #0]
 8002d1e:	687b      	ldr	r3, [r7, #4]
 8002d20:	681b      	ldr	r3, [r3, #0]
 8002d22:	f042 0208 	orr.w	r2, r2, #8
 8002d26:	601a      	str	r2, [r3, #0]
 8002d28:	e007      	b.n	8002d3a <HAL_CAN_Init+0x18e>
  }
  else
  {
    CLEAR_BIT(hcan->Instance->MCR, CAN_MCR_RFLM);
 8002d2a:	687b      	ldr	r3, [r7, #4]
 8002d2c:	681b      	ldr	r3, [r3, #0]
 8002d2e:	681a      	ldr	r2, [r3, #0]
 8002d30:	687b      	ldr	r3, [r7, #4]
 8002d32:	681b      	ldr	r3, [r3, #0]
 8002d34:	f022 0208 	bic.w	r2, r2, #8
 8002d38:	601a      	str	r2, [r3, #0]
  }

  /* Set the transmit FIFO priority */
  if (hcan->Init.TransmitFifoPriority == ENABLE)
 8002d3a:	687b      	ldr	r3, [r7, #4]
 8002d3c:	7f5b      	ldrb	r3, [r3, #29]
 8002d3e:	2b01      	cmp	r3, #1
 8002d40:	d108      	bne.n	8002d54 <HAL_CAN_Init+0x1a8>
  {
    SET_BIT(hcan->Instance->MCR, CAN_MCR_TXFP);
 8002d42:	687b      	ldr	r3, [r7, #4]
 8002d44:	681b      	ldr	r3, [r3, #0]
 8002d46:	681a      	ldr	r2, [r3, #0]
 8002d48:	687b      	ldr	r3, [r7, #4]
 8002d4a:	681b      	ldr	r3, [r3, #0]
 8002d4c:	f042 0204 	orr.w	r2, r2, #4
 8002d50:	601a      	str	r2, [r3, #0]
 8002d52:	e007      	b.n	8002d64 <HAL_CAN_Init+0x1b8>
  }
  else
  {
    CLEAR_BIT(hcan->Instance->MCR, CAN_MCR_TXFP);
 8002d54:	687b      	ldr	r3, [r7, #4]
 8002d56:	681b      	ldr	r3, [r3, #0]
 8002d58:	681a      	ldr	r2, [r3, #0]
 8002d5a:	687b      	ldr	r3, [r7, #4]
 8002d5c:	681b      	ldr	r3, [r3, #0]
 8002d5e:	f022 0204 	bic.w	r2, r2, #4
 8002d62:	601a      	str	r2, [r3, #0]
  }

  /* Set the bit timing register */
  WRITE_REG(hcan->Instance->BTR, (uint32_t)(hcan->Init.Mode           |
 8002d64:	687b      	ldr	r3, [r7, #4]
 8002d66:	689a      	ldr	r2, [r3, #8]
 8002d68:	687b      	ldr	r3, [r7, #4]
 8002d6a:	68db      	ldr	r3, [r3, #12]
 8002d6c:	431a      	orrs	r2, r3
 8002d6e:	687b      	ldr	r3, [r7, #4]
 8002d70:	691b      	ldr	r3, [r3, #16]
 8002d72:	431a      	orrs	r2, r3
 8002d74:	687b      	ldr	r3, [r7, #4]
 8002d76:	695b      	ldr	r3, [r3, #20]
 8002d78:	ea42 0103 	orr.w	r1, r2, r3
 8002d7c:	687b      	ldr	r3, [r7, #4]
 8002d7e:	685b      	ldr	r3, [r3, #4]
 8002d80:	1e5a      	subs	r2, r3, #1
 8002d82:	687b      	ldr	r3, [r7, #4]
 8002d84:	681b      	ldr	r3, [r3, #0]
 8002d86:	430a      	orrs	r2, r1
 8002d88:	61da      	str	r2, [r3, #28]
                                            hcan->Init.TimeSeg1       |
                                            hcan->Init.TimeSeg2       |
                                            (hcan->Init.Prescaler - 1U)));

  /* Initialize the error code */
  hcan->ErrorCode = HAL_CAN_ERROR_NONE;
 8002d8a:	687b      	ldr	r3, [r7, #4]
 8002d8c:	2200      	movs	r2, #0
 8002d8e:	625a      	str	r2, [r3, #36]	@ 0x24

  /* Initialize the CAN state */
  hcan->State = HAL_CAN_STATE_READY;
 8002d90:	687b      	ldr	r3, [r7, #4]
 8002d92:	2201      	movs	r2, #1
 8002d94:	f883 2020 	strb.w	r2, [r3, #32]

  /* Return function status */
  return HAL_OK;
 8002d98:	2300      	movs	r3, #0
}
 8002d9a:	4618      	mov	r0, r3
 8002d9c:	3710      	adds	r7, #16
 8002d9e:	46bd      	mov	sp, r7
 8002da0:	bd80      	pop	{r7, pc}

08002da2 <HAL_CAN_ConfigFilter>:
  * @param  sFilterConfig pointer to a CAN_FilterTypeDef structure that
  *         contains the filter configuration information.
  * @retval None
  */
HAL_StatusTypeDef HAL_CAN_ConfigFilter(CAN_HandleTypeDef *hcan, const CAN_FilterTypeDef *sFilterConfig)
{
 8002da2:	b480      	push	{r7}
 8002da4:	b087      	sub	sp, #28
 8002da6:	af00      	add	r7, sp, #0
 8002da8:	6078      	str	r0, [r7, #4]
 8002daa:	6039      	str	r1, [r7, #0]
  uint32_t filternbrbitpos;
  CAN_TypeDef *can_ip = hcan->Instance;
 8002dac:	687b      	ldr	r3, [r7, #4]
 8002dae:	681b      	ldr	r3, [r3, #0]
 8002db0:	617b      	str	r3, [r7, #20]
  HAL_CAN_StateTypeDef state = hcan->State;
 8002db2:	687b      	ldr	r3, [r7, #4]
 8002db4:	f893 3020 	ldrb.w	r3, [r3, #32]
 8002db8:	74fb      	strb	r3, [r7, #19]

  if ((state == HAL_CAN_STATE_READY) ||
 8002dba:	7cfb      	ldrb	r3, [r7, #19]
 8002dbc:	2b01      	cmp	r3, #1
 8002dbe:	d003      	beq.n	8002dc8 <HAL_CAN_ConfigFilter+0x26>
 8002dc0:	7cfb      	ldrb	r3, [r7, #19]
 8002dc2:	2b02      	cmp	r3, #2
 8002dc4:	f040 80aa 	bne.w	8002f1c <HAL_CAN_ConfigFilter+0x17a>
    /* Check the parameters */
    assert_param(IS_CAN_FILTER_BANK_SINGLE(sFilterConfig->FilterBank));
#endif /* CAN3 */

    /* Initialisation mode for the filter */
    SET_BIT(can_ip->FMR, CAN_FMR_FINIT);
 8002dc8:	697b      	ldr	r3, [r7, #20]
 8002dca:	f8d3 3200 	ldr.w	r3, [r3, #512]	@ 0x200
 8002dce:	f043 0201 	orr.w	r2, r3, #1
 8002dd2:	697b      	ldr	r3, [r7, #20]
 8002dd4:	f8c3 2200 	str.w	r2, [r3, #512]	@ 0x200
    CLEAR_BIT(can_ip->FMR, CAN_FMR_CAN2SB);
    SET_BIT(can_ip->FMR, sFilterConfig->SlaveStartFilterBank << CAN_FMR_CAN2SB_Pos);

#endif /* CAN3 */
    /* Convert filter number into bit position */
    filternbrbitpos = (uint32_t)1 << (sFilterConfig->FilterBank & 0x1FU);
 8002dd8:	683b      	ldr	r3, [r7, #0]
 8002dda:	695b      	ldr	r3, [r3, #20]
 8002ddc:	f003 031f 	and.w	r3, r3, #31
 8002de0:	2201      	movs	r2, #1
 8002de2:	fa02 f303 	lsl.w	r3, r2, r3
 8002de6:	60fb      	str	r3, [r7, #12]

    /* Filter Deactivation */
    CLEAR_BIT(can_ip->FA1R, filternbrbitpos);
 8002de8:	697b      	ldr	r3, [r7, #20]
 8002dea:	f8d3 221c 	ldr.w	r2, [r3, #540]	@ 0x21c
 8002dee:	68fb      	ldr	r3, [r7, #12]
 8002df0:	43db      	mvns	r3, r3
 8002df2:	401a      	ands	r2, r3
 8002df4:	697b      	ldr	r3, [r7, #20]
 8002df6:	f8c3 221c 	str.w	r2, [r3, #540]	@ 0x21c

    /* Filter Scale */
    if (sFilterConfig->FilterScale == CAN_FILTERSCALE_16BIT)
 8002dfa:	683b      	ldr	r3, [r7, #0]
 8002dfc:	69db      	ldr	r3, [r3, #28]
 8002dfe:	2b00      	cmp	r3, #0
 8002e00:	d123      	bne.n	8002e4a <HAL_CAN_ConfigFilter+0xa8>
    {
      /* 16-bit scale for the filter */
      CLEAR_BIT(can_ip->FS1R, filternbrbitpos);
 8002e02:	697b      	ldr	r3, [r7, #20]
 8002e04:	f8d3 220c 	ldr.w	r2, [r3, #524]	@ 0x20c
 8002e08:	68fb      	ldr	r3, [r7, #12]
 8002e0a:	43db      	mvns	r3, r3
 8002e0c:	401a      	ands	r2, r3
 8002e0e:	697b      	ldr	r3, [r7, #20]
 8002e10:	f8c3 220c 	str.w	r2, [r3, #524]	@ 0x20c

      /* First 16-bit identifier and First 16-bit mask */
      /* Or First 16-bit identifier and Second 16-bit identifier */
      can_ip->sFilterRegister[sFilterConfig->FilterBank].FR1 =
        ((0x0000FFFFU & (uint32_t)sFilterConfig->FilterMaskIdLow) << 16U) |
 8002e14:	683b      	ldr	r3, [r7, #0]
 8002e16:	68db      	ldr	r3, [r3, #12]
 8002e18:	0419      	lsls	r1, r3, #16
        (0x0000FFFFU & (uint32_t)sFilterConfig->FilterIdLow);
 8002e1a:	683b      	ldr	r3, [r7, #0]
 8002e1c:	685b      	ldr	r3, [r3, #4]
 8002e1e:	b29b      	uxth	r3, r3
      can_ip->sFilterRegister[sFilterConfig->FilterBank].FR1 =
 8002e20:	683a      	ldr	r2, [r7, #0]
 8002e22:	6952      	ldr	r2, [r2, #20]
        ((0x0000FFFFU & (uint32_t)sFilterConfig->FilterMaskIdLow) << 16U) |
 8002e24:	4319      	orrs	r1, r3
      can_ip->sFilterRegister[sFilterConfig->FilterBank].FR1 =
 8002e26:	697b      	ldr	r3, [r7, #20]
 8002e28:	3248      	adds	r2, #72	@ 0x48
 8002e2a:	f843 1032 	str.w	r1, [r3, r2, lsl #3]

      /* Second 16-bit identifier and Second 16-bit mask */
      /* Or Third 16-bit identifier and Fourth 16-bit identifier */
      can_ip->sFilterRegister[sFilterConfig->FilterBank].FR2 =
        ((0x0000FFFFU & (uint32_t)sFilterConfig->FilterMaskIdHigh) << 16U) |
 8002e2e:	683b      	ldr	r3, [r7, #0]
 8002e30:	689b      	ldr	r3, [r3, #8]
 8002e32:	0419      	lsls	r1, r3, #16
        (0x0000FFFFU & (uint32_t)sFilterConfig->FilterIdHigh);
 8002e34:	683b      	ldr	r3, [r7, #0]
 8002e36:	681b      	ldr	r3, [r3, #0]
 8002e38:	b29a      	uxth	r2, r3
      can_ip->sFilterRegister[sFilterConfig->FilterBank].FR2 =
 8002e3a:	683b      	ldr	r3, [r7, #0]
 8002e3c:	695b      	ldr	r3, [r3, #20]
        ((0x0000FFFFU & (uint32_t)sFilterConfig->FilterMaskIdHigh) << 16U) |
 8002e3e:	430a      	orrs	r2, r1
      can_ip->sFilterRegister[sFilterConfig->FilterBank].FR2 =
 8002e40:	6979      	ldr	r1, [r7, #20]
 8002e42:	3348      	adds	r3, #72	@ 0x48
 8002e44:	00db      	lsls	r3, r3, #3
 8002e46:	440b      	add	r3, r1
 8002e48:	605a      	str	r2, [r3, #4]
    }

    if (sFilterConfig->FilterScale == CAN_FILTERSCALE_32BIT)
 8002e4a:	683b      	ldr	r3, [r7, #0]
 8002e4c:	69db      	ldr	r3, [r3, #28]
 8002e4e:	2b01      	cmp	r3, #1
 8002e50:	d122      	bne.n	8002e98 <HAL_CAN_ConfigFilter+0xf6>
    {
      /* 32-bit scale for the filter */
      SET_BIT(can_ip->FS1R, filternbrbitpos);
 8002e52:	697b      	ldr	r3, [r7, #20]
 8002e54:	f8d3 220c 	ldr.w	r2, [r3, #524]	@ 0x20c
 8002e58:	68fb      	ldr	r3, [r7, #12]
 8002e5a:	431a      	orrs	r2, r3
 8002e5c:	697b      	ldr	r3, [r7, #20]
 8002e5e:	f8c3 220c 	str.w	r2, [r3, #524]	@ 0x20c

      /* 32-bit identifier or First 32-bit identifier */
      can_ip->sFilterRegister[sFilterConfig->FilterBank].FR1 =
        ((0x0000FFFFU & (uint32_t)sFilterConfig->FilterIdHigh) << 16U) |
 8002e62:	683b      	ldr	r3, [r7, #0]
 8002e64:	681b      	ldr	r3, [r3, #0]
 8002e66:	0419      	lsls	r1, r3, #16
        (0x0000FFFFU & (uint32_t)sFilterConfig->FilterIdLow);
 8002e68:	683b      	ldr	r3, [r7, #0]
 8002e6a:	685b      	ldr	r3, [r3, #4]
 8002e6c:	b29b      	uxth	r3, r3
      can_ip->sFilterRegister[sFilterConfig->FilterBank].FR1 =
 8002e6e:	683a      	ldr	r2, [r7, #0]
 8002e70:	6952      	ldr	r2, [r2, #20]
        ((0x0000FFFFU & (uint32_t)sFilterConfig->FilterIdHigh) << 16U) |
 8002e72:	4319      	orrs	r1, r3
      can_ip->sFilterRegister[sFilterConfig->FilterBank].FR1 =
 8002e74:	697b      	ldr	r3, [r7, #20]
 8002e76:	3248      	adds	r2, #72	@ 0x48
 8002e78:	f843 1032 	str.w	r1, [r3, r2, lsl #3]

      /* 32-bit mask or Second 32-bit identifier */
      can_ip->sFilterRegister[sFilterConfig->FilterBank].FR2 =
        ((0x0000FFFFU & (uint32_t)sFilterConfig->FilterMaskIdHigh) << 16U) |
 8002e7c:	683b      	ldr	r3, [r7, #0]
 8002e7e:	689b      	ldr	r3, [r3, #8]
 8002e80:	0419      	lsls	r1, r3, #16
        (0x0000FFFFU & (uint32_t)sFilterConfig->FilterMaskIdLow);
 8002e82:	683b      	ldr	r3, [r7, #0]
 8002e84:	68db      	ldr	r3, [r3, #12]
 8002e86:	b29a      	uxth	r2, r3
      can_ip->sFilterRegister[sFilterConfig->FilterBank].FR2 =
 8002e88:	683b      	ldr	r3, [r7, #0]
 8002e8a:	695b      	ldr	r3, [r3, #20]
        ((0x0000FFFFU & (uint32_t)sFilterConfig->FilterMaskIdHigh) << 16U) |
 8002e8c:	430a      	orrs	r2, r1
      can_ip->sFilterRegister[sFilterConfig->FilterBank].FR2 =
 8002e8e:	6979      	ldr	r1, [r7, #20]
 8002e90:	3348      	adds	r3, #72	@ 0x48
 8002e92:	00db      	lsls	r3, r3, #3
 8002e94:	440b      	add	r3, r1
 8002e96:	605a      	str	r2, [r3, #4]
    }

    /* Filter Mode */
    if (sFilterConfig->FilterMode == CAN_FILTERMODE_IDMASK)
 8002e98:	683b      	ldr	r3, [r7, #0]
 8002e9a:	699b      	ldr	r3, [r3, #24]
 8002e9c:	2b00      	cmp	r3, #0
 8002e9e:	d109      	bne.n	8002eb4 <HAL_CAN_ConfigFilter+0x112>
    {
      /* Id/Mask mode for the filter*/
      CLEAR_BIT(can_ip->FM1R, filternbrbitpos);
 8002ea0:	697b      	ldr	r3, [r7, #20]
 8002ea2:	f8d3 2204 	ldr.w	r2, [r3, #516]	@ 0x204
 8002ea6:	68fb      	ldr	r3, [r7, #12]
 8002ea8:	43db      	mvns	r3, r3
 8002eaa:	401a      	ands	r2, r3
 8002eac:	697b      	ldr	r3, [r7, #20]
 8002eae:	f8c3 2204 	str.w	r2, [r3, #516]	@ 0x204
 8002eb2:	e007      	b.n	8002ec4 <HAL_CAN_ConfigFilter+0x122>
    }
    else /* CAN_FilterInitStruct->CAN_FilterMode == CAN_FilterMode_IdList */
    {
      /* Identifier list mode for the filter*/
      SET_BIT(can_ip->FM1R, filternbrbitpos);
 8002eb4:	697b      	ldr	r3, [r7, #20]
 8002eb6:	f8d3 2204 	ldr.w	r2, [r3, #516]	@ 0x204
 8002eba:	68fb      	ldr	r3, [r7, #12]
 8002ebc:	431a      	orrs	r2, r3
 8002ebe:	697b      	ldr	r3, [r7, #20]
 8002ec0:	f8c3 2204 	str.w	r2, [r3, #516]	@ 0x204
    }

    /* Filter FIFO assignment */
    if (sFilterConfig->FilterFIFOAssignment == CAN_FILTER_FIFO0)
 8002ec4:	683b      	ldr	r3, [r7, #0]
 8002ec6:	691b      	ldr	r3, [r3, #16]
 8002ec8:	2b00      	cmp	r3, #0
 8002eca:	d109      	bne.n	8002ee0 <HAL_CAN_ConfigFilter+0x13e>
    {
      /* FIFO 0 assignation for the filter */
      CLEAR_BIT(can_ip->FFA1R, filternbrbitpos);
 8002ecc:	697b      	ldr	r3, [r7, #20]
 8002ece:	f8d3 2214 	ldr.w	r2, [r3, #532]	@ 0x214
 8002ed2:	68fb      	ldr	r3, [r7, #12]
 8002ed4:	43db      	mvns	r3, r3
 8002ed6:	401a      	ands	r2, r3
 8002ed8:	697b      	ldr	r3, [r7, #20]
 8002eda:	f8c3 2214 	str.w	r2, [r3, #532]	@ 0x214
 8002ede:	e007      	b.n	8002ef0 <HAL_CAN_ConfigFilter+0x14e>
    }
    else
    {
      /* FIFO 1 assignation for the filter */
      SET_BIT(can_ip->FFA1R, filternbrbitpos);
 8002ee0:	697b      	ldr	r3, [r7, #20]
 8002ee2:	f8d3 2214 	ldr.w	r2, [r3, #532]	@ 0x214
 8002ee6:	68fb      	ldr	r3, [r7, #12]
 8002ee8:	431a      	orrs	r2, r3
 8002eea:	697b      	ldr	r3, [r7, #20]
 8002eec:	f8c3 2214 	str.w	r2, [r3, #532]	@ 0x214
    }

    /* Filter activation */
    if (sFilterConfig->FilterActivation == CAN_FILTER_ENABLE)
 8002ef0:	683b      	ldr	r3, [r7, #0]
 8002ef2:	6a1b      	ldr	r3, [r3, #32]
 8002ef4:	2b01      	cmp	r3, #1
 8002ef6:	d107      	bne.n	8002f08 <HAL_CAN_ConfigFilter+0x166>
    {
      SET_BIT(can_ip->FA1R, filternbrbitpos);
 8002ef8:	697b      	ldr	r3, [r7, #20]
 8002efa:	f8d3 221c 	ldr.w	r2, [r3, #540]	@ 0x21c
 8002efe:	68fb      	ldr	r3, [r7, #12]
 8002f00:	431a      	orrs	r2, r3
 8002f02:	697b      	ldr	r3, [r7, #20]
 8002f04:	f8c3 221c 	str.w	r2, [r3, #540]	@ 0x21c
    }

    /* Leave the initialisation mode for the filter */
    CLEAR_BIT(can_ip->FMR, CAN_FMR_FINIT);
 8002f08:	697b      	ldr	r3, [r7, #20]
 8002f0a:	f8d3 3200 	ldr.w	r3, [r3, #512]	@ 0x200
 8002f0e:	f023 0201 	bic.w	r2, r3, #1
 8002f12:	697b      	ldr	r3, [r7, #20]
 8002f14:	f8c3 2200 	str.w	r2, [r3, #512]	@ 0x200

    /* Return function status */
    return HAL_OK;
 8002f18:	2300      	movs	r3, #0
 8002f1a:	e006      	b.n	8002f2a <HAL_CAN_ConfigFilter+0x188>
  }
  else
  {
    /* Update error code */
    hcan->ErrorCode |= HAL_CAN_ERROR_NOT_INITIALIZED;
 8002f1c:	687b      	ldr	r3, [r7, #4]
 8002f1e:	6a5b      	ldr	r3, [r3, #36]	@ 0x24
 8002f20:	f443 2280 	orr.w	r2, r3, #262144	@ 0x40000
 8002f24:	687b      	ldr	r3, [r7, #4]
 8002f26:	625a      	str	r2, [r3, #36]	@ 0x24

    return HAL_ERROR;
 8002f28:	2301      	movs	r3, #1
  }
}
 8002f2a:	4618      	mov	r0, r3
 8002f2c:	371c      	adds	r7, #28
 8002f2e:	46bd      	mov	sp, r7
 8002f30:	bc80      	pop	{r7}
 8002f32:	4770      	bx	lr

08002f34 <HAL_CAN_Start>:
  * @param  hcan pointer to an CAN_HandleTypeDef structure that contains
  *         the configuration information for the specified CAN.
  * @retval HAL status
  */
HAL_StatusTypeDef HAL_CAN_Start(CAN_HandleTypeDef *hcan)
{
 8002f34:	b580      	push	{r7, lr}
 8002f36:	b084      	sub	sp, #16
 8002f38:	af00      	add	r7, sp, #0
 8002f3a:	6078      	str	r0, [r7, #4]
  uint32_t tickstart;

  if (hcan->State == HAL_CAN_STATE_READY)
 8002f3c:	687b      	ldr	r3, [r7, #4]
 8002f3e:	f893 3020 	ldrb.w	r3, [r3, #32]
 8002f42:	b2db      	uxtb	r3, r3
 8002f44:	2b01      	cmp	r3, #1
 8002f46:	d12e      	bne.n	8002fa6 <HAL_CAN_Start+0x72>
  {
    /* Change CAN peripheral state */
    hcan->State = HAL_CAN_STATE_LISTENING;
 8002f48:	687b      	ldr	r3, [r7, #4]
 8002f4a:	2202      	movs	r2, #2
 8002f4c:	f883 2020 	strb.w	r2, [r3, #32]

    /* Request leave initialisation */
    CLEAR_BIT(hcan->Instance->MCR, CAN_MCR_INRQ);
 8002f50:	687b      	ldr	r3, [r7, #4]
 8002f52:	681b      	ldr	r3, [r3, #0]
 8002f54:	681a      	ldr	r2, [r3, #0]
 8002f56:	687b      	ldr	r3, [r7, #4]
 8002f58:	681b      	ldr	r3, [r3, #0]
 8002f5a:	f022 0201 	bic.w	r2, r2, #1
 8002f5e:	601a      	str	r2, [r3, #0]

    /* Get tick */
    tickstart = HAL_GetTick();
 8002f60:	f7ff f8f0 	bl	8002144 <HAL_GetTick>
 8002f64:	60f8      	str	r0, [r7, #12]

    /* Wait the acknowledge */
    while ((hcan->Instance->MSR & CAN_MSR_INAK) != 0U)
 8002f66:	e012      	b.n	8002f8e <HAL_CAN_Start+0x5a>
    {
      /* Check for the Timeout */
      if ((HAL_GetTick() - tickstart) > CAN_TIMEOUT_VALUE)
 8002f68:	f7ff f8ec 	bl	8002144 <HAL_GetTick>
 8002f6c:	4602      	mov	r2, r0
 8002f6e:	68fb      	ldr	r3, [r7, #12]
 8002f70:	1ad3      	subs	r3, r2, r3
 8002f72:	2b0a      	cmp	r3, #10
 8002f74:	d90b      	bls.n	8002f8e <HAL_CAN_Start+0x5a>
      {
        /* Update error code */
        hcan->ErrorCode |= HAL_CAN_ERROR_TIMEOUT;
 8002f76:	687b      	ldr	r3, [r7, #4]
 8002f78:	6a5b      	ldr	r3, [r3, #36]	@ 0x24
 8002f7a:	f443 3200 	orr.w	r2, r3, #131072	@ 0x20000
 8002f7e:	687b      	ldr	r3, [r7, #4]
 8002f80:	625a      	str	r2, [r3, #36]	@ 0x24

        /* Change CAN state */
        hcan->State = HAL_CAN_STATE_ERROR;
 8002f82:	687b      	ldr	r3, [r7, #4]
 8002f84:	2205      	movs	r2, #5
 8002f86:	f883 2020 	strb.w	r2, [r3, #32]

        return HAL_ERROR;
 8002f8a:	2301      	movs	r3, #1
 8002f8c:	e012      	b.n	8002fb4 <HAL_CAN_Start+0x80>
    while ((hcan->Instance->MSR & CAN_MSR_INAK) != 0U)
 8002f8e:	687b      	ldr	r3, [r7, #4]
 8002f90:	681b      	ldr	r3, [r3, #0]
 8002f92:	685b      	ldr	r3, [r3, #4]
 8002f94:	f003 0301 	and.w	r3, r3, #1
 8002f98:	2b00      	cmp	r3, #0
 8002f9a:	d1e5      	bne.n	8002f68 <HAL_CAN_Start+0x34>
      }
    }

    /* Reset the CAN ErrorCode */
    hcan->ErrorCode = HAL_CAN_ERROR_NONE;
 8002f9c:	687b      	ldr	r3, [r7, #4]
 8002f9e:	2200      	movs	r2, #0
 8002fa0:	625a      	str	r2, [r3, #36]	@ 0x24

    /* Return function status */
    return HAL_OK;
 8002fa2:	2300      	movs	r3, #0
 8002fa4:	e006      	b.n	8002fb4 <HAL_CAN_Start+0x80>
  }
  else
  {
    /* Update error code */
    hcan->ErrorCode |= HAL_CAN_ERROR_NOT_READY;
 8002fa6:	687b      	ldr	r3, [r7, #4]
 8002fa8:	6a5b      	ldr	r3, [r3, #36]	@ 0x24
 8002faa:	f443 2200 	orr.w	r2, r3, #524288	@ 0x80000
 8002fae:	687b      	ldr	r3, [r7, #4]
 8002fb0:	625a      	str	r2, [r3, #36]	@ 0x24

    return HAL_ERROR;
 8002fb2:	2301      	movs	r3, #1
  }
}
 8002fb4:	4618      	mov	r0, r3
 8002fb6:	3710      	adds	r7, #16
 8002fb8:	46bd      	mov	sp, r7
 8002fba:	bd80      	pop	{r7, pc}

08002fbc <HAL_CAN_AddTxMessage>:
  *         This parameter can be a value of @arg CAN_Tx_Mailboxes.
  * @retval HAL status
  */
HAL_StatusTypeDef HAL_CAN_AddTxMessage(CAN_HandleTypeDef *hcan, const CAN_TxHeaderTypeDef *pHeader,
                                       const uint8_t aData[], uint32_t *pTxMailbox)
{
 8002fbc:	b480      	push	{r7}
 8002fbe:	b089      	sub	sp, #36	@ 0x24
 8002fc0:	af00      	add	r7, sp, #0
 8002fc2:	60f8      	str	r0, [r7, #12]
 8002fc4:	60b9      	str	r1, [r7, #8]
 8002fc6:	607a      	str	r2, [r7, #4]
 8002fc8:	603b      	str	r3, [r7, #0]
  uint32_t transmitmailbox;
  HAL_CAN_StateTypeDef state = hcan->State;
 8002fca:	68fb      	ldr	r3, [r7, #12]
 8002fcc:	f893 3020 	ldrb.w	r3, [r3, #32]
 8002fd0:	77fb      	strb	r3, [r7, #31]
  uint32_t tsr = READ_REG(hcan->Instance->TSR);
 8002fd2:	68fb      	ldr	r3, [r7, #12]
 8002fd4:	681b      	ldr	r3, [r3, #0]
 8002fd6:	689b      	ldr	r3, [r3, #8]
 8002fd8:	61bb      	str	r3, [r7, #24]
  {
    assert_param(IS_CAN_EXTID(pHeader->ExtId));
  }
  assert_param(IS_FUNCTIONAL_STATE(pHeader->TransmitGlobalTime));

  if ((state == HAL_CAN_STATE_READY) ||
 8002fda:	7ffb      	ldrb	r3, [r7, #31]
 8002fdc:	2b01      	cmp	r3, #1
 8002fde:	d003      	beq.n	8002fe8 <HAL_CAN_AddTxMessage+0x2c>
 8002fe0:	7ffb      	ldrb	r3, [r7, #31]
 8002fe2:	2b02      	cmp	r3, #2
 8002fe4:	f040 80ad 	bne.w	8003142 <HAL_CAN_AddTxMessage+0x186>
      (state == HAL_CAN_STATE_LISTENING))
  {
    /* Check that all the Tx mailboxes are not full */
    if (((tsr & CAN_TSR_TME0) != 0U) ||
 8002fe8:	69bb      	ldr	r3, [r7, #24]
 8002fea:	f003 6380 	and.w	r3, r3, #67108864	@ 0x4000000
 8002fee:	2b00      	cmp	r3, #0
 8002ff0:	d10a      	bne.n	8003008 <HAL_CAN_AddTxMessage+0x4c>
        ((tsr & CAN_TSR_TME1) != 0U) ||
 8002ff2:	69bb      	ldr	r3, [r7, #24]
 8002ff4:	f003 6300 	and.w	r3, r3, #134217728	@ 0x8000000
    if (((tsr & CAN_TSR_TME0) != 0U) ||
 8002ff8:	2b00      	cmp	r3, #0
 8002ffa:	d105      	bne.n	8003008 <HAL_CAN_AddTxMessage+0x4c>
        ((tsr & CAN_TSR_TME2) != 0U))
 8002ffc:	69bb      	ldr	r3, [r7, #24]
 8002ffe:	f003 5380 	and.w	r3, r3, #268435456	@ 0x10000000
        ((tsr & CAN_TSR_TME1) != 0U) ||
 8003002:	2b00      	cmp	r3, #0
 8003004:	f000 8095 	beq.w	8003132 <HAL_CAN_AddTxMessage+0x176>
    {
      /* Select an empty transmit mailbox */
      transmitmailbox = (tsr & CAN_TSR_CODE) >> CAN_TSR_CODE_Pos;
 8003008:	69bb      	ldr	r3, [r7, #24]
 800300a:	0e1b      	lsrs	r3, r3, #24
 800300c:	f003 0303 	and.w	r3, r3, #3
 8003010:	617b      	str	r3, [r7, #20]

      /* Store the Tx mailbox */
      *pTxMailbox = (uint32_t)1 << transmitmailbox;
 8003012:	2201      	movs	r2, #1
 8003014:	697b      	ldr	r3, [r7, #20]
 8003016:	409a      	lsls	r2, r3
 8003018:	683b      	ldr	r3, [r7, #0]
 800301a:	601a      	str	r2, [r3, #0]

      /* Set up the Id */
      if (pHeader->IDE == CAN_ID_STD)
 800301c:	68bb      	ldr	r3, [r7, #8]
 800301e:	689b      	ldr	r3, [r3, #8]
 8003020:	2b00      	cmp	r3, #0
 8003022:	d10d      	bne.n	8003040 <HAL_CAN_AddTxMessage+0x84>
      {
        hcan->Instance->sTxMailBox[transmitmailbox].TIR = ((pHeader->StdId << CAN_TI0R_STID_Pos) |
 8003024:	68bb      	ldr	r3, [r7, #8]
 8003026:	681b      	ldr	r3, [r3, #0]
 8003028:	055a      	lsls	r2, r3, #21
                                                           pHeader->RTR);
 800302a:	68bb      	ldr	r3, [r7, #8]
 800302c:	68db      	ldr	r3, [r3, #12]
        hcan->Instance->sTxMailBox[transmitmailbox].TIR = ((pHeader->StdId << CAN_TI0R_STID_Pos) |
 800302e:	68f9      	ldr	r1, [r7, #12]
 8003030:	6809      	ldr	r1, [r1, #0]
 8003032:	431a      	orrs	r2, r3
 8003034:	697b      	ldr	r3, [r7, #20]
 8003036:	3318      	adds	r3, #24
 8003038:	011b      	lsls	r3, r3, #4
 800303a:	440b      	add	r3, r1
 800303c:	601a      	str	r2, [r3, #0]
 800303e:	e00f      	b.n	8003060 <HAL_CAN_AddTxMessage+0xa4>
      }
      else
      {
        hcan->Instance->sTxMailBox[transmitmailbox].TIR = ((pHeader->ExtId << CAN_TI0R_EXID_Pos) |
 8003040:	68bb      	ldr	r3, [r7, #8]
 8003042:	685b      	ldr	r3, [r3, #4]
 8003044:	00da      	lsls	r2, r3, #3
                                                           pHeader->IDE |
 8003046:	68bb      	ldr	r3, [r7, #8]
 8003048:	689b      	ldr	r3, [r3, #8]
        hcan->Instance->sTxMailBox[transmitmailbox].TIR = ((pHeader->ExtId << CAN_TI0R_EXID_Pos) |
 800304a:	431a      	orrs	r2, r3
                                                           pHeader->RTR);
 800304c:	68bb      	ldr	r3, [r7, #8]
 800304e:	68db      	ldr	r3, [r3, #12]
        hcan->Instance->sTxMailBox[transmitmailbox].TIR = ((pHeader->ExtId << CAN_TI0R_EXID_Pos) |
 8003050:	68f9      	ldr	r1, [r7, #12]
 8003052:	6809      	ldr	r1, [r1, #0]
                                                           pHeader->IDE |
 8003054:	431a      	orrs	r2, r3
        hcan->Instance->sTxMailBox[transmitmailbox].TIR = ((pHeader->ExtId << CAN_TI0R_EXID_Pos) |
 8003056:	697b      	ldr	r3, [r7, #20]
 8003058:	3318      	adds	r3, #24
 800305a:	011b      	lsls	r3, r3, #4
 800305c:	440b      	add	r3, r1
 800305e:	601a      	str	r2, [r3, #0]
      }

      /* Set up the DLC */
      hcan->Instance->sTxMailBox[transmitmailbox].TDTR = (pHeader->DLC);
 8003060:	68fb      	ldr	r3, [r7, #12]
 8003062:	6819      	ldr	r1, [r3, #0]
 8003064:	68bb      	ldr	r3, [r7, #8]
 8003066:	691a      	ldr	r2, [r3, #16]
 8003068:	697b      	ldr	r3, [r7, #20]
 800306a:	3318      	adds	r3, #24
 800306c:	011b      	lsls	r3, r3, #4
 800306e:	440b      	add	r3, r1
 8003070:	3304      	adds	r3, #4
 8003072:	601a      	str	r2, [r3, #0]

      /* Set up the Transmit Global Time mode */
      if (pHeader->TransmitGlobalTime == ENABLE)
 8003074:	68bb      	ldr	r3, [r7, #8]
 8003076:	7d1b      	ldrb	r3, [r3, #20]
 8003078:	2b01      	cmp	r3, #1
 800307a:	d111      	bne.n	80030a0 <HAL_CAN_AddTxMessage+0xe4>
      {
        SET_BIT(hcan->Instance->sTxMailBox[transmitmailbox].TDTR, CAN_TDT0R_TGT);
 800307c:	68fb      	ldr	r3, [r7, #12]
 800307e:	681a      	ldr	r2, [r3, #0]
 8003080:	697b      	ldr	r3, [r7, #20]
 8003082:	3318      	adds	r3, #24
 8003084:	011b      	lsls	r3, r3, #4
 8003086:	4413      	add	r3, r2
 8003088:	3304      	adds	r3, #4
 800308a:	681b      	ldr	r3, [r3, #0]
 800308c:	68fa      	ldr	r2, [r7, #12]
 800308e:	6811      	ldr	r1, [r2, #0]
 8003090:	f443 7280 	orr.w	r2, r3, #256	@ 0x100
 8003094:	697b      	ldr	r3, [r7, #20]
 8003096:	3318      	adds	r3, #24
 8003098:	011b      	lsls	r3, r3, #4
 800309a:	440b      	add	r3, r1
 800309c:	3304      	adds	r3, #4
 800309e:	601a      	str	r2, [r3, #0]
      }

      /* Set up the data field */
      WRITE_REG(hcan->Instance->sTxMailBox[transmitmailbox].TDHR,
 80030a0:	687b      	ldr	r3, [r7, #4]
 80030a2:	3307      	adds	r3, #7
 80030a4:	781b      	ldrb	r3, [r3, #0]
 80030a6:	061a      	lsls	r2, r3, #24
 80030a8:	687b      	ldr	r3, [r7, #4]
 80030aa:	3306      	adds	r3, #6
 80030ac:	781b      	ldrb	r3, [r3, #0]
 80030ae:	041b      	lsls	r3, r3, #16
 80030b0:	431a      	orrs	r2, r3
 80030b2:	687b      	ldr	r3, [r7, #4]
 80030b4:	3305      	adds	r3, #5
 80030b6:	781b      	ldrb	r3, [r3, #0]
 80030b8:	021b      	lsls	r3, r3, #8
 80030ba:	4313      	orrs	r3, r2
 80030bc:	687a      	ldr	r2, [r7, #4]
 80030be:	3204      	adds	r2, #4
 80030c0:	7812      	ldrb	r2, [r2, #0]
 80030c2:	4610      	mov	r0, r2
 80030c4:	68fa      	ldr	r2, [r7, #12]
 80030c6:	6811      	ldr	r1, [r2, #0]
 80030c8:	ea43 0200 	orr.w	r2, r3, r0
 80030cc:	697b      	ldr	r3, [r7, #20]
 80030ce:	011b      	lsls	r3, r3, #4
 80030d0:	440b      	add	r3, r1
 80030d2:	f503 73c6 	add.w	r3, r3, #396	@ 0x18c
 80030d6:	601a      	str	r2, [r3, #0]
                ((uint32_t)aData[7] << CAN_TDH0R_DATA7_Pos) |
                ((uint32_t)aData[6] << CAN_TDH0R_DATA6_Pos) |
                ((uint32_t)aData[5] << CAN_TDH0R_DATA5_Pos) |
                ((uint32_t)aData[4] << CAN_TDH0R_DATA4_Pos));
      WRITE_REG(hcan->Instance->sTxMailBox[transmitmailbox].TDLR,
 80030d8:	687b      	ldr	r3, [r7, #4]
 80030da:	3303      	adds	r3, #3
 80030dc:	781b      	ldrb	r3, [r3, #0]
 80030de:	061a      	lsls	r2, r3, #24
 80030e0:	687b      	ldr	r3, [r7, #4]
 80030e2:	3302      	adds	r3, #2
 80030e4:	781b      	ldrb	r3, [r3, #0]
 80030e6:	041b      	lsls	r3, r3, #16
 80030e8:	431a      	orrs	r2, r3
 80030ea:	687b      	ldr	r3, [r7, #4]
 80030ec:	3301      	adds	r3, #1
 80030ee:	781b      	ldrb	r3, [r3, #0]
 80030f0:	021b      	lsls	r3, r3, #8
 80030f2:	4313      	orrs	r3, r2
 80030f4:	687a      	ldr	r2, [r7, #4]
 80030f6:	7812      	ldrb	r2, [r2, #0]
 80030f8:	4610      	mov	r0, r2
 80030fa:	68fa      	ldr	r2, [r7, #12]
 80030fc:	6811      	ldr	r1, [r2, #0]
 80030fe:	ea43 0200 	orr.w	r2, r3, r0
 8003102:	697b      	ldr	r3, [r7, #20]
 8003104:	011b      	lsls	r3, r3, #4
 8003106:	440b      	add	r3, r1
 8003108:	f503 73c4 	add.w	r3, r3, #392	@ 0x188
 800310c:	601a      	str	r2, [r3, #0]
                ((uint32_t)aData[2] << CAN_TDL0R_DATA2_Pos) |
                ((uint32_t)aData[1] << CAN_TDL0R_DATA1_Pos) |
                ((uint32_t)aData[0] << CAN_TDL0R_DATA0_Pos));

      /* Request transmission */
      SET_BIT(hcan->Instance->sTxMailBox[transmitmailbox].TIR, CAN_TI0R_TXRQ);
 800310e:	68fb      	ldr	r3, [r7, #12]
 8003110:	681a      	ldr	r2, [r3, #0]
 8003112:	697b      	ldr	r3, [r7, #20]
 8003114:	3318      	adds	r3, #24
 8003116:	011b      	lsls	r3, r3, #4
 8003118:	4413      	add	r3, r2
 800311a:	681b      	ldr	r3, [r3, #0]
 800311c:	68fa      	ldr	r2, [r7, #12]
 800311e:	6811      	ldr	r1, [r2, #0]
 8003120:	f043 0201 	orr.w	r2, r3, #1
 8003124:	697b      	ldr	r3, [r7, #20]
 8003126:	3318      	adds	r3, #24
 8003128:	011b      	lsls	r3, r3, #4
 800312a:	440b      	add	r3, r1
 800312c:	601a      	str	r2, [r3, #0]

      /* Return function status */
      return HAL_OK;
 800312e:	2300      	movs	r3, #0
 8003130:	e00e      	b.n	8003150 <HAL_CAN_AddTxMessage+0x194>
    }
    else
    {
      /* Update error code */
      hcan->ErrorCode |= HAL_CAN_ERROR_PARAM;
 8003132:	68fb      	ldr	r3, [r7, #12]
 8003134:	6a5b      	ldr	r3, [r3, #36]	@ 0x24
 8003136:	f443 1200 	orr.w	r2, r3, #2097152	@ 0x200000
 800313a:	68fb      	ldr	r3, [r7, #12]
 800313c:	625a      	str	r2, [r3, #36]	@ 0x24

      return HAL_ERROR;
 800313e:	2301      	movs	r3, #1
 8003140:	e006      	b.n	8003150 <HAL_CAN_AddTxMessage+0x194>
    }
  }
  else
  {
    /* Update error code */
    hcan->ErrorCode |= HAL_CAN_ERROR_NOT_INITIALIZED;
 8003142:	68fb      	ldr	r3, [r7, #12]
 8003144:	6a5b      	ldr	r3, [r3, #36]	@ 0x24
 8003146:	f443 2280 	orr.w	r2, r3, #262144	@ 0x40000
 800314a:	68fb      	ldr	r3, [r7, #12]
 800314c:	625a      	str	r2, [r3, #36]	@ 0x24

    return HAL_ERROR;
 800314e:	2301      	movs	r3, #1
  }
}
 8003150:	4618      	mov	r0, r3
 8003152:	3724      	adds	r7, #36	@ 0x24
 8003154:	46bd      	mov	sp, r7
 8003156:	bc80      	pop	{r7}
 8003158:	4770      	bx	lr
	...

0800315c <__NVIC_SetPriorityGrouping>:
           In case of a conflict between priority grouping and available
           priority bits (__NVIC_PRIO_BITS), the smallest possible priority group is set.
  \param [in]      PriorityGroup  Priority grouping field.
 */
__STATIC_INLINE void __NVIC_SetPriorityGrouping(uint32_t PriorityGroup)
{
 800315c:	b480      	push	{r7}
 800315e:	b085      	sub	sp, #20
 8003160:	af00      	add	r7, sp, #0
 8003162:	6078      	str	r0, [r7, #4]
  uint32_t reg_value;
  uint32_t PriorityGroupTmp = (PriorityGroup & (uint32_t)0x07UL);             /* only values 0..7 are used          */
 8003164:	687b      	ldr	r3, [r7, #4]
 8003166:	f003 0307 	and.w	r3, r3, #7
 800316a:	60fb      	str	r3, [r7, #12]

  reg_value  =  SCB->AIRCR;                                                   /* read old register configuration    */
 800316c:	4b0c      	ldr	r3, [pc, #48]	@ (80031a0 <__NVIC_SetPriorityGrouping+0x44>)
 800316e:	68db      	ldr	r3, [r3, #12]
 8003170:	60bb      	str	r3, [r7, #8]
  reg_value &= ~((uint32_t)(SCB_AIRCR_VECTKEY_Msk | SCB_AIRCR_PRIGROUP_Msk)); /* clear bits to change               */
 8003172:	68ba      	ldr	r2, [r7, #8]
 8003174:	f64f 03ff 	movw	r3, #63743	@ 0xf8ff
 8003178:	4013      	ands	r3, r2
 800317a:	60bb      	str	r3, [r7, #8]
  reg_value  =  (reg_value                                   |
                ((uint32_t)0x5FAUL << SCB_AIRCR_VECTKEY_Pos) |
                (PriorityGroupTmp << SCB_AIRCR_PRIGROUP_Pos) );               /* Insert write key and priority group */
 800317c:	68fb      	ldr	r3, [r7, #12]
 800317e:	021a      	lsls	r2, r3, #8
                ((uint32_t)0x5FAUL << SCB_AIRCR_VECTKEY_Pos) |
 8003180:	68bb      	ldr	r3, [r7, #8]
 8003182:	4313      	orrs	r3, r2
  reg_value  =  (reg_value                                   |
 8003184:	f043 63bf 	orr.w	r3, r3, #100139008	@ 0x5f80000
 8003188:	f443 3300 	orr.w	r3, r3, #131072	@ 0x20000
 800318c:	60bb      	str	r3, [r7, #8]
  SCB->AIRCR =  reg_value;
 800318e:	4a04      	ldr	r2, [pc, #16]	@ (80031a0 <__NVIC_SetPriorityGrouping+0x44>)
 8003190:	68bb      	ldr	r3, [r7, #8]
 8003192:	60d3      	str	r3, [r2, #12]
}
 8003194:	bf00      	nop
 8003196:	3714      	adds	r7, #20
 8003198:	46bd      	mov	sp, r7
 800319a:	bc80      	pop	{r7}
 800319c:	4770      	bx	lr
 800319e:	bf00      	nop
 80031a0:	e000ed00 	.word	0xe000ed00

080031a4 <__NVIC_GetPriorityGrouping>:
  \brief   Get Priority Grouping
  \details Reads the priority grouping field from the NVIC Interrupt Controller.
  \return                Priority grouping field (SCB->AIRCR [10:8] PRIGROUP field).
 */
__STATIC_INLINE uint32_t __NVIC_GetPriorityGrouping(void)
{
 80031a4:	b480      	push	{r7}
 80031a6:	af00      	add	r7, sp, #0
  return ((uint32_t)((SCB->AIRCR & SCB_AIRCR_PRIGROUP_Msk) >> SCB_AIRCR_PRIGROUP_Pos));
 80031a8:	4b04      	ldr	r3, [pc, #16]	@ (80031bc <__NVIC_GetPriorityGrouping+0x18>)
 80031aa:	68db      	ldr	r3, [r3, #12]
 80031ac:	0a1b      	lsrs	r3, r3, #8
 80031ae:	f003 0307 	and.w	r3, r3, #7
}
 80031b2:	4618      	mov	r0, r3
 80031b4:	46bd      	mov	sp, r7
 80031b6:	bc80      	pop	{r7}
 80031b8:	4770      	bx	lr
 80031ba:	bf00      	nop
 80031bc:	e000ed00 	.word	0xe000ed00

080031c0 <__NVIC_SetPriority>:
  \param [in]      IRQn  Interrupt number.
  \param [in]  priority  Priority to set.
  \note    The priority cannot be set for every processor exception.
 */
__STATIC_INLINE void __NVIC_SetPriority(IRQn_Type IRQn, uint32_t priority)
{
 80031c0:	b480      	push	{r7}
 80031c2:	b083      	sub	sp, #12
 80031c4:	af00      	add	r7, sp, #0
 80031c6:	4603      	mov	r3, r0
 80031c8:	6039      	str	r1, [r7, #0]
 80031ca:	71fb      	strb	r3, [r7, #7]
  if ((int32_t)(IRQn) >= 0)
 80031cc:	f997 3007 	ldrsb.w	r3, [r7, #7]
 80031d0:	2b00      	cmp	r3, #0
 80031d2:	db0a      	blt.n	80031ea <__NVIC_SetPriority+0x2a>
  {
    NVIC->IP[((uint32_t)IRQn)]               = (uint8_t)((priority << (8U - __NVIC_PRIO_BITS)) & (uint32_t)0xFFUL);
 80031d4:	683b      	ldr	r3, [r7, #0]
 80031d6:	b2da      	uxtb	r2, r3
 80031d8:	490c      	ldr	r1, [pc, #48]	@ (800320c <__NVIC_SetPriority+0x4c>)
 80031da:	f997 3007 	ldrsb.w	r3, [r7, #7]
 80031de:	0112      	lsls	r2, r2, #4
 80031e0:	b2d2      	uxtb	r2, r2
 80031e2:	440b      	add	r3, r1
 80031e4:	f883 2300 	strb.w	r2, [r3, #768]	@ 0x300
  }
  else
  {
    SCB->SHP[(((uint32_t)IRQn) & 0xFUL)-4UL] = (uint8_t)((priority << (8U - __NVIC_PRIO_BITS)) & (uint32_t)0xFFUL);
  }
}
 80031e8:	e00a      	b.n	8003200 <__NVIC_SetPriority+0x40>
    SCB->SHP[(((uint32_t)IRQn) & 0xFUL)-4UL] = (uint8_t)((priority << (8U - __NVIC_PRIO_BITS)) & (uint32_t)0xFFUL);
 80031ea:	683b      	ldr	r3, [r7, #0]
 80031ec:	b2da      	uxtb	r2, r3
 80031ee:	4908      	ldr	r1, [pc, #32]	@ (8003210 <__NVIC_SetPriority+0x50>)
 80031f0:	79fb      	ldrb	r3, [r7, #7]
 80031f2:	f003 030f 	and.w	r3, r3, #15
 80031f6:	3b04      	subs	r3, #4
 80031f8:	0112      	lsls	r2, r2, #4
 80031fa:	b2d2      	uxtb	r2, r2
 80031fc:	440b      	add	r3, r1
 80031fe:	761a      	strb	r2, [r3, #24]
}
 8003200:	bf00      	nop
 8003202:	370c      	adds	r7, #12
 8003204:	46bd      	mov	sp, r7
 8003206:	bc80      	pop	{r7}
 8003208:	4770      	bx	lr
 800320a:	bf00      	nop
 800320c:	e000e100 	.word	0xe000e100
 8003210:	e000ed00 	.word	0xe000ed00

08003214 <NVIC_EncodePriority>:
  \param [in]   PreemptPriority  Preemptive priority value (starting from 0).
  \param [in]       SubPriority  Subpriority value (starting from 0).
  \return                        Encoded priority. Value can be used in the function \ref NVIC_SetPriority().
 */
__STATIC_INLINE uint32_t NVIC_EncodePriority (uint32_t PriorityGroup, uint32_t PreemptPriority, uint32_t SubPriority)
{
 8003214:	b480      	push	{r7}
 8003216:	b089      	sub	sp, #36	@ 0x24
 8003218:	af00      	add	r7, sp, #0
 800321a:	60f8      	str	r0, [r7, #12]
 800321c:	60b9      	str	r1, [r7, #8]
 800321e:	607a      	str	r2, [r7, #4]
  uint32_t PriorityGroupTmp = (PriorityGroup & (uint32_t)0x07UL);   /* only values 0..7 are used          */
 8003220:	68fb      	ldr	r3, [r7, #12]
 8003222:	f003 0307 	and.w	r3, r3, #7
 8003226:	61fb      	str	r3, [r7, #28]
  uint32_t PreemptPriorityBits;
  uint32_t SubPriorityBits;

  PreemptPriorityBits = ((7UL - PriorityGroupTmp) > (uint32_t)(__NVIC_PRIO_BITS)) ? (uint32_t)(__NVIC_PRIO_BITS) : (uint32_t)(7UL - PriorityGroupTmp);
 8003228:	69fb      	ldr	r3, [r7, #28]
 800322a:	f1c3 0307 	rsb	r3, r3, #7
 800322e:	2b04      	cmp	r3, #4
 8003230:	bf28      	it	cs
 8003232:	2304      	movcs	r3, #4
 8003234:	61bb      	str	r3, [r7, #24]
  SubPriorityBits     = ((PriorityGroupTmp + (uint32_t)(__NVIC_PRIO_BITS)) < (uint32_t)7UL) ? (uint32_t)0UL : (uint32_t)((PriorityGroupTmp - 7UL) + (uint32_t)(__NVIC_PRIO_BITS));
 8003236:	69fb      	ldr	r3, [r7, #28]
 8003238:	3304      	adds	r3, #4
 800323a:	2b06      	cmp	r3, #6
 800323c:	d902      	bls.n	8003244 <NVIC_EncodePriority+0x30>
 800323e:	69fb      	ldr	r3, [r7, #28]
 8003240:	3b03      	subs	r3, #3
 8003242:	e000      	b.n	8003246 <NVIC_EncodePriority+0x32>
 8003244:	2300      	movs	r3, #0
 8003246:	617b      	str	r3, [r7, #20]

  return (
           ((PreemptPriority & (uint32_t)((1UL << (PreemptPriorityBits)) - 1UL)) << SubPriorityBits) |
 8003248:	f04f 32ff 	mov.w	r2, #4294967295	@ 0xffffffff
 800324c:	69bb      	ldr	r3, [r7, #24]
 800324e:	fa02 f303 	lsl.w	r3, r2, r3
 8003252:	43da      	mvns	r2, r3
 8003254:	68bb      	ldr	r3, [r7, #8]
 8003256:	401a      	ands	r2, r3
 8003258:	697b      	ldr	r3, [r7, #20]
 800325a:	409a      	lsls	r2, r3
           ((SubPriority     & (uint32_t)((1UL << (SubPriorityBits    )) - 1UL)))
 800325c:	f04f 31ff 	mov.w	r1, #4294967295	@ 0xffffffff
 8003260:	697b      	ldr	r3, [r7, #20]
 8003262:	fa01 f303 	lsl.w	r3, r1, r3
 8003266:	43d9      	mvns	r1, r3
 8003268:	687b      	ldr	r3, [r7, #4]
 800326a:	400b      	ands	r3, r1
           ((PreemptPriority & (uint32_t)((1UL << (PreemptPriorityBits)) - 1UL)) << SubPriorityBits) |
 800326c:	4313      	orrs	r3, r2
         );
}
 800326e:	4618      	mov	r0, r3
 8003270:	3724      	adds	r7, #36	@ 0x24
 8003272:	46bd      	mov	sp, r7
 8003274:	bc80      	pop	{r7}
 8003276:	4770      	bx	lr

08003278 <SysTick_Config>:
  \note    When the variable <b>__Vendor_SysTickConfig</b> is set to 1, then the
           function <b>SysTick_Config</b> is not included. In this case, the file <b><i>device</i>.h</b>
           must contain a vendor-specific implementation of this function.
 */
__STATIC_INLINE uint32_t SysTick_Config(uint32_t ticks)
{
 8003278:	b580      	push	{r7, lr}
 800327a:	b082      	sub	sp, #8
 800327c:	af00      	add	r7, sp, #0
 800327e:	6078      	str	r0, [r7, #4]
  if ((ticks - 1UL) > SysTick_LOAD_RELOAD_Msk)
 8003280:	687b      	ldr	r3, [r7, #4]
 8003282:	3b01      	subs	r3, #1
 8003284:	f1b3 7f80 	cmp.w	r3, #16777216	@ 0x1000000
 8003288:	d301      	bcc.n	800328e <SysTick_Config+0x16>
  {
    return (1UL);                                                   /* Reload value impossible */
 800328a:	2301      	movs	r3, #1
 800328c:	e00f      	b.n	80032ae <SysTick_Config+0x36>
  }

  SysTick->LOAD  = (uint32_t)(ticks - 1UL);                         /* set reload register */
 800328e:	4a0a      	ldr	r2, [pc, #40]	@ (80032b8 <SysTick_Config+0x40>)
 8003290:	687b      	ldr	r3, [r7, #4]
 8003292:	3b01      	subs	r3, #1
 8003294:	6053      	str	r3, [r2, #4]
  NVIC_SetPriority (SysTick_IRQn, (1UL << __NVIC_PRIO_BITS) - 1UL); /* set Priority for Systick Interrupt */
 8003296:	210f      	movs	r1, #15
 8003298:	f04f 30ff 	mov.w	r0, #4294967295	@ 0xffffffff
 800329c:	f7ff ff90 	bl	80031c0 <__NVIC_SetPriority>
  SysTick->VAL   = 0UL;                                             /* Load the SysTick Counter Value */
 80032a0:	4b05      	ldr	r3, [pc, #20]	@ (80032b8 <SysTick_Config+0x40>)
 80032a2:	2200      	movs	r2, #0
 80032a4:	609a      	str	r2, [r3, #8]
  SysTick->CTRL  = SysTick_CTRL_CLKSOURCE_Msk |
 80032a6:	4b04      	ldr	r3, [pc, #16]	@ (80032b8 <SysTick_Config+0x40>)
 80032a8:	2207      	movs	r2, #7
 80032aa:	601a      	str	r2, [r3, #0]
                   SysTick_CTRL_TICKINT_Msk   |
                   SysTick_CTRL_ENABLE_Msk;                         /* Enable SysTick IRQ and SysTick Timer */
  return (0UL);                                                     /* Function successful */
 80032ac:	2300      	movs	r3, #0
}
 80032ae:	4618      	mov	r0, r3
 80032b0:	3708      	adds	r7, #8
 80032b2:	46bd      	mov	sp, r7
 80032b4:	bd80      	pop	{r7, pc}
 80032b6:	bf00      	nop
 80032b8:	e000e010 	.word	0xe000e010

080032bc <HAL_NVIC_SetPriorityGrouping>:
  * @note   When the NVIC_PriorityGroup_0 is selected, IRQ preemption is no more possible. 
  *         The pending IRQ priority will be managed only by the subpriority. 
  * @retval None
  */
void HAL_NVIC_SetPriorityGrouping(uint32_t PriorityGroup)
{
 80032bc:	b580      	push	{r7, lr}
 80032be:	b082      	sub	sp, #8
 80032c0:	af00      	add	r7, sp, #0
 80032c2:	6078      	str	r0, [r7, #4]
  /* Check the parameters */
  assert_param(IS_NVIC_PRIORITY_GROUP(PriorityGroup));
  
  /* Set the PRIGROUP[10:8] bits according to the PriorityGroup parameter value */
  NVIC_SetPriorityGrouping(PriorityGroup);
 80032c4:	6878      	ldr	r0, [r7, #4]
 80032c6:	f7ff ff49 	bl	800315c <__NVIC_SetPriorityGrouping>
}
 80032ca:	bf00      	nop
 80032cc:	3708      	adds	r7, #8
 80032ce:	46bd      	mov	sp, r7
 80032d0:	bd80      	pop	{r7, pc}

080032d2 <HAL_NVIC_SetPriority>:
  *         This parameter can be a value between 0 and 15
  *         A lower priority value indicates a higher priority.          
  * @retval None
  */
void HAL_NVIC_SetPriority(IRQn_Type IRQn, uint32_t PreemptPriority, uint32_t SubPriority)
{ 
 80032d2:	b580      	push	{r7, lr}
 80032d4:	b086      	sub	sp, #24
 80032d6:	af00      	add	r7, sp, #0
 80032d8:	4603      	mov	r3, r0
 80032da:	60b9      	str	r1, [r7, #8]
 80032dc:	607a      	str	r2, [r7, #4]
 80032de:	73fb      	strb	r3, [r7, #15]
  uint32_t prioritygroup = 0x00U;
 80032e0:	2300      	movs	r3, #0
 80032e2:	617b      	str	r3, [r7, #20]
  
  /* Check the parameters */
  assert_param(IS_NVIC_SUB_PRIORITY(SubPriority));
  assert_param(IS_NVIC_PREEMPTION_PRIORITY(PreemptPriority));
  
  prioritygroup = NVIC_GetPriorityGrouping();
 80032e4:	f7ff ff5e 	bl	80031a4 <__NVIC_GetPriorityGrouping>
 80032e8:	6178      	str	r0, [r7, #20]
  
  NVIC_SetPriority(IRQn, NVIC_EncodePriority(prioritygroup, PreemptPriority, SubPriority));
 80032ea:	687a      	ldr	r2, [r7, #4]
 80032ec:	68b9      	ldr	r1, [r7, #8]
 80032ee:	6978      	ldr	r0, [r7, #20]
 80032f0:	f7ff ff90 	bl	8003214 <NVIC_EncodePriority>
 80032f4:	4602      	mov	r2, r0
 80032f6:	f997 300f 	ldrsb.w	r3, [r7, #15]
 80032fa:	4611      	mov	r1, r2
 80032fc:	4618      	mov	r0, r3
 80032fe:	f7ff ff5f 	bl	80031c0 <__NVIC_SetPriority>
}
 8003302:	bf00      	nop
 8003304:	3718      	adds	r7, #24
 8003306:	46bd      	mov	sp, r7
 8003308:	bd80      	pop	{r7, pc}

0800330a <HAL_SYSTICK_Config>:
  * @param  TicksNumb: Specifies the ticks Number of ticks between two interrupts.
  * @retval status:  - 0  Function succeeded.
  *                  - 1  Function failed.
  */
uint32_t HAL_SYSTICK_Config(uint32_t TicksNumb)
{
 800330a:	b580      	push	{r7, lr}
 800330c:	b082      	sub	sp, #8
 800330e:	af00      	add	r7, sp, #0
 8003310:	6078      	str	r0, [r7, #4]
   return SysTick_Config(TicksNumb);
 8003312:	6878      	ldr	r0, [r7, #4]
 8003314:	f7ff ffb0 	bl	8003278 <SysTick_Config>
 8003318:	4603      	mov	r3, r0
}
 800331a:	4618      	mov	r0, r3
 800331c:	3708      	adds	r7, #8
 800331e:	46bd      	mov	sp, r7
 8003320:	bd80      	pop	{r7, pc}
	...

08003324 <HAL_GPIO_Init>:
  * @param  GPIO_Init: pointer to a GPIO_InitTypeDef structure that contains
  *         the configuration information for the specified GPIO peripheral.
  * @retval None
  */
void HAL_GPIO_Init(GPIO_TypeDef  *GPIOx, GPIO_InitTypeDef *GPIO_Init)
{
 8003324:	b480      	push	{r7}
 8003326:	b08b      	sub	sp, #44	@ 0x2c
 8003328:	af00      	add	r7, sp, #0
 800332a:	6078      	str	r0, [r7, #4]
 800332c:	6039      	str	r1, [r7, #0]
  uint32_t position = 0x00u;
 800332e:	2300      	movs	r3, #0
 8003330:	627b      	str	r3, [r7, #36]	@ 0x24
  uint32_t ioposition;
  uint32_t iocurrent;
  uint32_t temp;
  uint32_t config = 0x00u;
 8003332:	2300      	movs	r3, #0
 8003334:	623b      	str	r3, [r7, #32]
  assert_param(IS_GPIO_ALL_INSTANCE(GPIOx));
  assert_param(IS_GPIO_PIN(GPIO_Init->Pin));
  assert_param(IS_GPIO_MODE(GPIO_Init->Mode));

  /* Configure the port pins */
  while (((GPIO_Init->Pin) >> position) != 0x00u)
 8003336:	e169      	b.n	800360c <HAL_GPIO_Init+0x2e8>
  {
    /* Get the IO position */
    ioposition = (0x01uL << position);
 8003338:	2201      	movs	r2, #1
 800333a:	6a7b      	ldr	r3, [r7, #36]	@ 0x24
 800333c:	fa02 f303 	lsl.w	r3, r2, r3
 8003340:	61fb      	str	r3, [r7, #28]

    /* Get the current IO position */
    iocurrent = (uint32_t)(GPIO_Init->Pin) & ioposition;
 8003342:	683b      	ldr	r3, [r7, #0]
 8003344:	681b      	ldr	r3, [r3, #0]
 8003346:	69fa      	ldr	r2, [r7, #28]
 8003348:	4013      	ands	r3, r2
 800334a:	61bb      	str	r3, [r7, #24]

    if (iocurrent == ioposition)
 800334c:	69ba      	ldr	r2, [r7, #24]
 800334e:	69fb      	ldr	r3, [r7, #28]
 8003350:	429a      	cmp	r2, r3
 8003352:	f040 8158 	bne.w	8003606 <HAL_GPIO_Init+0x2e2>
    {
      /* Check the Alternate function parameters */
      assert_param(IS_GPIO_AF_INSTANCE(GPIOx));

      /* Based on the required mode, filling config variable with MODEy[1:0] and CNFy[3:2] corresponding bits */
      switch (GPIO_Init->Mode)
 8003356:	683b      	ldr	r3, [r7, #0]
 8003358:	685b      	ldr	r3, [r3, #4]
 800335a:	4a9a      	ldr	r2, [pc, #616]	@ (80035c4 <HAL_GPIO_Init+0x2a0>)
 800335c:	4293      	cmp	r3, r2
 800335e:	d05e      	beq.n	800341e <HAL_GPIO_Init+0xfa>
 8003360:	4a98      	ldr	r2, [pc, #608]	@ (80035c4 <HAL_GPIO_Init+0x2a0>)
 8003362:	4293      	cmp	r3, r2
 8003364:	d875      	bhi.n	8003452 <HAL_GPIO_Init+0x12e>
 8003366:	4a98      	ldr	r2, [pc, #608]	@ (80035c8 <HAL_GPIO_Init+0x2a4>)
 8003368:	4293      	cmp	r3, r2
 800336a:	d058      	beq.n	800341e <HAL_GPIO_Init+0xfa>
 800336c:	4a96      	ldr	r2, [pc, #600]	@ (80035c8 <HAL_GPIO_Init+0x2a4>)
 800336e:	4293      	cmp	r3, r2
 8003370:	d86f      	bhi.n	8003452 <HAL_GPIO_Init+0x12e>
 8003372:	4a96      	ldr	r2, [pc, #600]	@ (80035cc <HAL_GPIO_Init+0x2a8>)
 8003374:	4293      	cmp	r3, r2
 8003376:	d052      	beq.n	800341e <HAL_GPIO_Init+0xfa>
 8003378:	4a94      	ldr	r2, [pc, #592]	@ (80035cc <HAL_GPIO_Init+0x2a8>)
 800337a:	4293      	cmp	r3, r2
 800337c:	d869      	bhi.n	8003452 <HAL_GPIO_Init+0x12e>
 800337e:	4a94      	ldr	r2, [pc, #592]	@ (80035d0 <HAL_GPIO_Init+0x2ac>)
 8003380:	4293      	cmp	r3, r2
 8003382:	d04c      	beq.n	800341e <HAL_GPIO_Init+0xfa>
 8003384:	4a92      	ldr	r2, [pc, #584]	@ (80035d0 <HAL_GPIO_Init+0x2ac>)
 8003386:	4293      	cmp	r3, r2
 8003388:	d863      	bhi.n	8003452 <HAL_GPIO_Init+0x12e>
 800338a:	4a92      	ldr	r2, [pc, #584]	@ (80035d4 <HAL_GPIO_Init+0x2b0>)
 800338c:	4293      	cmp	r3, r2
 800338e:	d046      	beq.n	800341e <HAL_GPIO_Init+0xfa>
 8003390:	4a90      	ldr	r2, [pc, #576]	@ (80035d4 <HAL_GPIO_Init+0x2b0>)
 8003392:	4293      	cmp	r3, r2
 8003394:	d85d      	bhi.n	8003452 <HAL_GPIO_Init+0x12e>
 8003396:	2b12      	cmp	r3, #18
 8003398:	d82a      	bhi.n	80033f0 <HAL_GPIO_Init+0xcc>
 800339a:	2b12      	cmp	r3, #18
 800339c:	d859      	bhi.n	8003452 <HAL_GPIO_Init+0x12e>
 800339e:	a201      	add	r2, pc, #4	@ (adr r2, 80033a4 <HAL_GPIO_Init+0x80>)
 80033a0:	f852 f023 	ldr.w	pc, [r2, r3, lsl #2]
 80033a4:	0800341f 	.word	0x0800341f
 80033a8:	080033f9 	.word	0x080033f9
 80033ac:	0800340b 	.word	0x0800340b
 80033b0:	0800344d 	.word	0x0800344d
 80033b4:	08003453 	.word	0x08003453
 80033b8:	08003453 	.word	0x08003453
 80033bc:	08003453 	.word	0x08003453
 80033c0:	08003453 	.word	0x08003453
 80033c4:	08003453 	.word	0x08003453
 80033c8:	08003453 	.word	0x08003453
 80033cc:	08003453 	.word	0x08003453
 80033d0:	08003453 	.word	0x08003453
 80033d4:	08003453 	.word	0x08003453
 80033d8:	08003453 	.word	0x08003453
 80033dc:	08003453 	.word	0x08003453
 80033e0:	08003453 	.word	0x08003453
 80033e4:	08003453 	.word	0x08003453
 80033e8:	08003401 	.word	0x08003401
 80033ec:	08003415 	.word	0x08003415
 80033f0:	4a79      	ldr	r2, [pc, #484]	@ (80035d8 <HAL_GPIO_Init+0x2b4>)
 80033f2:	4293      	cmp	r3, r2
 80033f4:	d013      	beq.n	800341e <HAL_GPIO_Init+0xfa>
          config = GPIO_CR_MODE_INPUT + GPIO_CR_CNF_ANALOG;
          break;

        /* Parameters are checked with assert_param */
        default:
          break;
 80033f6:	e02c      	b.n	8003452 <HAL_GPIO_Init+0x12e>
          config = GPIO_Init->Speed + GPIO_CR_CNF_GP_OUTPUT_PP;
 80033f8:	683b      	ldr	r3, [r7, #0]
 80033fa:	68db      	ldr	r3, [r3, #12]
 80033fc:	623b      	str	r3, [r7, #32]
          break;
 80033fe:	e029      	b.n	8003454 <HAL_GPIO_Init+0x130>
          config = GPIO_Init->Speed + GPIO_CR_CNF_GP_OUTPUT_OD;
 8003400:	683b      	ldr	r3, [r7, #0]
 8003402:	68db      	ldr	r3, [r3, #12]
 8003404:	3304      	adds	r3, #4
 8003406:	623b      	str	r3, [r7, #32]
          break;
 8003408:	e024      	b.n	8003454 <HAL_GPIO_Init+0x130>
          config = GPIO_Init->Speed + GPIO_CR_CNF_AF_OUTPUT_PP;
 800340a:	683b      	ldr	r3, [r7, #0]
 800340c:	68db      	ldr	r3, [r3, #12]
 800340e:	3308      	adds	r3, #8
 8003410:	623b      	str	r3, [r7, #32]
          break;
 8003412:	e01f      	b.n	8003454 <HAL_GPIO_Init+0x130>
          config = GPIO_Init->Speed + GPIO_CR_CNF_AF_OUTPUT_OD;
 8003414:	683b      	ldr	r3, [r7, #0]
 8003416:	68db      	ldr	r3, [r3, #12]
 8003418:	330c      	adds	r3, #12
 800341a:	623b      	str	r3, [r7, #32]
          break;
 800341c:	e01a      	b.n	8003454 <HAL_GPIO_Init+0x130>
          if (GPIO_Init->Pull == GPIO_NOPULL)
 800341e:	683b      	ldr	r3, [r7, #0]
 8003420:	689b      	ldr	r3, [r3, #8]
 8003422:	2b00      	cmp	r3, #0
 8003424:	d102      	bne.n	800342c <HAL_GPIO_Init+0x108>
            config = GPIO_CR_MODE_INPUT + GPIO_CR_CNF_INPUT_FLOATING;
 8003426:	2304      	movs	r3, #4
 8003428:	623b      	str	r3, [r7, #32]
          break;
 800342a:	e013      	b.n	8003454 <HAL_GPIO_Init+0x130>
          else if (GPIO_Init->Pull == GPIO_PULLUP)
 800342c:	683b      	ldr	r3, [r7, #0]
 800342e:	689b      	ldr	r3, [r3, #8]
 8003430:	2b01      	cmp	r3, #1
 8003432:	d105      	bne.n	8003440 <HAL_GPIO_Init+0x11c>
            config = GPIO_CR_MODE_INPUT + GPIO_CR_CNF_INPUT_PU_PD;
 8003434:	2308      	movs	r3, #8
 8003436:	623b      	str	r3, [r7, #32]
            GPIOx->BSRR = ioposition;
 8003438:	687b      	ldr	r3, [r7, #4]
 800343a:	69fa      	ldr	r2, [r7, #28]
 800343c:	611a      	str	r2, [r3, #16]
          break;
 800343e:	e009      	b.n	8003454 <HAL_GPIO_Init+0x130>
            config = GPIO_CR_MODE_INPUT + GPIO_CR_CNF_INPUT_PU_PD;
 8003440:	2308      	movs	r3, #8
 8003442:	623b      	str	r3, [r7, #32]
            GPIOx->BRR = ioposition;
 8003444:	687b      	ldr	r3, [r7, #4]
 8003446:	69fa      	ldr	r2, [r7, #28]
 8003448:	615a      	str	r2, [r3, #20]
          break;
 800344a:	e003      	b.n	8003454 <HAL_GPIO_Init+0x130>
          config = GPIO_CR_MODE_INPUT + GPIO_CR_CNF_ANALOG;
 800344c:	2300      	movs	r3, #0
 800344e:	623b      	str	r3, [r7, #32]
          break;
 8003450:	e000      	b.n	8003454 <HAL_GPIO_Init+0x130>
          break;
 8003452:	bf00      	nop
      }

      /* Check if the current bit belongs to first half or last half of the pin count number
       in order to address CRH or CRL register*/
      configregister = (iocurrent < GPIO_PIN_8) ? &GPIOx->CRL     : &GPIOx->CRH;
 8003454:	69bb      	ldr	r3, [r7, #24]
 8003456:	2bff      	cmp	r3, #255	@ 0xff
 8003458:	d801      	bhi.n	800345e <HAL_GPIO_Init+0x13a>
 800345a:	687b      	ldr	r3, [r7, #4]
 800345c:	e001      	b.n	8003462 <HAL_GPIO_Init+0x13e>
 800345e:	687b      	ldr	r3, [r7, #4]
 8003460:	3304      	adds	r3, #4
 8003462:	617b      	str	r3, [r7, #20]
      registeroffset = (iocurrent < GPIO_PIN_8) ? (position << 2u) : ((position - 8u) << 2u);
 8003464:	69bb      	ldr	r3, [r7, #24]
 8003466:	2bff      	cmp	r3, #255	@ 0xff
 8003468:	d802      	bhi.n	8003470 <HAL_GPIO_Init+0x14c>
 800346a:	6a7b      	ldr	r3, [r7, #36]	@ 0x24
 800346c:	009b      	lsls	r3, r3, #2
 800346e:	e002      	b.n	8003476 <HAL_GPIO_Init+0x152>
 8003470:	6a7b      	ldr	r3, [r7, #36]	@ 0x24
 8003472:	3b08      	subs	r3, #8
 8003474:	009b      	lsls	r3, r3, #2
 8003476:	613b      	str	r3, [r7, #16]

      /* Apply the new configuration of the pin to the register */
      MODIFY_REG((*configregister), ((GPIO_CRL_MODE0 | GPIO_CRL_CNF0) << registeroffset), (config << registeroffset));
 8003478:	697b      	ldr	r3, [r7, #20]
 800347a:	681a      	ldr	r2, [r3, #0]
 800347c:	210f      	movs	r1, #15
 800347e:	693b      	ldr	r3, [r7, #16]
 8003480:	fa01 f303 	lsl.w	r3, r1, r3
 8003484:	43db      	mvns	r3, r3
 8003486:	401a      	ands	r2, r3
 8003488:	6a39      	ldr	r1, [r7, #32]
 800348a:	693b      	ldr	r3, [r7, #16]
 800348c:	fa01 f303 	lsl.w	r3, r1, r3
 8003490:	431a      	orrs	r2, r3
 8003492:	697b      	ldr	r3, [r7, #20]
 8003494:	601a      	str	r2, [r3, #0]

      /*--------------------- EXTI Mode Configuration ------------------------*/
      /* Configure the External Interrupt or event for the current IO */
      if ((GPIO_Init->Mode & EXTI_MODE) == EXTI_MODE)
 8003496:	683b      	ldr	r3, [r7, #0]
 8003498:	685b      	ldr	r3, [r3, #4]
 800349a:	f003 5380 	and.w	r3, r3, #268435456	@ 0x10000000
 800349e:	2b00      	cmp	r3, #0
 80034a0:	f000 80b1 	beq.w	8003606 <HAL_GPIO_Init+0x2e2>
      {
        /* Enable AFIO Clock */
        __HAL_RCC_AFIO_CLK_ENABLE();
 80034a4:	4b4d      	ldr	r3, [pc, #308]	@ (80035dc <HAL_GPIO_Init+0x2b8>)
 80034a6:	699b      	ldr	r3, [r3, #24]
 80034a8:	4a4c      	ldr	r2, [pc, #304]	@ (80035dc <HAL_GPIO_Init+0x2b8>)
 80034aa:	f043 0301 	orr.w	r3, r3, #1
 80034ae:	6193      	str	r3, [r2, #24]
 80034b0:	4b4a      	ldr	r3, [pc, #296]	@ (80035dc <HAL_GPIO_Init+0x2b8>)
 80034b2:	699b      	ldr	r3, [r3, #24]
 80034b4:	f003 0301 	and.w	r3, r3, #1
 80034b8:	60bb      	str	r3, [r7, #8]
 80034ba:	68bb      	ldr	r3, [r7, #8]
        temp = AFIO->EXTICR[position >> 2u];
 80034bc:	4a48      	ldr	r2, [pc, #288]	@ (80035e0 <HAL_GPIO_Init+0x2bc>)
 80034be:	6a7b      	ldr	r3, [r7, #36]	@ 0x24
 80034c0:	089b      	lsrs	r3, r3, #2
 80034c2:	3302      	adds	r3, #2
 80034c4:	f852 3023 	ldr.w	r3, [r2, r3, lsl #2]
 80034c8:	60fb      	str	r3, [r7, #12]
        CLEAR_BIT(temp, (0x0Fu) << (4u * (position & 0x03u)));
 80034ca:	6a7b      	ldr	r3, [r7, #36]	@ 0x24
 80034cc:	f003 0303 	and.w	r3, r3, #3
 80034d0:	009b      	lsls	r3, r3, #2
 80034d2:	220f      	movs	r2, #15
 80034d4:	fa02 f303 	lsl.w	r3, r2, r3
 80034d8:	43db      	mvns	r3, r3
 80034da:	68fa      	ldr	r2, [r7, #12]
 80034dc:	4013      	ands	r3, r2
 80034de:	60fb      	str	r3, [r7, #12]
        SET_BIT(temp, (GPIO_GET_INDEX(GPIOx)) << (4u * (position & 0x03u)));
 80034e0:	687b      	ldr	r3, [r7, #4]
 80034e2:	4a40      	ldr	r2, [pc, #256]	@ (80035e4 <HAL_GPIO_Init+0x2c0>)
 80034e4:	4293      	cmp	r3, r2
 80034e6:	d013      	beq.n	8003510 <HAL_GPIO_Init+0x1ec>
 80034e8:	687b      	ldr	r3, [r7, #4]
 80034ea:	4a3f      	ldr	r2, [pc, #252]	@ (80035e8 <HAL_GPIO_Init+0x2c4>)
 80034ec:	4293      	cmp	r3, r2
 80034ee:	d00d      	beq.n	800350c <HAL_GPIO_Init+0x1e8>
 80034f0:	687b      	ldr	r3, [r7, #4]
 80034f2:	4a3e      	ldr	r2, [pc, #248]	@ (80035ec <HAL_GPIO_Init+0x2c8>)
 80034f4:	4293      	cmp	r3, r2
 80034f6:	d007      	beq.n	8003508 <HAL_GPIO_Init+0x1e4>
 80034f8:	687b      	ldr	r3, [r7, #4]
 80034fa:	4a3d      	ldr	r2, [pc, #244]	@ (80035f0 <HAL_GPIO_Init+0x2cc>)
 80034fc:	4293      	cmp	r3, r2
 80034fe:	d101      	bne.n	8003504 <HAL_GPIO_Init+0x1e0>
 8003500:	2303      	movs	r3, #3
 8003502:	e006      	b.n	8003512 <HAL_GPIO_Init+0x1ee>
 8003504:	2304      	movs	r3, #4
 8003506:	e004      	b.n	8003512 <HAL_GPIO_Init+0x1ee>
 8003508:	2302      	movs	r3, #2
 800350a:	e002      	b.n	8003512 <HAL_GPIO_Init+0x1ee>
 800350c:	2301      	movs	r3, #1
 800350e:	e000      	b.n	8003512 <HAL_GPIO_Init+0x1ee>
 8003510:	2300      	movs	r3, #0
 8003512:	6a7a      	ldr	r2, [r7, #36]	@ 0x24
 8003514:	f002 0203 	and.w	r2, r2, #3
 8003518:	0092      	lsls	r2, r2, #2
 800351a:	4093      	lsls	r3, r2
 800351c:	68fa      	ldr	r2, [r7, #12]
 800351e:	4313      	orrs	r3, r2
 8003520:	60fb      	str	r3, [r7, #12]
        AFIO->EXTICR[position >> 2u] = temp;
 8003522:	492f      	ldr	r1, [pc, #188]	@ (80035e0 <HAL_GPIO_Init+0x2bc>)
 8003524:	6a7b      	ldr	r3, [r7, #36]	@ 0x24
 8003526:	089b      	lsrs	r3, r3, #2
 8003528:	3302      	adds	r3, #2
 800352a:	68fa      	ldr	r2, [r7, #12]
 800352c:	f841 2023 	str.w	r2, [r1, r3, lsl #2]


        /* Enable or disable the rising trigger */
        if ((GPIO_Init->Mode & RISING_EDGE) == RISING_EDGE)
 8003530:	683b      	ldr	r3, [r7, #0]
 8003532:	685b      	ldr	r3, [r3, #4]
 8003534:	f403 1380 	and.w	r3, r3, #1048576	@ 0x100000
 8003538:	2b00      	cmp	r3, #0
 800353a:	d006      	beq.n	800354a <HAL_GPIO_Init+0x226>
        {
          SET_BIT(EXTI->RTSR, iocurrent);
 800353c:	4b2d      	ldr	r3, [pc, #180]	@ (80035f4 <HAL_GPIO_Init+0x2d0>)
 800353e:	689a      	ldr	r2, [r3, #8]
 8003540:	492c      	ldr	r1, [pc, #176]	@ (80035f4 <HAL_GPIO_Init+0x2d0>)
 8003542:	69bb      	ldr	r3, [r7, #24]
 8003544:	4313      	orrs	r3, r2
 8003546:	608b      	str	r3, [r1, #8]
 8003548:	e006      	b.n	8003558 <HAL_GPIO_Init+0x234>
        }
        else
        {
          CLEAR_BIT(EXTI->RTSR, iocurrent);
 800354a:	4b2a      	ldr	r3, [pc, #168]	@ (80035f4 <HAL_GPIO_Init+0x2d0>)
 800354c:	689a      	ldr	r2, [r3, #8]
 800354e:	69bb      	ldr	r3, [r7, #24]
 8003550:	43db      	mvns	r3, r3
 8003552:	4928      	ldr	r1, [pc, #160]	@ (80035f4 <HAL_GPIO_Init+0x2d0>)
 8003554:	4013      	ands	r3, r2
 8003556:	608b      	str	r3, [r1, #8]
        }

        /* Enable or disable the falling trigger */
        if ((GPIO_Init->Mode & FALLING_EDGE) == FALLING_EDGE)
 8003558:	683b      	ldr	r3, [r7, #0]
 800355a:	685b      	ldr	r3, [r3, #4]
 800355c:	f403 1300 	and.w	r3, r3, #2097152	@ 0x200000
 8003560:	2b00      	cmp	r3, #0
 8003562:	d006      	beq.n	8003572 <HAL_GPIO_Init+0x24e>
        {
          SET_BIT(EXTI->FTSR, iocurrent);
 8003564:	4b23      	ldr	r3, [pc, #140]	@ (80035f4 <HAL_GPIO_Init+0x2d0>)
 8003566:	68da      	ldr	r2, [r3, #12]
 8003568:	4922      	ldr	r1, [pc, #136]	@ (80035f4 <HAL_GPIO_Init+0x2d0>)
 800356a:	69bb      	ldr	r3, [r7, #24]
 800356c:	4313      	orrs	r3, r2
 800356e:	60cb      	str	r3, [r1, #12]
 8003570:	e006      	b.n	8003580 <HAL_GPIO_Init+0x25c>
        }
        else
        {
          CLEAR_BIT(EXTI->FTSR, iocurrent);
 8003572:	4b20      	ldr	r3, [pc, #128]	@ (80035f4 <HAL_GPIO_Init+0x2d0>)
 8003574:	68da      	ldr	r2, [r3, #12]
 8003576:	69bb      	ldr	r3, [r7, #24]
 8003578:	43db      	mvns	r3, r3
 800357a:	491e      	ldr	r1, [pc, #120]	@ (80035f4 <HAL_GPIO_Init+0x2d0>)
 800357c:	4013      	ands	r3, r2
 800357e:	60cb      	str	r3, [r1, #12]
        }

        /* Configure the event mask */
        if ((GPIO_Init->Mode & GPIO_MODE_EVT) == GPIO_MODE_EVT)
 8003580:	683b      	ldr	r3, [r7, #0]
 8003582:	685b      	ldr	r3, [r3, #4]
 8003584:	f403 3300 	and.w	r3, r3, #131072	@ 0x20000
 8003588:	2b00      	cmp	r3, #0
 800358a:	d006      	beq.n	800359a <HAL_GPIO_Init+0x276>
        {
          SET_BIT(EXTI->EMR, iocurrent);
 800358c:	4b19      	ldr	r3, [pc, #100]	@ (80035f4 <HAL_GPIO_Init+0x2d0>)
 800358e:	685a      	ldr	r2, [r3, #4]
 8003590:	4918      	ldr	r1, [pc, #96]	@ (80035f4 <HAL_GPIO_Init+0x2d0>)
 8003592:	69bb      	ldr	r3, [r7, #24]
 8003594:	4313      	orrs	r3, r2
 8003596:	604b      	str	r3, [r1, #4]
 8003598:	e006      	b.n	80035a8 <HAL_GPIO_Init+0x284>
        }
        else
        {
          CLEAR_BIT(EXTI->EMR, iocurrent);
 800359a:	4b16      	ldr	r3, [pc, #88]	@ (80035f4 <HAL_GPIO_Init+0x2d0>)
 800359c:	685a      	ldr	r2, [r3, #4]
 800359e:	69bb      	ldr	r3, [r7, #24]
 80035a0:	43db      	mvns	r3, r3
 80035a2:	4914      	ldr	r1, [pc, #80]	@ (80035f4 <HAL_GPIO_Init+0x2d0>)
 80035a4:	4013      	ands	r3, r2
 80035a6:	604b      	str	r3, [r1, #4]
        }

        /* Configure the interrupt mask */
        if ((GPIO_Init->Mode & GPIO_MODE_IT) == GPIO_MODE_IT)
 80035a8:	683b      	ldr	r3, [r7, #0]
 80035aa:	685b      	ldr	r3, [r3, #4]
 80035ac:	f403 3380 	and.w	r3, r3, #65536	@ 0x10000
 80035b0:	2b00      	cmp	r3, #0
 80035b2:	d021      	beq.n	80035f8 <HAL_GPIO_Init+0x2d4>
        {
          SET_BIT(EXTI->IMR, iocurrent);
 80035b4:	4b0f      	ldr	r3, [pc, #60]	@ (80035f4 <HAL_GPIO_Init+0x2d0>)
 80035b6:	681a      	ldr	r2, [r3, #0]
 80035b8:	490e      	ldr	r1, [pc, #56]	@ (80035f4 <HAL_GPIO_Init+0x2d0>)
 80035ba:	69bb      	ldr	r3, [r7, #24]
 80035bc:	4313      	orrs	r3, r2
 80035be:	600b      	str	r3, [r1, #0]
 80035c0:	e021      	b.n	8003606 <HAL_GPIO_Init+0x2e2>
 80035c2:	bf00      	nop
 80035c4:	10320000 	.word	0x10320000
 80035c8:	10310000 	.word	0x10310000
 80035cc:	10220000 	.word	0x10220000
 80035d0:	10210000 	.word	0x10210000
 80035d4:	10120000 	.word	0x10120000
 80035d8:	10110000 	.word	0x10110000
 80035dc:	40021000 	.word	0x40021000
 80035e0:	40010000 	.word	0x40010000
 80035e4:	40010800 	.word	0x40010800
 80035e8:	40010c00 	.word	0x40010c00
 80035ec:	40011000 	.word	0x40011000
 80035f0:	40011400 	.word	0x40011400
 80035f4:	40010400 	.word	0x40010400
        }
        else
        {
          CLEAR_BIT(EXTI->IMR, iocurrent);
 80035f8:	4b0b      	ldr	r3, [pc, #44]	@ (8003628 <HAL_GPIO_Init+0x304>)
 80035fa:	681a      	ldr	r2, [r3, #0]
 80035fc:	69bb      	ldr	r3, [r7, #24]
 80035fe:	43db      	mvns	r3, r3
 8003600:	4909      	ldr	r1, [pc, #36]	@ (8003628 <HAL_GPIO_Init+0x304>)
 8003602:	4013      	ands	r3, r2
 8003604:	600b      	str	r3, [r1, #0]
        }
      }
    }

	position++;
 8003606:	6a7b      	ldr	r3, [r7, #36]	@ 0x24
 8003608:	3301      	adds	r3, #1
 800360a:	627b      	str	r3, [r7, #36]	@ 0x24
  while (((GPIO_Init->Pin) >> position) != 0x00u)
 800360c:	683b      	ldr	r3, [r7, #0]
 800360e:	681a      	ldr	r2, [r3, #0]
 8003610:	6a7b      	ldr	r3, [r7, #36]	@ 0x24
 8003612:	fa22 f303 	lsr.w	r3, r2, r3
 8003616:	2b00      	cmp	r3, #0
 8003618:	f47f ae8e 	bne.w	8003338 <HAL_GPIO_Init+0x14>
  }
}
 800361c:	bf00      	nop
 800361e:	bf00      	nop
 8003620:	372c      	adds	r7, #44	@ 0x2c
 8003622:	46bd      	mov	sp, r7
 8003624:	bc80      	pop	{r7}
 8003626:	4770      	bx	lr
 8003628:	40010400 	.word	0x40010400

0800362c <HAL_GPIO_WritePin>:
  *            @arg GPIO_PIN_RESET: to clear the port pin
  *            @arg GPIO_PIN_SET: to set the port pin
  * @retval None
  */
void HAL_GPIO_WritePin(GPIO_TypeDef *GPIOx, uint16_t GPIO_Pin, GPIO_PinState PinState)
{
 800362c:	b480      	push	{r7}
 800362e:	b083      	sub	sp, #12
 8003630:	af00      	add	r7, sp, #0
 8003632:	6078      	str	r0, [r7, #4]
 8003634:	460b      	mov	r3, r1
 8003636:	807b      	strh	r3, [r7, #2]
 8003638:	4613      	mov	r3, r2
 800363a:	707b      	strb	r3, [r7, #1]
  /* Check the parameters */
  assert_param(IS_GPIO_PIN(GPIO_Pin));
  assert_param(IS_GPIO_PIN_ACTION(PinState));

  if (PinState != GPIO_PIN_RESET)
 800363c:	787b      	ldrb	r3, [r7, #1]
 800363e:	2b00      	cmp	r3, #0
 8003640:	d003      	beq.n	800364a <HAL_GPIO_WritePin+0x1e>
  {
    GPIOx->BSRR = GPIO_Pin;
 8003642:	887a      	ldrh	r2, [r7, #2]
 8003644:	687b      	ldr	r3, [r7, #4]
 8003646:	611a      	str	r2, [r3, #16]
  }
  else
  {
    GPIOx->BSRR = (uint32_t)GPIO_Pin << 16u;
  }
}
 8003648:	e003      	b.n	8003652 <HAL_GPIO_WritePin+0x26>
    GPIOx->BSRR = (uint32_t)GPIO_Pin << 16u;
 800364a:	887b      	ldrh	r3, [r7, #2]
 800364c:	041a      	lsls	r2, r3, #16
 800364e:	687b      	ldr	r3, [r7, #4]
 8003650:	611a      	str	r2, [r3, #16]
}
 8003652:	bf00      	nop
 8003654:	370c      	adds	r7, #12
 8003656:	46bd      	mov	sp, r7
 8003658:	bc80      	pop	{r7}
 800365a:	4770      	bx	lr

0800365c <HAL_RCC_OscConfig>:
  *         supported by this macro. User should request a transition to HSE Off
  *         first and then HSE On or HSE Bypass.
  * @retval HAL status
  */
HAL_StatusTypeDef HAL_RCC_OscConfig(RCC_OscInitTypeDef  *RCC_OscInitStruct)
{
 800365c:	b580      	push	{r7, lr}
 800365e:	b086      	sub	sp, #24
 8003660:	af00      	add	r7, sp, #0
 8003662:	6078      	str	r0, [r7, #4]
  uint32_t tickstart;
  uint32_t pll_config;

  /* Check Null pointer */
  if (RCC_OscInitStruct == NULL)
 8003664:	687b      	ldr	r3, [r7, #4]
 8003666:	2b00      	cmp	r3, #0
 8003668:	d101      	bne.n	800366e <HAL_RCC_OscConfig+0x12>
  {
    return HAL_ERROR;
 800366a:	2301      	movs	r3, #1
 800366c:	e272      	b.n	8003b54 <HAL_RCC_OscConfig+0x4f8>

  /* Check the parameters */
  assert_param(IS_RCC_OSCILLATORTYPE(RCC_OscInitStruct->OscillatorType));

  /*------------------------------- HSE Configuration ------------------------*/
  if (((RCC_OscInitStruct->OscillatorType) & RCC_OSCILLATORTYPE_HSE) == RCC_OSCILLATORTYPE_HSE)
 800366e:	687b      	ldr	r3, [r7, #4]
 8003670:	681b      	ldr	r3, [r3, #0]
 8003672:	f003 0301 	and.w	r3, r3, #1
 8003676:	2b00      	cmp	r3, #0
 8003678:	f000 8087 	beq.w	800378a <HAL_RCC_OscConfig+0x12e>
  {
    /* Check the parameters */
    assert_param(IS_RCC_HSE(RCC_OscInitStruct->HSEState));

    /* When the HSE is used as system clock or clock source for PLL in these cases it is not allowed to be disabled */
    if ((__HAL_RCC_GET_SYSCLK_SOURCE() == RCC_SYSCLKSOURCE_STATUS_HSE)
 800367c:	4b92      	ldr	r3, [pc, #584]	@ (80038c8 <HAL_RCC_OscConfig+0x26c>)
 800367e:	685b      	ldr	r3, [r3, #4]
 8003680:	f003 030c 	and.w	r3, r3, #12
 8003684:	2b04      	cmp	r3, #4
 8003686:	d00c      	beq.n	80036a2 <HAL_RCC_OscConfig+0x46>
        || ((__HAL_RCC_GET_SYSCLK_SOURCE() == RCC_SYSCLKSOURCE_STATUS_PLLCLK) && (__HAL_RCC_GET_PLL_OSCSOURCE() == RCC_PLLSOURCE_HSE)))
 8003688:	4b8f      	ldr	r3, [pc, #572]	@ (80038c8 <HAL_RCC_OscConfig+0x26c>)
 800368a:	685b      	ldr	r3, [r3, #4]
 800368c:	f003 030c 	and.w	r3, r3, #12
 8003690:	2b08      	cmp	r3, #8
 8003692:	d112      	bne.n	80036ba <HAL_RCC_OscConfig+0x5e>
 8003694:	4b8c      	ldr	r3, [pc, #560]	@ (80038c8 <HAL_RCC_OscConfig+0x26c>)
 8003696:	685b      	ldr	r3, [r3, #4]
 8003698:	f403 3380 	and.w	r3, r3, #65536	@ 0x10000
 800369c:	f5b3 3f80 	cmp.w	r3, #65536	@ 0x10000
 80036a0:	d10b      	bne.n	80036ba <HAL_RCC_OscConfig+0x5e>
    {
      if ((__HAL_RCC_GET_FLAG(RCC_FLAG_HSERDY) != RESET) && (RCC_OscInitStruct->HSEState == RCC_HSE_OFF))
 80036a2:	4b89      	ldr	r3, [pc, #548]	@ (80038c8 <HAL_RCC_OscConfig+0x26c>)
 80036a4:	681b      	ldr	r3, [r3, #0]
 80036a6:	f403 3300 	and.w	r3, r3, #131072	@ 0x20000
 80036aa:	2b00      	cmp	r3, #0
 80036ac:	d06c      	beq.n	8003788 <HAL_RCC_OscConfig+0x12c>
 80036ae:	687b      	ldr	r3, [r7, #4]
 80036b0:	685b      	ldr	r3, [r3, #4]
 80036b2:	2b00      	cmp	r3, #0
 80036b4:	d168      	bne.n	8003788 <HAL_RCC_OscConfig+0x12c>
      {
        return HAL_ERROR;
 80036b6:	2301      	movs	r3, #1
 80036b8:	e24c      	b.n	8003b54 <HAL_RCC_OscConfig+0x4f8>
      }
    }
    else
    {
      /* Set the new HSE configuration ---------------------------------------*/
      __HAL_RCC_HSE_CONFIG(RCC_OscInitStruct->HSEState);
 80036ba:	687b      	ldr	r3, [r7, #4]
 80036bc:	685b      	ldr	r3, [r3, #4]
 80036be:	f5b3 3f80 	cmp.w	r3, #65536	@ 0x10000
 80036c2:	d106      	bne.n	80036d2 <HAL_RCC_OscConfig+0x76>
 80036c4:	4b80      	ldr	r3, [pc, #512]	@ (80038c8 <HAL_RCC_OscConfig+0x26c>)
 80036c6:	681b      	ldr	r3, [r3, #0]
 80036c8:	4a7f      	ldr	r2, [pc, #508]	@ (80038c8 <HAL_RCC_OscConfig+0x26c>)
 80036ca:	f443 3380 	orr.w	r3, r3, #65536	@ 0x10000
 80036ce:	6013      	str	r3, [r2, #0]
 80036d0:	e02e      	b.n	8003730 <HAL_RCC_OscConfig+0xd4>
 80036d2:	687b      	ldr	r3, [r7, #4]
 80036d4:	685b      	ldr	r3, [r3, #4]
 80036d6:	2b00      	cmp	r3, #0
 80036d8:	d10c      	bne.n	80036f4 <HAL_RCC_OscConfig+0x98>
 80036da:	4b7b      	ldr	r3, [pc, #492]	@ (80038c8 <HAL_RCC_OscConfig+0x26c>)
 80036dc:	681b      	ldr	r3, [r3, #0]
 80036de:	4a7a      	ldr	r2, [pc, #488]	@ (80038c8 <HAL_RCC_OscConfig+0x26c>)
 80036e0:	f423 3380 	bic.w	r3, r3, #65536	@ 0x10000
 80036e4:	6013      	str	r3, [r2, #0]
 80036e6:	4b78      	ldr	r3, [pc, #480]	@ (80038c8 <HAL_RCC_OscConfig+0x26c>)
 80036e8:	681b      	ldr	r3, [r3, #0]
 80036ea:	4a77      	ldr	r2, [pc, #476]	@ (80038c8 <HAL_RCC_OscConfig+0x26c>)
 80036ec:	f423 2380 	bic.w	r3, r3, #262144	@ 0x40000
 80036f0:	6013      	str	r3, [r2, #0]
 80036f2:	e01d      	b.n	8003730 <HAL_RCC_OscConfig+0xd4>
 80036f4:	687b      	ldr	r3, [r7, #4]
 80036f6:	685b      	ldr	r3, [r3, #4]
 80036f8:	f5b3 2fa0 	cmp.w	r3, #327680	@ 0x50000
 80036fc:	d10c      	bne.n	8003718 <HAL_RCC_OscConfig+0xbc>
 80036fe:	4b72      	ldr	r3, [pc, #456]	@ (80038c8 <HAL_RCC_OscConfig+0x26c>)
 8003700:	681b      	ldr	r3, [r3, #0]
 8003702:	4a71      	ldr	r2, [pc, #452]	@ (80038c8 <HAL_RCC_OscConfig+0x26c>)
 8003704:	f443 2380 	orr.w	r3, r3, #262144	@ 0x40000
 8003708:	6013      	str	r3, [r2, #0]
 800370a:	4b6f      	ldr	r3, [pc, #444]	@ (80038c8 <HAL_RCC_OscConfig+0x26c>)
 800370c:	681b      	ldr	r3, [r3, #0]
 800370e:	4a6e      	ldr	r2, [pc, #440]	@ (80038c8 <HAL_RCC_OscConfig+0x26c>)
 8003710:	f443 3380 	orr.w	r3, r3, #65536	@ 0x10000
 8003714:	6013      	str	r3, [r2, #0]
 8003716:	e00b      	b.n	8003730 <HAL_RCC_OscConfig+0xd4>
 8003718:	4b6b      	ldr	r3, [pc, #428]	@ (80038c8 <HAL_RCC_OscConfig+0x26c>)
 800371a:	681b      	ldr	r3, [r3, #0]
 800371c:	4a6a      	ldr	r2, [pc, #424]	@ (80038c8 <HAL_RCC_OscConfig+0x26c>)
 800371e:	f423 3380 	bic.w	r3, r3, #65536	@ 0x10000
 8003722:	6013      	str	r3, [r2, #0]
 8003724:	4b68      	ldr	r3, [pc, #416]	@ (80038c8 <HAL_RCC_OscConfig+0x26c>)
 8003726:	681b      	ldr	r3, [r3, #0]
 8003728:	4a67      	ldr	r2, [pc, #412]	@ (80038c8 <HAL_RCC_OscConfig+0x26c>)
 800372a:	f423 2380 	bic.w	r3, r3, #262144	@ 0x40000
 800372e:	6013      	str	r3, [r2, #0]


      /* Check the HSE State */
      if (RCC_OscInitStruct->HSEState != RCC_HSE_OFF)
 8003730:	687b      	ldr	r3, [r7, #4]
 8003732:	685b      	ldr	r3, [r3, #4]
 8003734:	2b00      	cmp	r3, #0
 8003736:	d013      	beq.n	8003760 <HAL_RCC_OscConfig+0x104>
      {
        /* Get Start Tick */
        tickstart = HAL_GetTick();
 8003738:	f7fe fd04 	bl	8002144 <HAL_GetTick>
 800373c:	6138      	str	r0, [r7, #16]

        /* Wait till HSE is ready */
        while (__HAL_RCC_GET_FLAG(RCC_FLAG_HSERDY) == RESET)
 800373e:	e008      	b.n	8003752 <HAL_RCC_OscConfig+0xf6>
        {
          if ((HAL_GetTick() - tickstart) > HSE_TIMEOUT_VALUE)
 8003740:	f7fe fd00 	bl	8002144 <HAL_GetTick>
 8003744:	4602      	mov	r2, r0
 8003746:	693b      	ldr	r3, [r7, #16]
 8003748:	1ad3      	subs	r3, r2, r3
 800374a:	2b64      	cmp	r3, #100	@ 0x64
 800374c:	d901      	bls.n	8003752 <HAL_RCC_OscConfig+0xf6>
          {
            return HAL_TIMEOUT;
 800374e:	2303      	movs	r3, #3
 8003750:	e200      	b.n	8003b54 <HAL_RCC_OscConfig+0x4f8>
        while (__HAL_RCC_GET_FLAG(RCC_FLAG_HSERDY) == RESET)
 8003752:	4b5d      	ldr	r3, [pc, #372]	@ (80038c8 <HAL_RCC_OscConfig+0x26c>)
 8003754:	681b      	ldr	r3, [r3, #0]
 8003756:	f403 3300 	and.w	r3, r3, #131072	@ 0x20000
 800375a:	2b00      	cmp	r3, #0
 800375c:	d0f0      	beq.n	8003740 <HAL_RCC_OscConfig+0xe4>
 800375e:	e014      	b.n	800378a <HAL_RCC_OscConfig+0x12e>
        }
      }
      else
      {
        /* Get Start Tick */
        tickstart = HAL_GetTick();
 8003760:	f7fe fcf0 	bl	8002144 <HAL_GetTick>
 8003764:	6138      	str	r0, [r7, #16]

        /* Wait till HSE is disabled */
        while (__HAL_RCC_GET_FLAG(RCC_FLAG_HSERDY) != RESET)
 8003766:	e008      	b.n	800377a <HAL_RCC_OscConfig+0x11e>
        {
          if ((HAL_GetTick() - tickstart) > HSE_TIMEOUT_VALUE)
 8003768:	f7fe fcec 	bl	8002144 <HAL_GetTick>
 800376c:	4602      	mov	r2, r0
 800376e:	693b      	ldr	r3, [r7, #16]
 8003770:	1ad3      	subs	r3, r2, r3
 8003772:	2b64      	cmp	r3, #100	@ 0x64
 8003774:	d901      	bls.n	800377a <HAL_RCC_OscConfig+0x11e>
          {
            return HAL_TIMEOUT;
 8003776:	2303      	movs	r3, #3
 8003778:	e1ec      	b.n	8003b54 <HAL_RCC_OscConfig+0x4f8>
        while (__HAL_RCC_GET_FLAG(RCC_FLAG_HSERDY) != RESET)
 800377a:	4b53      	ldr	r3, [pc, #332]	@ (80038c8 <HAL_RCC_OscConfig+0x26c>)
 800377c:	681b      	ldr	r3, [r3, #0]
 800377e:	f403 3300 	and.w	r3, r3, #131072	@ 0x20000
 8003782:	2b00      	cmp	r3, #0
 8003784:	d1f0      	bne.n	8003768 <HAL_RCC_OscConfig+0x10c>
 8003786:	e000      	b.n	800378a <HAL_RCC_OscConfig+0x12e>
      if ((__HAL_RCC_GET_FLAG(RCC_FLAG_HSERDY) != RESET) && (RCC_OscInitStruct->HSEState == RCC_HSE_OFF))
 8003788:	bf00      	nop
        }
      }
    }
  }
  /*----------------------------- HSI Configuration --------------------------*/
  if (((RCC_OscInitStruct->OscillatorType) & RCC_OSCILLATORTYPE_HSI) == RCC_OSCILLATORTYPE_HSI)
 800378a:	687b      	ldr	r3, [r7, #4]
 800378c:	681b      	ldr	r3, [r3, #0]
 800378e:	f003 0302 	and.w	r3, r3, #2
 8003792:	2b00      	cmp	r3, #0
 8003794:	d063      	beq.n	800385e <HAL_RCC_OscConfig+0x202>
    /* Check the parameters */
    assert_param(IS_RCC_HSI(RCC_OscInitStruct->HSIState));
    assert_param(IS_RCC_CALIBRATION_VALUE(RCC_OscInitStruct->HSICalibrationValue));

    /* Check if HSI is used as system clock or as PLL source when PLL is selected as system clock */
    if ((__HAL_RCC_GET_SYSCLK_SOURCE() == RCC_SYSCLKSOURCE_STATUS_HSI)
 8003796:	4b4c      	ldr	r3, [pc, #304]	@ (80038c8 <HAL_RCC_OscConfig+0x26c>)
 8003798:	685b      	ldr	r3, [r3, #4]
 800379a:	f003 030c 	and.w	r3, r3, #12
 800379e:	2b00      	cmp	r3, #0
 80037a0:	d00b      	beq.n	80037ba <HAL_RCC_OscConfig+0x15e>
        || ((__HAL_RCC_GET_SYSCLK_SOURCE() == RCC_SYSCLKSOURCE_STATUS_PLLCLK) && (__HAL_RCC_GET_PLL_OSCSOURCE() == RCC_PLLSOURCE_HSI_DIV2)))
 80037a2:	4b49      	ldr	r3, [pc, #292]	@ (80038c8 <HAL_RCC_OscConfig+0x26c>)
 80037a4:	685b      	ldr	r3, [r3, #4]
 80037a6:	f003 030c 	and.w	r3, r3, #12
 80037aa:	2b08      	cmp	r3, #8
 80037ac:	d11c      	bne.n	80037e8 <HAL_RCC_OscConfig+0x18c>
 80037ae:	4b46      	ldr	r3, [pc, #280]	@ (80038c8 <HAL_RCC_OscConfig+0x26c>)
 80037b0:	685b      	ldr	r3, [r3, #4]
 80037b2:	f403 3380 	and.w	r3, r3, #65536	@ 0x10000
 80037b6:	2b00      	cmp	r3, #0
 80037b8:	d116      	bne.n	80037e8 <HAL_RCC_OscConfig+0x18c>
    {
      /* When HSI is used as system clock it will not disabled */
      if ((__HAL_RCC_GET_FLAG(RCC_FLAG_HSIRDY) != RESET) && (RCC_OscInitStruct->HSIState != RCC_HSI_ON))
 80037ba:	4b43      	ldr	r3, [pc, #268]	@ (80038c8 <HAL_RCC_OscConfig+0x26c>)
 80037bc:	681b      	ldr	r3, [r3, #0]
 80037be:	f003 0302 	and.w	r3, r3, #2
 80037c2:	2b00      	cmp	r3, #0
 80037c4:	d005      	beq.n	80037d2 <HAL_RCC_OscConfig+0x176>
 80037c6:	687b      	ldr	r3, [r7, #4]
 80037c8:	691b      	ldr	r3, [r3, #16]
 80037ca:	2b01      	cmp	r3, #1
 80037cc:	d001      	beq.n	80037d2 <HAL_RCC_OscConfig+0x176>
      {
        return HAL_ERROR;
 80037ce:	2301      	movs	r3, #1
 80037d0:	e1c0      	b.n	8003b54 <HAL_RCC_OscConfig+0x4f8>
      }
      /* Otherwise, just the calibration is allowed */
      else
      {
        /* Adjusts the Internal High Speed oscillator (HSI) calibration value.*/
        __HAL_RCC_HSI_CALIBRATIONVALUE_ADJUST(RCC_OscInitStruct->HSICalibrationValue);
 80037d2:	4b3d      	ldr	r3, [pc, #244]	@ (80038c8 <HAL_RCC_OscConfig+0x26c>)
 80037d4:	681b      	ldr	r3, [r3, #0]
 80037d6:	f023 02f8 	bic.w	r2, r3, #248	@ 0xf8
 80037da:	687b      	ldr	r3, [r7, #4]
 80037dc:	695b      	ldr	r3, [r3, #20]
 80037de:	00db      	lsls	r3, r3, #3
 80037e0:	4939      	ldr	r1, [pc, #228]	@ (80038c8 <HAL_RCC_OscConfig+0x26c>)
 80037e2:	4313      	orrs	r3, r2
 80037e4:	600b      	str	r3, [r1, #0]
      if ((__HAL_RCC_GET_FLAG(RCC_FLAG_HSIRDY) != RESET) && (RCC_OscInitStruct->HSIState != RCC_HSI_ON))
 80037e6:	e03a      	b.n	800385e <HAL_RCC_OscConfig+0x202>
      }
    }
    else
    {
      /* Check the HSI State */
      if (RCC_OscInitStruct->HSIState != RCC_HSI_OFF)
 80037e8:	687b      	ldr	r3, [r7, #4]
 80037ea:	691b      	ldr	r3, [r3, #16]
 80037ec:	2b00      	cmp	r3, #0
 80037ee:	d020      	beq.n	8003832 <HAL_RCC_OscConfig+0x1d6>
      {
        /* Enable the Internal High Speed oscillator (HSI). */
        __HAL_RCC_HSI_ENABLE();
 80037f0:	4b36      	ldr	r3, [pc, #216]	@ (80038cc <HAL_RCC_OscConfig+0x270>)
 80037f2:	2201      	movs	r2, #1
 80037f4:	601a      	str	r2, [r3, #0]

        /* Get Start Tick */
        tickstart = HAL_GetTick();
 80037f6:	f7fe fca5 	bl	8002144 <HAL_GetTick>
 80037fa:	6138      	str	r0, [r7, #16]

        /* Wait till HSI is ready */
        while (__HAL_RCC_GET_FLAG(RCC_FLAG_HSIRDY) == RESET)
 80037fc:	e008      	b.n	8003810 <HAL_RCC_OscConfig+0x1b4>
        {
          if ((HAL_GetTick() - tickstart) > HSI_TIMEOUT_VALUE)
 80037fe:	f7fe fca1 	bl	8002144 <HAL_GetTick>
 8003802:	4602      	mov	r2, r0
 8003804:	693b      	ldr	r3, [r7, #16]
 8003806:	1ad3      	subs	r3, r2, r3
 8003808:	2b02      	cmp	r3, #2
 800380a:	d901      	bls.n	8003810 <HAL_RCC_OscConfig+0x1b4>
          {
            return HAL_TIMEOUT;
 800380c:	2303      	movs	r3, #3
 800380e:	e1a1      	b.n	8003b54 <HAL_RCC_OscConfig+0x4f8>
        while (__HAL_RCC_GET_FLAG(RCC_FLAG_HSIRDY) == RESET)
 8003810:	4b2d      	ldr	r3, [pc, #180]	@ (80038c8 <HAL_RCC_OscConfig+0x26c>)
 8003812:	681b      	ldr	r3, [r3, #0]
 8003814:	f003 0302 	and.w	r3, r3, #2
 8003818:	2b00      	cmp	r3, #0
 800381a:	d0f0      	beq.n	80037fe <HAL_RCC_OscConfig+0x1a2>
          }
        }

        /* Adjusts the Internal High Speed oscillator (HSI) calibration value.*/
        __HAL_RCC_HSI_CALIBRATIONVALUE_ADJUST(RCC_OscInitStruct->HSICalibrationValue);
 800381c:	4b2a      	ldr	r3, [pc, #168]	@ (80038c8 <HAL_RCC_OscConfig+0x26c>)
 800381e:	681b      	ldr	r3, [r3, #0]
 8003820:	f023 02f8 	bic.w	r2, r3, #248	@ 0xf8
 8003824:	687b      	ldr	r3, [r7, #4]
 8003826:	695b      	ldr	r3, [r3, #20]
 8003828:	00db      	lsls	r3, r3, #3
 800382a:	4927      	ldr	r1, [pc, #156]	@ (80038c8 <HAL_RCC_OscConfig+0x26c>)
 800382c:	4313      	orrs	r3, r2
 800382e:	600b      	str	r3, [r1, #0]
 8003830:	e015      	b.n	800385e <HAL_RCC_OscConfig+0x202>
      }
      else
      {
        /* Disable the Internal High Speed oscillator (HSI). */
        __HAL_RCC_HSI_DISABLE();
 8003832:	4b26      	ldr	r3, [pc, #152]	@ (80038cc <HAL_RCC_OscConfig+0x270>)
 8003834:	2200      	movs	r2, #0
 8003836:	601a      	str	r2, [r3, #0]

        /* Get Start Tick */
        tickstart = HAL_GetTick();
 8003838:	f7fe fc84 	bl	8002144 <HAL_GetTick>
 800383c:	6138      	str	r0, [r7, #16]

        /* Wait till HSI is disabled */
        while (__HAL_RCC_GET_FLAG(RCC_FLAG_HSIRDY) != RESET)
 800383e:	e008      	b.n	8003852 <HAL_RCC_OscConfig+0x1f6>
        {
          if ((HAL_GetTick() - tickstart) > HSI_TIMEOUT_VALUE)
 8003840:	f7fe fc80 	bl	8002144 <HAL_GetTick>
 8003844:	4602      	mov	r2, r0
 8003846:	693b      	ldr	r3, [r7, #16]
 8003848:	1ad3      	subs	r3, r2, r3
 800384a:	2b02      	cmp	r3, #2
 800384c:	d901      	bls.n	8003852 <HAL_RCC_OscConfig+0x1f6>
          {
            return HAL_TIMEOUT;
 800384e:	2303      	movs	r3, #3
 8003850:	e180      	b.n	8003b54 <HAL_RCC_OscConfig+0x4f8>
        while (__HAL_RCC_GET_FLAG(RCC_FLAG_HSIRDY) != RESET)
 8003852:	4b1d      	ldr	r3, [pc, #116]	@ (80038c8 <HAL_RCC_OscConfig+0x26c>)
 8003854:	681b      	ldr	r3, [r3, #0]
 8003856:	f003 0302 	and.w	r3, r3, #2
 800385a:	2b00      	cmp	r3, #0
 800385c:	d1f0      	bne.n	8003840 <HAL_RCC_OscConfig+0x1e4>
        }
      }
    }
  }
  /*------------------------------ LSI Configuration -------------------------*/
  if (((RCC_OscInitStruct->OscillatorType) & RCC_OSCILLATORTYPE_LSI) == RCC_OSCILLATORTYPE_LSI)
 800385e:	687b      	ldr	r3, [r7, #4]
 8003860:	681b      	ldr	r3, [r3, #0]
 8003862:	f003 0308 	and.w	r3, r3, #8
 8003866:	2b00      	cmp	r3, #0
 8003868:	d03a      	beq.n	80038e0 <HAL_RCC_OscConfig+0x284>
  {
    /* Check the parameters */
    assert_param(IS_RCC_LSI(RCC_OscInitStruct->LSIState));

    /* Check the LSI State */
    if (RCC_OscInitStruct->LSIState != RCC_LSI_OFF)
 800386a:	687b      	ldr	r3, [r7, #4]
 800386c:	699b      	ldr	r3, [r3, #24]
 800386e:	2b00      	cmp	r3, #0
 8003870:	d019      	beq.n	80038a6 <HAL_RCC_OscConfig+0x24a>
    {
      /* Enable the Internal Low Speed oscillator (LSI). */
      __HAL_RCC_LSI_ENABLE();
 8003872:	4b17      	ldr	r3, [pc, #92]	@ (80038d0 <HAL_RCC_OscConfig+0x274>)
 8003874:	2201      	movs	r2, #1
 8003876:	601a      	str	r2, [r3, #0]

      /* Get Start Tick */
      tickstart = HAL_GetTick();
 8003878:	f7fe fc64 	bl	8002144 <HAL_GetTick>
 800387c:	6138      	str	r0, [r7, #16]

      /* Wait till LSI is ready */
      while (__HAL_RCC_GET_FLAG(RCC_FLAG_LSIRDY) == RESET)
 800387e:	e008      	b.n	8003892 <HAL_RCC_OscConfig+0x236>
      {
        if ((HAL_GetTick() - tickstart) > LSI_TIMEOUT_VALUE)
 8003880:	f7fe fc60 	bl	8002144 <HAL_GetTick>
 8003884:	4602      	mov	r2, r0
 8003886:	693b      	ldr	r3, [r7, #16]
 8003888:	1ad3      	subs	r3, r2, r3
 800388a:	2b02      	cmp	r3, #2
 800388c:	d901      	bls.n	8003892 <HAL_RCC_OscConfig+0x236>
        {
          return HAL_TIMEOUT;
 800388e:	2303      	movs	r3, #3
 8003890:	e160      	b.n	8003b54 <HAL_RCC_OscConfig+0x4f8>
      while (__HAL_RCC_GET_FLAG(RCC_FLAG_LSIRDY) == RESET)
 8003892:	4b0d      	ldr	r3, [pc, #52]	@ (80038c8 <HAL_RCC_OscConfig+0x26c>)
 8003894:	6a5b      	ldr	r3, [r3, #36]	@ 0x24
 8003896:	f003 0302 	and.w	r3, r3, #2
 800389a:	2b00      	cmp	r3, #0
 800389c:	d0f0      	beq.n	8003880 <HAL_RCC_OscConfig+0x224>
        }
      }
      /*  To have a fully stabilized clock in the specified range, a software delay of 1ms
          should be added.*/
      RCC_Delay(1);
 800389e:	2001      	movs	r0, #1
 80038a0:	f000 faee 	bl	8003e80 <RCC_Delay>
 80038a4:	e01c      	b.n	80038e0 <HAL_RCC_OscConfig+0x284>
    }
    else
    {
      /* Disable the Internal Low Speed oscillator (LSI). */
      __HAL_RCC_LSI_DISABLE();
 80038a6:	4b0a      	ldr	r3, [pc, #40]	@ (80038d0 <HAL_RCC_OscConfig+0x274>)
 80038a8:	2200      	movs	r2, #0
 80038aa:	601a      	str	r2, [r3, #0]

      /* Get Start Tick */
      tickstart = HAL_GetTick();
 80038ac:	f7fe fc4a 	bl	8002144 <HAL_GetTick>
 80038b0:	6138      	str	r0, [r7, #16]

      /* Wait till LSI is disabled */
      while (__HAL_RCC_GET_FLAG(RCC_FLAG_LSIRDY) != RESET)
 80038b2:	e00f      	b.n	80038d4 <HAL_RCC_OscConfig+0x278>
      {
        if ((HAL_GetTick() - tickstart) > LSI_TIMEOUT_VALUE)
 80038b4:	f7fe fc46 	bl	8002144 <HAL_GetTick>
 80038b8:	4602      	mov	r2, r0
 80038ba:	693b      	ldr	r3, [r7, #16]
 80038bc:	1ad3      	subs	r3, r2, r3
 80038be:	2b02      	cmp	r3, #2
 80038c0:	d908      	bls.n	80038d4 <HAL_RCC_OscConfig+0x278>
        {
          return HAL_TIMEOUT;
 80038c2:	2303      	movs	r3, #3
 80038c4:	e146      	b.n	8003b54 <HAL_RCC_OscConfig+0x4f8>
 80038c6:	bf00      	nop
 80038c8:	40021000 	.word	0x40021000
 80038cc:	42420000 	.word	0x42420000
 80038d0:	42420480 	.word	0x42420480
      while (__HAL_RCC_GET_FLAG(RCC_FLAG_LSIRDY) != RESET)
 80038d4:	4b92      	ldr	r3, [pc, #584]	@ (8003b20 <HAL_RCC_OscConfig+0x4c4>)
 80038d6:	6a5b      	ldr	r3, [r3, #36]	@ 0x24
 80038d8:	f003 0302 	and.w	r3, r3, #2
 80038dc:	2b00      	cmp	r3, #0
 80038de:	d1e9      	bne.n	80038b4 <HAL_RCC_OscConfig+0x258>
        }
      }
    }
  }
  /*------------------------------ LSE Configuration -------------------------*/
  if (((RCC_OscInitStruct->OscillatorType) & RCC_OSCILLATORTYPE_LSE) == RCC_OSCILLATORTYPE_LSE)
 80038e0:	687b      	ldr	r3, [r7, #4]
 80038e2:	681b      	ldr	r3, [r3, #0]
 80038e4:	f003 0304 	and.w	r3, r3, #4
 80038e8:	2b00      	cmp	r3, #0
 80038ea:	f000 80a6 	beq.w	8003a3a <HAL_RCC_OscConfig+0x3de>
  {
    FlagStatus       pwrclkchanged = RESET;
 80038ee:	2300      	movs	r3, #0
 80038f0:	75fb      	strb	r3, [r7, #23]
    /* Check the parameters */
    assert_param(IS_RCC_LSE(RCC_OscInitStruct->LSEState));

    /* Update LSE configuration in Backup Domain control register    */
    /* Requires to enable write access to Backup Domain of necessary */
    if (__HAL_RCC_PWR_IS_CLK_DISABLED())
 80038f2:	4b8b      	ldr	r3, [pc, #556]	@ (8003b20 <HAL_RCC_OscConfig+0x4c4>)
 80038f4:	69db      	ldr	r3, [r3, #28]
 80038f6:	f003 5380 	and.w	r3, r3, #268435456	@ 0x10000000
 80038fa:	2b00      	cmp	r3, #0
 80038fc:	d10d      	bne.n	800391a <HAL_RCC_OscConfig+0x2be>
    {
      __HAL_RCC_PWR_CLK_ENABLE();
 80038fe:	4b88      	ldr	r3, [pc, #544]	@ (8003b20 <HAL_RCC_OscConfig+0x4c4>)
 8003900:	69db      	ldr	r3, [r3, #28]
 8003902:	4a87      	ldr	r2, [pc, #540]	@ (8003b20 <HAL_RCC_OscConfig+0x4c4>)
 8003904:	f043 5380 	orr.w	r3, r3, #268435456	@ 0x10000000
 8003908:	61d3      	str	r3, [r2, #28]
 800390a:	4b85      	ldr	r3, [pc, #532]	@ (8003b20 <HAL_RCC_OscConfig+0x4c4>)
 800390c:	69db      	ldr	r3, [r3, #28]
 800390e:	f003 5380 	and.w	r3, r3, #268435456	@ 0x10000000
 8003912:	60bb      	str	r3, [r7, #8]
 8003914:	68bb      	ldr	r3, [r7, #8]
      pwrclkchanged = SET;
 8003916:	2301      	movs	r3, #1
 8003918:	75fb      	strb	r3, [r7, #23]
    }

    if (HAL_IS_BIT_CLR(PWR->CR, PWR_CR_DBP))
 800391a:	4b82      	ldr	r3, [pc, #520]	@ (8003b24 <HAL_RCC_OscConfig+0x4c8>)
 800391c:	681b      	ldr	r3, [r3, #0]
 800391e:	f403 7380 	and.w	r3, r3, #256	@ 0x100
 8003922:	2b00      	cmp	r3, #0
 8003924:	d118      	bne.n	8003958 <HAL_RCC_OscConfig+0x2fc>
    {
      /* Enable write access to Backup domain */
      SET_BIT(PWR->CR, PWR_CR_DBP);
 8003926:	4b7f      	ldr	r3, [pc, #508]	@ (8003b24 <HAL_RCC_OscConfig+0x4c8>)
 8003928:	681b      	ldr	r3, [r3, #0]
 800392a:	4a7e      	ldr	r2, [pc, #504]	@ (8003b24 <HAL_RCC_OscConfig+0x4c8>)
 800392c:	f443 7380 	orr.w	r3, r3, #256	@ 0x100
 8003930:	6013      	str	r3, [r2, #0]

      /* Wait for Backup domain Write protection disable */
      tickstart = HAL_GetTick();
 8003932:	f7fe fc07 	bl	8002144 <HAL_GetTick>
 8003936:	6138      	str	r0, [r7, #16]

      while (HAL_IS_BIT_CLR(PWR->CR, PWR_CR_DBP))
 8003938:	e008      	b.n	800394c <HAL_RCC_OscConfig+0x2f0>
      {
        if ((HAL_GetTick() - tickstart) > RCC_DBP_TIMEOUT_VALUE)
 800393a:	f7fe fc03 	bl	8002144 <HAL_GetTick>
 800393e:	4602      	mov	r2, r0
 8003940:	693b      	ldr	r3, [r7, #16]
 8003942:	1ad3      	subs	r3, r2, r3
 8003944:	2b64      	cmp	r3, #100	@ 0x64
 8003946:	d901      	bls.n	800394c <HAL_RCC_OscConfig+0x2f0>
        {
          return HAL_TIMEOUT;
 8003948:	2303      	movs	r3, #3
 800394a:	e103      	b.n	8003b54 <HAL_RCC_OscConfig+0x4f8>
      while (HAL_IS_BIT_CLR(PWR->CR, PWR_CR_DBP))
 800394c:	4b75      	ldr	r3, [pc, #468]	@ (8003b24 <HAL_RCC_OscConfig+0x4c8>)
 800394e:	681b      	ldr	r3, [r3, #0]
 8003950:	f403 7380 	and.w	r3, r3, #256	@ 0x100
 8003954:	2b00      	cmp	r3, #0
 8003956:	d0f0      	beq.n	800393a <HAL_RCC_OscConfig+0x2de>
        }
      }
    }

    /* Set the new LSE configuration -----------------------------------------*/
    __HAL_RCC_LSE_CONFIG(RCC_OscInitStruct->LSEState);
 8003958:	687b      	ldr	r3, [r7, #4]
 800395a:	68db      	ldr	r3, [r3, #12]
 800395c:	2b01      	cmp	r3, #1
 800395e:	d106      	bne.n	800396e <HAL_RCC_OscConfig+0x312>
 8003960:	4b6f      	ldr	r3, [pc, #444]	@ (8003b20 <HAL_RCC_OscConfig+0x4c4>)
 8003962:	6a1b      	ldr	r3, [r3, #32]
 8003964:	4a6e      	ldr	r2, [pc, #440]	@ (8003b20 <HAL_RCC_OscConfig+0x4c4>)
 8003966:	f043 0301 	orr.w	r3, r3, #1
 800396a:	6213      	str	r3, [r2, #32]
 800396c:	e02d      	b.n	80039ca <HAL_RCC_OscConfig+0x36e>
 800396e:	687b      	ldr	r3, [r7, #4]
 8003970:	68db      	ldr	r3, [r3, #12]
 8003972:	2b00      	cmp	r3, #0
 8003974:	d10c      	bne.n	8003990 <HAL_RCC_OscConfig+0x334>
 8003976:	4b6a      	ldr	r3, [pc, #424]	@ (8003b20 <HAL_RCC_OscConfig+0x4c4>)
 8003978:	6a1b      	ldr	r3, [r3, #32]
 800397a:	4a69      	ldr	r2, [pc, #420]	@ (8003b20 <HAL_RCC_OscConfig+0x4c4>)
 800397c:	f023 0301 	bic.w	r3, r3, #1
 8003980:	6213      	str	r3, [r2, #32]
 8003982:	4b67      	ldr	r3, [pc, #412]	@ (8003b20 <HAL_RCC_OscConfig+0x4c4>)
 8003984:	6a1b      	ldr	r3, [r3, #32]
 8003986:	4a66      	ldr	r2, [pc, #408]	@ (8003b20 <HAL_RCC_OscConfig+0x4c4>)
 8003988:	f023 0304 	bic.w	r3, r3, #4
 800398c:	6213      	str	r3, [r2, #32]
 800398e:	e01c      	b.n	80039ca <HAL_RCC_OscConfig+0x36e>
 8003990:	687b      	ldr	r3, [r7, #4]
 8003992:	68db      	ldr	r3, [r3, #12]
 8003994:	2b05      	cmp	r3, #5
 8003996:	d10c      	bne.n	80039b2 <HAL_RCC_OscConfig+0x356>
 8003998:	4b61      	ldr	r3, [pc, #388]	@ (8003b20 <HAL_RCC_OscConfig+0x4c4>)
 800399a:	6a1b      	ldr	r3, [r3, #32]
 800399c:	4a60      	ldr	r2, [pc, #384]	@ (8003b20 <HAL_RCC_OscConfig+0x4c4>)
 800399e:	f043 0304 	orr.w	r3, r3, #4
 80039a2:	6213      	str	r3, [r2, #32]
 80039a4:	4b5e      	ldr	r3, [pc, #376]	@ (8003b20 <HAL_RCC_OscConfig+0x4c4>)
 80039a6:	6a1b      	ldr	r3, [r3, #32]
 80039a8:	4a5d      	ldr	r2, [pc, #372]	@ (8003b20 <HAL_RCC_OscConfig+0x4c4>)
 80039aa:	f043 0301 	orr.w	r3, r3, #1
 80039ae:	6213      	str	r3, [r2, #32]
 80039b0:	e00b      	b.n	80039ca <HAL_RCC_OscConfig+0x36e>
 80039b2:	4b5b      	ldr	r3, [pc, #364]	@ (8003b20 <HAL_RCC_OscConfig+0x4c4>)
 80039b4:	6a1b      	ldr	r3, [r3, #32]
 80039b6:	4a5a      	ldr	r2, [pc, #360]	@ (8003b20 <HAL_RCC_OscConfig+0x4c4>)
 80039b8:	f023 0301 	bic.w	r3, r3, #1
 80039bc:	6213      	str	r3, [r2, #32]
 80039be:	4b58      	ldr	r3, [pc, #352]	@ (8003b20 <HAL_RCC_OscConfig+0x4c4>)
 80039c0:	6a1b      	ldr	r3, [r3, #32]
 80039c2:	4a57      	ldr	r2, [pc, #348]	@ (8003b20 <HAL_RCC_OscConfig+0x4c4>)
 80039c4:	f023 0304 	bic.w	r3, r3, #4
 80039c8:	6213      	str	r3, [r2, #32]
    /* Check the LSE State */
    if (RCC_OscInitStruct->LSEState != RCC_LSE_OFF)
 80039ca:	687b      	ldr	r3, [r7, #4]
 80039cc:	68db      	ldr	r3, [r3, #12]
 80039ce:	2b00      	cmp	r3, #0
 80039d0:	d015      	beq.n	80039fe <HAL_RCC_OscConfig+0x3a2>
    {
      /* Get Start Tick */
      tickstart = HAL_GetTick();
 80039d2:	f7fe fbb7 	bl	8002144 <HAL_GetTick>
 80039d6:	6138      	str	r0, [r7, #16]

      /* Wait till LSE is ready */
      while (__HAL_RCC_GET_FLAG(RCC_FLAG_LSERDY) == RESET)
 80039d8:	e00a      	b.n	80039f0 <HAL_RCC_OscConfig+0x394>
      {
        if ((HAL_GetTick() - tickstart) > RCC_LSE_TIMEOUT_VALUE)
 80039da:	f7fe fbb3 	bl	8002144 <HAL_GetTick>
 80039de:	4602      	mov	r2, r0
 80039e0:	693b      	ldr	r3, [r7, #16]
 80039e2:	1ad3      	subs	r3, r2, r3
 80039e4:	f241 3288 	movw	r2, #5000	@ 0x1388
 80039e8:	4293      	cmp	r3, r2
 80039ea:	d901      	bls.n	80039f0 <HAL_RCC_OscConfig+0x394>
        {
          return HAL_TIMEOUT;
 80039ec:	2303      	movs	r3, #3
 80039ee:	e0b1      	b.n	8003b54 <HAL_RCC_OscConfig+0x4f8>
      while (__HAL_RCC_GET_FLAG(RCC_FLAG_LSERDY) == RESET)
 80039f0:	4b4b      	ldr	r3, [pc, #300]	@ (8003b20 <HAL_RCC_OscConfig+0x4c4>)
 80039f2:	6a1b      	ldr	r3, [r3, #32]
 80039f4:	f003 0302 	and.w	r3, r3, #2
 80039f8:	2b00      	cmp	r3, #0
 80039fa:	d0ee      	beq.n	80039da <HAL_RCC_OscConfig+0x37e>
 80039fc:	e014      	b.n	8003a28 <HAL_RCC_OscConfig+0x3cc>
      }
    }
    else
    {
      /* Get Start Tick */
      tickstart = HAL_GetTick();
 80039fe:	f7fe fba1 	bl	8002144 <HAL_GetTick>
 8003a02:	6138      	str	r0, [r7, #16]

      /* Wait till LSE is disabled */
      while (__HAL_RCC_GET_FLAG(RCC_FLAG_LSERDY) != RESET)
 8003a04:	e00a      	b.n	8003a1c <HAL_RCC_OscConfig+0x3c0>
      {
        if ((HAL_GetTick() - tickstart) > RCC_LSE_TIMEOUT_VALUE)
 8003a06:	f7fe fb9d 	bl	8002144 <HAL_GetTick>
 8003a0a:	4602      	mov	r2, r0
 8003a0c:	693b      	ldr	r3, [r7, #16]
 8003a0e:	1ad3      	subs	r3, r2, r3
 8003a10:	f241 3288 	movw	r2, #5000	@ 0x1388
 8003a14:	4293      	cmp	r3, r2
 8003a16:	d901      	bls.n	8003a1c <HAL_RCC_OscConfig+0x3c0>
        {
          return HAL_TIMEOUT;
 8003a18:	2303      	movs	r3, #3
 8003a1a:	e09b      	b.n	8003b54 <HAL_RCC_OscConfig+0x4f8>
      while (__HAL_RCC_GET_FLAG(RCC_FLAG_LSERDY) != RESET)
 8003a1c:	4b40      	ldr	r3, [pc, #256]	@ (8003b20 <HAL_RCC_OscConfig+0x4c4>)
 8003a1e:	6a1b      	ldr	r3, [r3, #32]
 8003a20:	f003 0302 	and.w	r3, r3, #2
 8003a24:	2b00      	cmp	r3, #0
 8003a26:	d1ee      	bne.n	8003a06 <HAL_RCC_OscConfig+0x3aa>
        }
      }
    }

    /* Require to disable power clock if necessary */
    if (pwrclkchanged == SET)
 8003a28:	7dfb      	ldrb	r3, [r7, #23]
 8003a2a:	2b01      	cmp	r3, #1
 8003a2c:	d105      	bne.n	8003a3a <HAL_RCC_OscConfig+0x3de>
    {
      __HAL_RCC_PWR_CLK_DISABLE();
 8003a2e:	4b3c      	ldr	r3, [pc, #240]	@ (8003b20 <HAL_RCC_OscConfig+0x4c4>)
 8003a30:	69db      	ldr	r3, [r3, #28]
 8003a32:	4a3b      	ldr	r2, [pc, #236]	@ (8003b20 <HAL_RCC_OscConfig+0x4c4>)
 8003a34:	f023 5380 	bic.w	r3, r3, #268435456	@ 0x10000000
 8003a38:	61d3      	str	r3, [r2, #28]

#endif /* RCC_CR_PLL2ON */
  /*-------------------------------- PLL Configuration -----------------------*/
  /* Check the parameters */
  assert_param(IS_RCC_PLL(RCC_OscInitStruct->PLL.PLLState));
  if ((RCC_OscInitStruct->PLL.PLLState) != RCC_PLL_NONE)
 8003a3a:	687b      	ldr	r3, [r7, #4]
 8003a3c:	69db      	ldr	r3, [r3, #28]
 8003a3e:	2b00      	cmp	r3, #0
 8003a40:	f000 8087 	beq.w	8003b52 <HAL_RCC_OscConfig+0x4f6>
  {
    /* Check if the PLL is used as system clock or not */
    if (__HAL_RCC_GET_SYSCLK_SOURCE() != RCC_SYSCLKSOURCE_STATUS_PLLCLK)
 8003a44:	4b36      	ldr	r3, [pc, #216]	@ (8003b20 <HAL_RCC_OscConfig+0x4c4>)
 8003a46:	685b      	ldr	r3, [r3, #4]
 8003a48:	f003 030c 	and.w	r3, r3, #12
 8003a4c:	2b08      	cmp	r3, #8
 8003a4e:	d061      	beq.n	8003b14 <HAL_RCC_OscConfig+0x4b8>
    {
      if ((RCC_OscInitStruct->PLL.PLLState) == RCC_PLL_ON)
 8003a50:	687b      	ldr	r3, [r7, #4]
 8003a52:	69db      	ldr	r3, [r3, #28]
 8003a54:	2b02      	cmp	r3, #2
 8003a56:	d146      	bne.n	8003ae6 <HAL_RCC_OscConfig+0x48a>
        /* Check the parameters */
        assert_param(IS_RCC_PLLSOURCE(RCC_OscInitStruct->PLL.PLLSource));
        assert_param(IS_RCC_PLL_MUL(RCC_OscInitStruct->PLL.PLLMUL));

        /* Disable the main PLL. */
        __HAL_RCC_PLL_DISABLE();
 8003a58:	4b33      	ldr	r3, [pc, #204]	@ (8003b28 <HAL_RCC_OscConfig+0x4cc>)
 8003a5a:	2200      	movs	r2, #0
 8003a5c:	601a      	str	r2, [r3, #0]

        /* Get Start Tick */
        tickstart = HAL_GetTick();
 8003a5e:	f7fe fb71 	bl	8002144 <HAL_GetTick>
 8003a62:	6138      	str	r0, [r7, #16]

        /* Wait till PLL is disabled */
        while (__HAL_RCC_GET_FLAG(RCC_FLAG_PLLRDY)  != RESET)
 8003a64:	e008      	b.n	8003a78 <HAL_RCC_OscConfig+0x41c>
        {
          if ((HAL_GetTick() - tickstart) > PLL_TIMEOUT_VALUE)
 8003a66:	f7fe fb6d 	bl	8002144 <HAL_GetTick>
 8003a6a:	4602      	mov	r2, r0
 8003a6c:	693b      	ldr	r3, [r7, #16]
 8003a6e:	1ad3      	subs	r3, r2, r3
 8003a70:	2b02      	cmp	r3, #2
 8003a72:	d901      	bls.n	8003a78 <HAL_RCC_OscConfig+0x41c>
          {
            return HAL_TIMEOUT;
 8003a74:	2303      	movs	r3, #3
 8003a76:	e06d      	b.n	8003b54 <HAL_RCC_OscConfig+0x4f8>
        while (__HAL_RCC_GET_FLAG(RCC_FLAG_PLLRDY)  != RESET)
 8003a78:	4b29      	ldr	r3, [pc, #164]	@ (8003b20 <HAL_RCC_OscConfig+0x4c4>)
 8003a7a:	681b      	ldr	r3, [r3, #0]
 8003a7c:	f003 7300 	and.w	r3, r3, #33554432	@ 0x2000000
 8003a80:	2b00      	cmp	r3, #0
 8003a82:	d1f0      	bne.n	8003a66 <HAL_RCC_OscConfig+0x40a>
          }
        }

        /* Configure the HSE prediv factor --------------------------------*/
        /* It can be written only when the PLL is disabled. Not used in PLL source is different than HSE */
        if (RCC_OscInitStruct->PLL.PLLSource == RCC_PLLSOURCE_HSE)
 8003a84:	687b      	ldr	r3, [r7, #4]
 8003a86:	6a1b      	ldr	r3, [r3, #32]
 8003a88:	f5b3 3f80 	cmp.w	r3, #65536	@ 0x10000
 8003a8c:	d108      	bne.n	8003aa0 <HAL_RCC_OscConfig+0x444>
          /* Set PREDIV1 source */
          SET_BIT(RCC->CFGR2, RCC_OscInitStruct->Prediv1Source);
#endif /* RCC_CFGR2_PREDIV1SRC */

          /* Set PREDIV1 Value */
          __HAL_RCC_HSE_PREDIV_CONFIG(RCC_OscInitStruct->HSEPredivValue);
 8003a8e:	4b24      	ldr	r3, [pc, #144]	@ (8003b20 <HAL_RCC_OscConfig+0x4c4>)
 8003a90:	685b      	ldr	r3, [r3, #4]
 8003a92:	f423 3200 	bic.w	r2, r3, #131072	@ 0x20000
 8003a96:	687b      	ldr	r3, [r7, #4]
 8003a98:	689b      	ldr	r3, [r3, #8]
 8003a9a:	4921      	ldr	r1, [pc, #132]	@ (8003b20 <HAL_RCC_OscConfig+0x4c4>)
 8003a9c:	4313      	orrs	r3, r2
 8003a9e:	604b      	str	r3, [r1, #4]
        }

        /* Configure the main PLL clock source and multiplication factors. */
        __HAL_RCC_PLL_CONFIG(RCC_OscInitStruct->PLL.PLLSource,
 8003aa0:	4b1f      	ldr	r3, [pc, #124]	@ (8003b20 <HAL_RCC_OscConfig+0x4c4>)
 8003aa2:	685b      	ldr	r3, [r3, #4]
 8003aa4:	f423 1274 	bic.w	r2, r3, #3997696	@ 0x3d0000
 8003aa8:	687b      	ldr	r3, [r7, #4]
 8003aaa:	6a19      	ldr	r1, [r3, #32]
 8003aac:	687b      	ldr	r3, [r7, #4]
 8003aae:	6a5b      	ldr	r3, [r3, #36]	@ 0x24
 8003ab0:	430b      	orrs	r3, r1
 8003ab2:	491b      	ldr	r1, [pc, #108]	@ (8003b20 <HAL_RCC_OscConfig+0x4c4>)
 8003ab4:	4313      	orrs	r3, r2
 8003ab6:	604b      	str	r3, [r1, #4]
                             RCC_OscInitStruct->PLL.PLLMUL);
        /* Enable the main PLL. */
        __HAL_RCC_PLL_ENABLE();
 8003ab8:	4b1b      	ldr	r3, [pc, #108]	@ (8003b28 <HAL_RCC_OscConfig+0x4cc>)
 8003aba:	2201      	movs	r2, #1
 8003abc:	601a      	str	r2, [r3, #0]

        /* Get Start Tick */
        tickstart = HAL_GetTick();
 8003abe:	f7fe fb41 	bl	8002144 <HAL_GetTick>
 8003ac2:	6138      	str	r0, [r7, #16]

        /* Wait till PLL is ready */
        while (__HAL_RCC_GET_FLAG(RCC_FLAG_PLLRDY)  == RESET)
 8003ac4:	e008      	b.n	8003ad8 <HAL_RCC_OscConfig+0x47c>
        {
          if ((HAL_GetTick() - tickstart) > PLL_TIMEOUT_VALUE)
 8003ac6:	f7fe fb3d 	bl	8002144 <HAL_GetTick>
 8003aca:	4602      	mov	r2, r0
 8003acc:	693b      	ldr	r3, [r7, #16]
 8003ace:	1ad3      	subs	r3, r2, r3
 8003ad0:	2b02      	cmp	r3, #2
 8003ad2:	d901      	bls.n	8003ad8 <HAL_RCC_OscConfig+0x47c>
          {
            return HAL_TIMEOUT;
 8003ad4:	2303      	movs	r3, #3
 8003ad6:	e03d      	b.n	8003b54 <HAL_RCC_OscConfig+0x4f8>
        while (__HAL_RCC_GET_FLAG(RCC_FLAG_PLLRDY)  == RESET)
 8003ad8:	4b11      	ldr	r3, [pc, #68]	@ (8003b20 <HAL_RCC_OscConfig+0x4c4>)
 8003ada:	681b      	ldr	r3, [r3, #0]
 8003adc:	f003 7300 	and.w	r3, r3, #33554432	@ 0x2000000
 8003ae0:	2b00      	cmp	r3, #0
 8003ae2:	d0f0      	beq.n	8003ac6 <HAL_RCC_OscConfig+0x46a>
 8003ae4:	e035      	b.n	8003b52 <HAL_RCC_OscConfig+0x4f6>
        }
      }
      else
      {
        /* Disable the main PLL. */
        __HAL_RCC_PLL_DISABLE();
 8003ae6:	4b10      	ldr	r3, [pc, #64]	@ (8003b28 <HAL_RCC_OscConfig+0x4cc>)
 8003ae8:	2200      	movs	r2, #0
 8003aea:	601a      	str	r2, [r3, #0]

        /* Get Start Tick */
        tickstart = HAL_GetTick();
 8003aec:	f7fe fb2a 	bl	8002144 <HAL_GetTick>
 8003af0:	6138      	str	r0, [r7, #16]

        /* Wait till PLL is disabled */
        while (__HAL_RCC_GET_FLAG(RCC_FLAG_PLLRDY)  != RESET)
 8003af2:	e008      	b.n	8003b06 <HAL_RCC_OscConfig+0x4aa>
        {
          if ((HAL_GetTick() - tickstart) > PLL_TIMEOUT_VALUE)
 8003af4:	f7fe fb26 	bl	8002144 <HAL_GetTick>
 8003af8:	4602      	mov	r2, r0
 8003afa:	693b      	ldr	r3, [r7, #16]
 8003afc:	1ad3      	subs	r3, r2, r3
 8003afe:	2b02      	cmp	r3, #2
 8003b00:	d901      	bls.n	8003b06 <HAL_RCC_OscConfig+0x4aa>
          {
            return HAL_TIMEOUT;
 8003b02:	2303      	movs	r3, #3
 8003b04:	e026      	b.n	8003b54 <HAL_RCC_OscConfig+0x4f8>
        while (__HAL_RCC_GET_FLAG(RCC_FLAG_PLLRDY)  != RESET)
 8003b06:	4b06      	ldr	r3, [pc, #24]	@ (8003b20 <HAL_RCC_OscConfig+0x4c4>)
 8003b08:	681b      	ldr	r3, [r3, #0]
 8003b0a:	f003 7300 	and.w	r3, r3, #33554432	@ 0x2000000
 8003b0e:	2b00      	cmp	r3, #0
 8003b10:	d1f0      	bne.n	8003af4 <HAL_RCC_OscConfig+0x498>
 8003b12:	e01e      	b.n	8003b52 <HAL_RCC_OscConfig+0x4f6>
      }
    }
    else
    {
      /* Check if there is a request to disable the PLL used as System clock source */
      if ((RCC_OscInitStruct->PLL.PLLState) == RCC_PLL_OFF)
 8003b14:	687b      	ldr	r3, [r7, #4]
 8003b16:	69db      	ldr	r3, [r3, #28]
 8003b18:	2b01      	cmp	r3, #1
 8003b1a:	d107      	bne.n	8003b2c <HAL_RCC_OscConfig+0x4d0>
      {
        return HAL_ERROR;
 8003b1c:	2301      	movs	r3, #1
 8003b1e:	e019      	b.n	8003b54 <HAL_RCC_OscConfig+0x4f8>
 8003b20:	40021000 	.word	0x40021000
 8003b24:	40007000 	.word	0x40007000
 8003b28:	42420060 	.word	0x42420060
      }
      else
      {
        /* Do not return HAL_ERROR if request repeats the current configuration */
        pll_config = RCC->CFGR;
 8003b2c:	4b0b      	ldr	r3, [pc, #44]	@ (8003b5c <HAL_RCC_OscConfig+0x500>)
 8003b2e:	685b      	ldr	r3, [r3, #4]
 8003b30:	60fb      	str	r3, [r7, #12]
        if ((READ_BIT(pll_config, RCC_CFGR_PLLSRC) != RCC_OscInitStruct->PLL.PLLSource) ||
 8003b32:	68fb      	ldr	r3, [r7, #12]
 8003b34:	f403 3280 	and.w	r2, r3, #65536	@ 0x10000
 8003b38:	687b      	ldr	r3, [r7, #4]
 8003b3a:	6a1b      	ldr	r3, [r3, #32]
 8003b3c:	429a      	cmp	r2, r3
 8003b3e:	d106      	bne.n	8003b4e <HAL_RCC_OscConfig+0x4f2>
            (READ_BIT(pll_config, RCC_CFGR_PLLMULL) != RCC_OscInitStruct->PLL.PLLMUL))
 8003b40:	68fb      	ldr	r3, [r7, #12]
 8003b42:	f403 1270 	and.w	r2, r3, #3932160	@ 0x3c0000
 8003b46:	687b      	ldr	r3, [r7, #4]
 8003b48:	6a5b      	ldr	r3, [r3, #36]	@ 0x24
        if ((READ_BIT(pll_config, RCC_CFGR_PLLSRC) != RCC_OscInitStruct->PLL.PLLSource) ||
 8003b4a:	429a      	cmp	r2, r3
 8003b4c:	d001      	beq.n	8003b52 <HAL_RCC_OscConfig+0x4f6>
        {
          return HAL_ERROR;
 8003b4e:	2301      	movs	r3, #1
 8003b50:	e000      	b.n	8003b54 <HAL_RCC_OscConfig+0x4f8>
        }
      }
    }
  }

  return HAL_OK;
 8003b52:	2300      	movs	r3, #0
}
 8003b54:	4618      	mov	r0, r3
 8003b56:	3718      	adds	r7, #24
 8003b58:	46bd      	mov	sp, r7
 8003b5a:	bd80      	pop	{r7, pc}
 8003b5c:	40021000 	.word	0x40021000

08003b60 <HAL_RCC_ClockConfig>:
  *         You can use @ref HAL_RCC_GetClockConfig() function to know which clock is
  *         currently used as system clock source.
  * @retval HAL status
  */
HAL_StatusTypeDef HAL_RCC_ClockConfig(RCC_ClkInitTypeDef  *RCC_ClkInitStruct, uint32_t FLatency)
{
 8003b60:	b580      	push	{r7, lr}
 8003b62:	b084      	sub	sp, #16
 8003b64:	af00      	add	r7, sp, #0
 8003b66:	6078      	str	r0, [r7, #4]
 8003b68:	6039      	str	r1, [r7, #0]
  uint32_t tickstart;

  /* Check Null pointer */
  if (RCC_ClkInitStruct == NULL)
 8003b6a:	687b      	ldr	r3, [r7, #4]
 8003b6c:	2b00      	cmp	r3, #0
 8003b6e:	d101      	bne.n	8003b74 <HAL_RCC_ClockConfig+0x14>
  {
    return HAL_ERROR;
 8003b70:	2301      	movs	r3, #1
 8003b72:	e0d0      	b.n	8003d16 <HAL_RCC_ClockConfig+0x1b6>
  must be correctly programmed according to the frequency of the CPU clock
    (HCLK) of the device. */

#if defined(FLASH_ACR_LATENCY)
  /* Increasing the number of wait states because of higher CPU frequency */
  if (FLatency > __HAL_FLASH_GET_LATENCY())
 8003b74:	4b6a      	ldr	r3, [pc, #424]	@ (8003d20 <HAL_RCC_ClockConfig+0x1c0>)
 8003b76:	681b      	ldr	r3, [r3, #0]
 8003b78:	f003 0307 	and.w	r3, r3, #7
 8003b7c:	683a      	ldr	r2, [r7, #0]
 8003b7e:	429a      	cmp	r2, r3
 8003b80:	d910      	bls.n	8003ba4 <HAL_RCC_ClockConfig+0x44>
  {
    /* Program the new number of wait states to the LATENCY bits in the FLASH_ACR register */
    __HAL_FLASH_SET_LATENCY(FLatency);
 8003b82:	4b67      	ldr	r3, [pc, #412]	@ (8003d20 <HAL_RCC_ClockConfig+0x1c0>)
 8003b84:	681b      	ldr	r3, [r3, #0]
 8003b86:	f023 0207 	bic.w	r2, r3, #7
 8003b8a:	4965      	ldr	r1, [pc, #404]	@ (8003d20 <HAL_RCC_ClockConfig+0x1c0>)
 8003b8c:	683b      	ldr	r3, [r7, #0]
 8003b8e:	4313      	orrs	r3, r2
 8003b90:	600b      	str	r3, [r1, #0]

    /* Check that the new number of wait states is taken into account to access the Flash
    memory by reading the FLASH_ACR register */
    if (__HAL_FLASH_GET_LATENCY() != FLatency)
 8003b92:	4b63      	ldr	r3, [pc, #396]	@ (8003d20 <HAL_RCC_ClockConfig+0x1c0>)
 8003b94:	681b      	ldr	r3, [r3, #0]
 8003b96:	f003 0307 	and.w	r3, r3, #7
 8003b9a:	683a      	ldr	r2, [r7, #0]
 8003b9c:	429a      	cmp	r2, r3
 8003b9e:	d001      	beq.n	8003ba4 <HAL_RCC_ClockConfig+0x44>
  {
    return HAL_ERROR;
 8003ba0:	2301      	movs	r3, #1
 8003ba2:	e0b8      	b.n	8003d16 <HAL_RCC_ClockConfig+0x1b6>
  }
}

#endif /* FLASH_ACR_LATENCY */
/*-------------------------- HCLK Configuration --------------------------*/
if (((RCC_ClkInitStruct->ClockType) & RCC_CLOCKTYPE_HCLK) == RCC_CLOCKTYPE_HCLK)
 8003ba4:	687b      	ldr	r3, [r7, #4]
 8003ba6:	681b      	ldr	r3, [r3, #0]
 8003ba8:	f003 0302 	and.w	r3, r3, #2
 8003bac:	2b00      	cmp	r3, #0
 8003bae:	d020      	beq.n	8003bf2 <HAL_RCC_ClockConfig+0x92>
  {
    /* Set the highest APBx dividers in order to ensure that we do not go through
    a non-spec phase whatever we decrease or increase HCLK. */
    if (((RCC_ClkInitStruct->ClockType) & RCC_CLOCKTYPE_PCLK1) == RCC_CLOCKTYPE_PCLK1)
 8003bb0:	687b      	ldr	r3, [r7, #4]
 8003bb2:	681b      	ldr	r3, [r3, #0]
 8003bb4:	f003 0304 	and.w	r3, r3, #4
 8003bb8:	2b00      	cmp	r3, #0
 8003bba:	d005      	beq.n	8003bc8 <HAL_RCC_ClockConfig+0x68>
    {
      MODIFY_REG(RCC->CFGR, RCC_CFGR_PPRE1, RCC_HCLK_DIV16);
 8003bbc:	4b59      	ldr	r3, [pc, #356]	@ (8003d24 <HAL_RCC_ClockConfig+0x1c4>)
 8003bbe:	685b      	ldr	r3, [r3, #4]
 8003bc0:	4a58      	ldr	r2, [pc, #352]	@ (8003d24 <HAL_RCC_ClockConfig+0x1c4>)
 8003bc2:	f443 63e0 	orr.w	r3, r3, #1792	@ 0x700
 8003bc6:	6053      	str	r3, [r2, #4]
    }

    if (((RCC_ClkInitStruct->ClockType) & RCC_CLOCKTYPE_PCLK2) == RCC_CLOCKTYPE_PCLK2)
 8003bc8:	687b      	ldr	r3, [r7, #4]
 8003bca:	681b      	ldr	r3, [r3, #0]
 8003bcc:	f003 0308 	and.w	r3, r3, #8
 8003bd0:	2b00      	cmp	r3, #0
 8003bd2:	d005      	beq.n	8003be0 <HAL_RCC_ClockConfig+0x80>
    {
      MODIFY_REG(RCC->CFGR, RCC_CFGR_PPRE2, (RCC_HCLK_DIV16 << 3));
 8003bd4:	4b53      	ldr	r3, [pc, #332]	@ (8003d24 <HAL_RCC_ClockConfig+0x1c4>)
 8003bd6:	685b      	ldr	r3, [r3, #4]
 8003bd8:	4a52      	ldr	r2, [pc, #328]	@ (8003d24 <HAL_RCC_ClockConfig+0x1c4>)
 8003bda:	f443 5360 	orr.w	r3, r3, #14336	@ 0x3800
 8003bde:	6053      	str	r3, [r2, #4]
    }

    /* Set the new HCLK clock divider */
    assert_param(IS_RCC_HCLK(RCC_ClkInitStruct->AHBCLKDivider));
    MODIFY_REG(RCC->CFGR, RCC_CFGR_HPRE, RCC_ClkInitStruct->AHBCLKDivider);
 8003be0:	4b50      	ldr	r3, [pc, #320]	@ (8003d24 <HAL_RCC_ClockConfig+0x1c4>)
 8003be2:	685b      	ldr	r3, [r3, #4]
 8003be4:	f023 02f0 	bic.w	r2, r3, #240	@ 0xf0
 8003be8:	687b      	ldr	r3, [r7, #4]
 8003bea:	689b      	ldr	r3, [r3, #8]
 8003bec:	494d      	ldr	r1, [pc, #308]	@ (8003d24 <HAL_RCC_ClockConfig+0x1c4>)
 8003bee:	4313      	orrs	r3, r2
 8003bf0:	604b      	str	r3, [r1, #4]
  }

  /*------------------------- SYSCLK Configuration ---------------------------*/
  if (((RCC_ClkInitStruct->ClockType) & RCC_CLOCKTYPE_SYSCLK) == RCC_CLOCKTYPE_SYSCLK)
 8003bf2:	687b      	ldr	r3, [r7, #4]
 8003bf4:	681b      	ldr	r3, [r3, #0]
 8003bf6:	f003 0301 	and.w	r3, r3, #1
 8003bfa:	2b00      	cmp	r3, #0
 8003bfc:	d040      	beq.n	8003c80 <HAL_RCC_ClockConfig+0x120>
  {
    assert_param(IS_RCC_SYSCLKSOURCE(RCC_ClkInitStruct->SYSCLKSource));

    /* HSE is selected as System Clock Source */
    if (RCC_ClkInitStruct->SYSCLKSource == RCC_SYSCLKSOURCE_HSE)
 8003bfe:	687b      	ldr	r3, [r7, #4]
 8003c00:	685b      	ldr	r3, [r3, #4]
 8003c02:	2b01      	cmp	r3, #1
 8003c04:	d107      	bne.n	8003c16 <HAL_RCC_ClockConfig+0xb6>
    {
      /* Check the HSE ready flag */
      if (__HAL_RCC_GET_FLAG(RCC_FLAG_HSERDY) == RESET)
 8003c06:	4b47      	ldr	r3, [pc, #284]	@ (8003d24 <HAL_RCC_ClockConfig+0x1c4>)
 8003c08:	681b      	ldr	r3, [r3, #0]
 8003c0a:	f403 3300 	and.w	r3, r3, #131072	@ 0x20000
 8003c0e:	2b00      	cmp	r3, #0
 8003c10:	d115      	bne.n	8003c3e <HAL_RCC_ClockConfig+0xde>
      {
        return HAL_ERROR;
 8003c12:	2301      	movs	r3, #1
 8003c14:	e07f      	b.n	8003d16 <HAL_RCC_ClockConfig+0x1b6>
      }
    }
    /* PLL is selected as System Clock Source */
    else if (RCC_ClkInitStruct->SYSCLKSource == RCC_SYSCLKSOURCE_PLLCLK)
 8003c16:	687b      	ldr	r3, [r7, #4]
 8003c18:	685b      	ldr	r3, [r3, #4]
 8003c1a:	2b02      	cmp	r3, #2
 8003c1c:	d107      	bne.n	8003c2e <HAL_RCC_ClockConfig+0xce>
    {
      /* Check the PLL ready flag */
      if (__HAL_RCC_GET_FLAG(RCC_FLAG_PLLRDY) == RESET)
 8003c1e:	4b41      	ldr	r3, [pc, #260]	@ (8003d24 <HAL_RCC_ClockConfig+0x1c4>)
 8003c20:	681b      	ldr	r3, [r3, #0]
 8003c22:	f003 7300 	and.w	r3, r3, #33554432	@ 0x2000000
 8003c26:	2b00      	cmp	r3, #0
 8003c28:	d109      	bne.n	8003c3e <HAL_RCC_ClockConfig+0xde>
      {
        return HAL_ERROR;
 8003c2a:	2301      	movs	r3, #1
 8003c2c:	e073      	b.n	8003d16 <HAL_RCC_ClockConfig+0x1b6>
    }
    /* HSI is selected as System Clock Source */
    else
    {
      /* Check the HSI ready flag */
      if (__HAL_RCC_GET_FLAG(RCC_FLAG_HSIRDY) == RESET)
 8003c2e:	4b3d      	ldr	r3, [pc, #244]	@ (8003d24 <HAL_RCC_ClockConfig+0x1c4>)
 8003c30:	681b      	ldr	r3, [r3, #0]
 8003c32:	f003 0302 	and.w	r3, r3, #2
 8003c36:	2b00      	cmp	r3, #0
 8003c38:	d101      	bne.n	8003c3e <HAL_RCC_ClockConfig+0xde>
      {
        return HAL_ERROR;
 8003c3a:	2301      	movs	r3, #1
 8003c3c:	e06b      	b.n	8003d16 <HAL_RCC_ClockConfig+0x1b6>
      }
    }
    __HAL_RCC_SYSCLK_CONFIG(RCC_ClkInitStruct->SYSCLKSource);
 8003c3e:	4b39      	ldr	r3, [pc, #228]	@ (8003d24 <HAL_RCC_ClockConfig+0x1c4>)
 8003c40:	685b      	ldr	r3, [r3, #4]
 8003c42:	f023 0203 	bic.w	r2, r3, #3
 8003c46:	687b      	ldr	r3, [r7, #4]
 8003c48:	685b      	ldr	r3, [r3, #4]
 8003c4a:	4936      	ldr	r1, [pc, #216]	@ (8003d24 <HAL_RCC_ClockConfig+0x1c4>)
 8003c4c:	4313      	orrs	r3, r2
 8003c4e:	604b      	str	r3, [r1, #4]

    /* Get Start Tick */
    tickstart = HAL_GetTick();
 8003c50:	f7fe fa78 	bl	8002144 <HAL_GetTick>
 8003c54:	60f8      	str	r0, [r7, #12]

    while (__HAL_RCC_GET_SYSCLK_SOURCE() != (RCC_ClkInitStruct->SYSCLKSource << RCC_CFGR_SWS_Pos))
 8003c56:	e00a      	b.n	8003c6e <HAL_RCC_ClockConfig+0x10e>
    {
      if ((HAL_GetTick() - tickstart) > CLOCKSWITCH_TIMEOUT_VALUE)
 8003c58:	f7fe fa74 	bl	8002144 <HAL_GetTick>
 8003c5c:	4602      	mov	r2, r0
 8003c5e:	68fb      	ldr	r3, [r7, #12]
 8003c60:	1ad3      	subs	r3, r2, r3
 8003c62:	f241 3288 	movw	r2, #5000	@ 0x1388
 8003c66:	4293      	cmp	r3, r2
 8003c68:	d901      	bls.n	8003c6e <HAL_RCC_ClockConfig+0x10e>
      {
        return HAL_TIMEOUT;
 8003c6a:	2303      	movs	r3, #3
 8003c6c:	e053      	b.n	8003d16 <HAL_RCC_ClockConfig+0x1b6>
    while (__HAL_RCC_GET_SYSCLK_SOURCE() != (RCC_ClkInitStruct->SYSCLKSource << RCC_CFGR_SWS_Pos))
 8003c6e:	4b2d      	ldr	r3, [pc, #180]	@ (8003d24 <HAL_RCC_ClockConfig+0x1c4>)
 8003c70:	685b      	ldr	r3, [r3, #4]
 8003c72:	f003 020c 	and.w	r2, r3, #12
 8003c76:	687b      	ldr	r3, [r7, #4]
 8003c78:	685b      	ldr	r3, [r3, #4]
 8003c7a:	009b      	lsls	r3, r3, #2
 8003c7c:	429a      	cmp	r2, r3
 8003c7e:	d1eb      	bne.n	8003c58 <HAL_RCC_ClockConfig+0xf8>
    }
  }

#if defined(FLASH_ACR_LATENCY)
  /* Decreasing the number of wait states because of lower CPU frequency */
  if (FLatency < __HAL_FLASH_GET_LATENCY())
 8003c80:	4b27      	ldr	r3, [pc, #156]	@ (8003d20 <HAL_RCC_ClockConfig+0x1c0>)
 8003c82:	681b      	ldr	r3, [r3, #0]
 8003c84:	f003 0307 	and.w	r3, r3, #7
 8003c88:	683a      	ldr	r2, [r7, #0]
 8003c8a:	429a      	cmp	r2, r3
 8003c8c:	d210      	bcs.n	8003cb0 <HAL_RCC_ClockConfig+0x150>
  {
    /* Program the new number of wait states to the LATENCY bits in the FLASH_ACR register */
    __HAL_FLASH_SET_LATENCY(FLatency);
 8003c8e:	4b24      	ldr	r3, [pc, #144]	@ (8003d20 <HAL_RCC_ClockConfig+0x1c0>)
 8003c90:	681b      	ldr	r3, [r3, #0]
 8003c92:	f023 0207 	bic.w	r2, r3, #7
 8003c96:	4922      	ldr	r1, [pc, #136]	@ (8003d20 <HAL_RCC_ClockConfig+0x1c0>)
 8003c98:	683b      	ldr	r3, [r7, #0]
 8003c9a:	4313      	orrs	r3, r2
 8003c9c:	600b      	str	r3, [r1, #0]

    /* Check that the new number of wait states is taken into account to access the Flash
    memory by reading the FLASH_ACR register */
    if (__HAL_FLASH_GET_LATENCY() != FLatency)
 8003c9e:	4b20      	ldr	r3, [pc, #128]	@ (8003d20 <HAL_RCC_ClockConfig+0x1c0>)
 8003ca0:	681b      	ldr	r3, [r3, #0]
 8003ca2:	f003 0307 	and.w	r3, r3, #7
 8003ca6:	683a      	ldr	r2, [r7, #0]
 8003ca8:	429a      	cmp	r2, r3
 8003caa:	d001      	beq.n	8003cb0 <HAL_RCC_ClockConfig+0x150>
  {
    return HAL_ERROR;
 8003cac:	2301      	movs	r3, #1
 8003cae:	e032      	b.n	8003d16 <HAL_RCC_ClockConfig+0x1b6>
  }
}
#endif /* FLASH_ACR_LATENCY */

/*-------------------------- PCLK1 Configuration ---------------------------*/
if (((RCC_ClkInitStruct->ClockType) & RCC_CLOCKTYPE_PCLK1) == RCC_CLOCKTYPE_PCLK1)
 8003cb0:	687b      	ldr	r3, [r7, #4]
 8003cb2:	681b      	ldr	r3, [r3, #0]
 8003cb4:	f003 0304 	and.w	r3, r3, #4
 8003cb8:	2b00      	cmp	r3, #0
 8003cba:	d008      	beq.n	8003cce <HAL_RCC_ClockConfig+0x16e>
  {
    assert_param(IS_RCC_PCLK(RCC_ClkInitStruct->APB1CLKDivider));
    MODIFY_REG(RCC->CFGR, RCC_CFGR_PPRE1, RCC_ClkInitStruct->APB1CLKDivider);
 8003cbc:	4b19      	ldr	r3, [pc, #100]	@ (8003d24 <HAL_RCC_ClockConfig+0x1c4>)
 8003cbe:	685b      	ldr	r3, [r3, #4]
 8003cc0:	f423 62e0 	bic.w	r2, r3, #1792	@ 0x700
 8003cc4:	687b      	ldr	r3, [r7, #4]
 8003cc6:	68db      	ldr	r3, [r3, #12]
 8003cc8:	4916      	ldr	r1, [pc, #88]	@ (8003d24 <HAL_RCC_ClockConfig+0x1c4>)
 8003cca:	4313      	orrs	r3, r2
 8003ccc:	604b      	str	r3, [r1, #4]
  }

  /*-------------------------- PCLK2 Configuration ---------------------------*/
  if (((RCC_ClkInitStruct->ClockType) & RCC_CLOCKTYPE_PCLK2) == RCC_CLOCKTYPE_PCLK2)
 8003cce:	687b      	ldr	r3, [r7, #4]
 8003cd0:	681b      	ldr	r3, [r3, #0]
 8003cd2:	f003 0308 	and.w	r3, r3, #8
 8003cd6:	2b00      	cmp	r3, #0
 8003cd8:	d009      	beq.n	8003cee <HAL_RCC_ClockConfig+0x18e>
  {
    assert_param(IS_RCC_PCLK(RCC_ClkInitStruct->APB2CLKDivider));
    MODIFY_REG(RCC->CFGR, RCC_CFGR_PPRE2, ((RCC_ClkInitStruct->APB2CLKDivider) << 3));
 8003cda:	4b12      	ldr	r3, [pc, #72]	@ (8003d24 <HAL_RCC_ClockConfig+0x1c4>)
 8003cdc:	685b      	ldr	r3, [r3, #4]
 8003cde:	f423 5260 	bic.w	r2, r3, #14336	@ 0x3800
 8003ce2:	687b      	ldr	r3, [r7, #4]
 8003ce4:	691b      	ldr	r3, [r3, #16]
 8003ce6:	00db      	lsls	r3, r3, #3
 8003ce8:	490e      	ldr	r1, [pc, #56]	@ (8003d24 <HAL_RCC_ClockConfig+0x1c4>)
 8003cea:	4313      	orrs	r3, r2
 8003cec:	604b      	str	r3, [r1, #4]
  }

  /* Update the SystemCoreClock global variable */
  SystemCoreClock = HAL_RCC_GetSysClockFreq() >> AHBPrescTable[(RCC->CFGR & RCC_CFGR_HPRE) >> RCC_CFGR_HPRE_Pos];
 8003cee:	f000 f82d 	bl	8003d4c <HAL_RCC_GetSysClockFreq>
 8003cf2:	4602      	mov	r2, r0
 8003cf4:	4b0b      	ldr	r3, [pc, #44]	@ (8003d24 <HAL_RCC_ClockConfig+0x1c4>)
 8003cf6:	685b      	ldr	r3, [r3, #4]
 8003cf8:	091b      	lsrs	r3, r3, #4
 8003cfa:	f003 030f 	and.w	r3, r3, #15
 8003cfe:	490a      	ldr	r1, [pc, #40]	@ (8003d28 <HAL_RCC_ClockConfig+0x1c8>)
 8003d00:	5ccb      	ldrb	r3, [r1, r3]
 8003d02:	fa22 f303 	lsr.w	r3, r2, r3
 8003d06:	4a09      	ldr	r2, [pc, #36]	@ (8003d2c <HAL_RCC_ClockConfig+0x1cc>)
 8003d08:	6013      	str	r3, [r2, #0]

  /* Configure the source of time base considering new system clocks settings*/
  HAL_InitTick(uwTickPrio);
 8003d0a:	4b09      	ldr	r3, [pc, #36]	@ (8003d30 <HAL_RCC_ClockConfig+0x1d0>)
 8003d0c:	681b      	ldr	r3, [r3, #0]
 8003d0e:	4618      	mov	r0, r3
 8003d10:	f7fe f9d6 	bl	80020c0 <HAL_InitTick>

  return HAL_OK;
 8003d14:	2300      	movs	r3, #0
}
 8003d16:	4618      	mov	r0, r3
 8003d18:	3710      	adds	r7, #16
 8003d1a:	46bd      	mov	sp, r7
 8003d1c:	bd80      	pop	{r7, pc}
 8003d1e:	bf00      	nop
 8003d20:	40022000 	.word	0x40022000
 8003d24:	40021000 	.word	0x40021000
 8003d28:	08007db8 	.word	0x08007db8
 8003d2c:	20000000 	.word	0x20000000
 8003d30:	20000004 	.word	0x20000004

08003d34 <HAL_RCC_EnableCSS>:
  *         allowing the MCU to perform rescue operations. The CSSI is linked to
  *         the Cortex-M3 NMI (Non-Maskable Interrupt) exception vector.
  * @retval None
  */
void HAL_RCC_EnableCSS(void)
{
 8003d34:	b480      	push	{r7}
 8003d36:	af00      	add	r7, sp, #0
  *(__IO uint32_t *) RCC_CR_CSSON_BB = (uint32_t)ENABLE;
 8003d38:	4b03      	ldr	r3, [pc, #12]	@ (8003d48 <HAL_RCC_EnableCSS+0x14>)
 8003d3a:	2201      	movs	r2, #1
 8003d3c:	601a      	str	r2, [r3, #0]
}
 8003d3e:	bf00      	nop
 8003d40:	46bd      	mov	sp, r7
 8003d42:	bc80      	pop	{r7}
 8003d44:	4770      	bx	lr
 8003d46:	bf00      	nop
 8003d48:	4242004c 	.word	0x4242004c

08003d4c <HAL_RCC_GetSysClockFreq>:
  *         right SYSCLK value. Otherwise, any configuration based on this function will be incorrect.
  *
  * @retval SYSCLK frequency
  */
uint32_t HAL_RCC_GetSysClockFreq(void)
{
 8003d4c:	b480      	push	{r7}
 8003d4e:	b087      	sub	sp, #28
 8003d50:	af00      	add	r7, sp, #0
#else
  static const uint8_t aPredivFactorTable[2U] = {1, 2};
#endif /*RCC_CFGR2_PREDIV1*/

#endif
  uint32_t tmpreg = 0U, prediv = 0U, pllclk = 0U, pllmul = 0U;
 8003d52:	2300      	movs	r3, #0
 8003d54:	60fb      	str	r3, [r7, #12]
 8003d56:	2300      	movs	r3, #0
 8003d58:	60bb      	str	r3, [r7, #8]
 8003d5a:	2300      	movs	r3, #0
 8003d5c:	617b      	str	r3, [r7, #20]
 8003d5e:	2300      	movs	r3, #0
 8003d60:	607b      	str	r3, [r7, #4]
  uint32_t sysclockfreq = 0U;
 8003d62:	2300      	movs	r3, #0
 8003d64:	613b      	str	r3, [r7, #16]
#if defined(RCC_CFGR2_PREDIV1SRC)
  uint32_t prediv2 = 0U, pll2mul = 0U;
#endif /*RCC_CFGR2_PREDIV1SRC*/

  tmpreg = RCC->CFGR;
 8003d66:	4b1e      	ldr	r3, [pc, #120]	@ (8003de0 <HAL_RCC_GetSysClockFreq+0x94>)
 8003d68:	685b      	ldr	r3, [r3, #4]
 8003d6a:	60fb      	str	r3, [r7, #12]

  /* Get SYSCLK source -------------------------------------------------------*/
  switch (tmpreg & RCC_CFGR_SWS)
 8003d6c:	68fb      	ldr	r3, [r7, #12]
 8003d6e:	f003 030c 	and.w	r3, r3, #12
 8003d72:	2b04      	cmp	r3, #4
 8003d74:	d002      	beq.n	8003d7c <HAL_RCC_GetSysClockFreq+0x30>
 8003d76:	2b08      	cmp	r3, #8
 8003d78:	d003      	beq.n	8003d82 <HAL_RCC_GetSysClockFreq+0x36>
 8003d7a:	e027      	b.n	8003dcc <HAL_RCC_GetSysClockFreq+0x80>
  {
    case RCC_SYSCLKSOURCE_STATUS_HSE:  /* HSE used as system clock */
    {
      sysclockfreq = HSE_VALUE;
 8003d7c:	4b19      	ldr	r3, [pc, #100]	@ (8003de4 <HAL_RCC_GetSysClockFreq+0x98>)
 8003d7e:	613b      	str	r3, [r7, #16]
      break;
 8003d80:	e027      	b.n	8003dd2 <HAL_RCC_GetSysClockFreq+0x86>
    }
    case RCC_SYSCLKSOURCE_STATUS_PLLCLK:  /* PLL used as system clock */
    {
      pllmul = aPLLMULFactorTable[(uint32_t)(tmpreg & RCC_CFGR_PLLMULL) >> RCC_CFGR_PLLMULL_Pos];
 8003d82:	68fb      	ldr	r3, [r7, #12]
 8003d84:	0c9b      	lsrs	r3, r3, #18
 8003d86:	f003 030f 	and.w	r3, r3, #15
 8003d8a:	4a17      	ldr	r2, [pc, #92]	@ (8003de8 <HAL_RCC_GetSysClockFreq+0x9c>)
 8003d8c:	5cd3      	ldrb	r3, [r2, r3]
 8003d8e:	607b      	str	r3, [r7, #4]
      if ((tmpreg & RCC_CFGR_PLLSRC) != RCC_PLLSOURCE_HSI_DIV2)
 8003d90:	68fb      	ldr	r3, [r7, #12]
 8003d92:	f403 3380 	and.w	r3, r3, #65536	@ 0x10000
 8003d96:	2b00      	cmp	r3, #0
 8003d98:	d010      	beq.n	8003dbc <HAL_RCC_GetSysClockFreq+0x70>
      {
#if defined(RCC_CFGR2_PREDIV1)
        prediv = aPredivFactorTable[(uint32_t)(RCC->CFGR2 & RCC_CFGR2_PREDIV1) >> RCC_CFGR2_PREDIV1_Pos];
#else
        prediv = aPredivFactorTable[(uint32_t)(RCC->CFGR & RCC_CFGR_PLLXTPRE) >> RCC_CFGR_PLLXTPRE_Pos];
 8003d9a:	4b11      	ldr	r3, [pc, #68]	@ (8003de0 <HAL_RCC_GetSysClockFreq+0x94>)
 8003d9c:	685b      	ldr	r3, [r3, #4]
 8003d9e:	0c5b      	lsrs	r3, r3, #17
 8003da0:	f003 0301 	and.w	r3, r3, #1
 8003da4:	4a11      	ldr	r2, [pc, #68]	@ (8003dec <HAL_RCC_GetSysClockFreq+0xa0>)
 8003da6:	5cd3      	ldrb	r3, [r2, r3]
 8003da8:	60bb      	str	r3, [r7, #8]
        {
          pllclk = pllclk / 2;
        }
#else
        /* HSE used as PLL clock source : PLLCLK = HSE/PREDIV1 * PLLMUL */
        pllclk = (uint32_t)((HSE_VALUE  * pllmul) / prediv);
 8003daa:	687b      	ldr	r3, [r7, #4]
 8003dac:	4a0d      	ldr	r2, [pc, #52]	@ (8003de4 <HAL_RCC_GetSysClockFreq+0x98>)
 8003dae:	fb03 f202 	mul.w	r2, r3, r2
 8003db2:	68bb      	ldr	r3, [r7, #8]
 8003db4:	fbb2 f3f3 	udiv	r3, r2, r3
 8003db8:	617b      	str	r3, [r7, #20]
 8003dba:	e004      	b.n	8003dc6 <HAL_RCC_GetSysClockFreq+0x7a>
#endif /*RCC_CFGR2_PREDIV1SRC*/
      }
      else
      {
        /* HSI used as PLL clock source : PLLCLK = HSI/2 * PLLMUL */
        pllclk = (uint32_t)((HSI_VALUE >> 1) * pllmul);
 8003dbc:	687b      	ldr	r3, [r7, #4]
 8003dbe:	4a0c      	ldr	r2, [pc, #48]	@ (8003df0 <HAL_RCC_GetSysClockFreq+0xa4>)
 8003dc0:	fb02 f303 	mul.w	r3, r2, r3
 8003dc4:	617b      	str	r3, [r7, #20]
      }
      sysclockfreq = pllclk;
 8003dc6:	697b      	ldr	r3, [r7, #20]
 8003dc8:	613b      	str	r3, [r7, #16]
      break;
 8003dca:	e002      	b.n	8003dd2 <HAL_RCC_GetSysClockFreq+0x86>
    }
    case RCC_SYSCLKSOURCE_STATUS_HSI:  /* HSI used as system clock source */
    default: /* HSI used as system clock */
    {
      sysclockfreq = HSI_VALUE;
 8003dcc:	4b05      	ldr	r3, [pc, #20]	@ (8003de4 <HAL_RCC_GetSysClockFreq+0x98>)
 8003dce:	613b      	str	r3, [r7, #16]
      break;
 8003dd0:	bf00      	nop
    }
  }
  return sysclockfreq;
 8003dd2:	693b      	ldr	r3, [r7, #16]
}
 8003dd4:	4618      	mov	r0, r3
 8003dd6:	371c      	adds	r7, #28
 8003dd8:	46bd      	mov	sp, r7
 8003dda:	bc80      	pop	{r7}
 8003ddc:	4770      	bx	lr
 8003dde:	bf00      	nop
 8003de0:	40021000 	.word	0x40021000
 8003de4:	007a1200 	.word	0x007a1200
 8003de8:	08007dd0 	.word	0x08007dd0
 8003dec:	08007de0 	.word	0x08007de0
 8003df0:	003d0900 	.word	0x003d0900

08003df4 <HAL_RCC_GetHCLKFreq>:
  * @note   The SystemCoreClock CMSIS variable is used to store System Clock Frequency
  *         and updated within this function
  * @retval HCLK frequency
  */
uint32_t HAL_RCC_GetHCLKFreq(void)
{
 8003df4:	b480      	push	{r7}
 8003df6:	af00      	add	r7, sp, #0
  return SystemCoreClock;
 8003df8:	4b02      	ldr	r3, [pc, #8]	@ (8003e04 <HAL_RCC_GetHCLKFreq+0x10>)
 8003dfa:	681b      	ldr	r3, [r3, #0]
}
 8003dfc:	4618      	mov	r0, r3
 8003dfe:	46bd      	mov	sp, r7
 8003e00:	bc80      	pop	{r7}
 8003e02:	4770      	bx	lr
 8003e04:	20000000 	.word	0x20000000

08003e08 <HAL_RCC_GetPCLK1Freq>:
  * @note   Each time PCLK1 changes, this function must be called to update the
  *         right PCLK1 value. Otherwise, any configuration based on this function will be incorrect.
  * @retval PCLK1 frequency
  */
uint32_t HAL_RCC_GetPCLK1Freq(void)
{
 8003e08:	b580      	push	{r7, lr}
 8003e0a:	af00      	add	r7, sp, #0
  /* Get HCLK source and Compute PCLK1 frequency ---------------------------*/
  return (HAL_RCC_GetHCLKFreq() >> APBPrescTable[(RCC->CFGR & RCC_CFGR_PPRE1) >> RCC_CFGR_PPRE1_Pos]);
 8003e0c:	f7ff fff2 	bl	8003df4 <HAL_RCC_GetHCLKFreq>
 8003e10:	4602      	mov	r2, r0
 8003e12:	4b05      	ldr	r3, [pc, #20]	@ (8003e28 <HAL_RCC_GetPCLK1Freq+0x20>)
 8003e14:	685b      	ldr	r3, [r3, #4]
 8003e16:	0a1b      	lsrs	r3, r3, #8
 8003e18:	f003 0307 	and.w	r3, r3, #7
 8003e1c:	4903      	ldr	r1, [pc, #12]	@ (8003e2c <HAL_RCC_GetPCLK1Freq+0x24>)
 8003e1e:	5ccb      	ldrb	r3, [r1, r3]
 8003e20:	fa22 f303 	lsr.w	r3, r2, r3
}
 8003e24:	4618      	mov	r0, r3
 8003e26:	bd80      	pop	{r7, pc}
 8003e28:	40021000 	.word	0x40021000
 8003e2c:	08007dc8 	.word	0x08007dc8

08003e30 <HAL_RCC_GetPCLK2Freq>:
  * @note   Each time PCLK2 changes, this function must be called to update the
  *         right PCLK2 value. Otherwise, any configuration based on this function will be incorrect.
  * @retval PCLK2 frequency
  */
uint32_t HAL_RCC_GetPCLK2Freq(void)
{
 8003e30:	b580      	push	{r7, lr}
 8003e32:	af00      	add	r7, sp, #0
  /* Get HCLK source and Compute PCLK2 frequency ---------------------------*/
  return (HAL_RCC_GetHCLKFreq() >> APBPrescTable[(RCC->CFGR & RCC_CFGR_PPRE2) >> RCC_CFGR_PPRE2_Pos]);
 8003e34:	f7ff ffde 	bl	8003df4 <HAL_RCC_GetHCLKFreq>
 8003e38:	4602      	mov	r2, r0
 8003e3a:	4b05      	ldr	r3, [pc, #20]	@ (8003e50 <HAL_RCC_GetPCLK2Freq+0x20>)
 8003e3c:	685b      	ldr	r3, [r3, #4]
 8003e3e:	0adb      	lsrs	r3, r3, #11
 8003e40:	f003 0307 	and.w	r3, r3, #7
 8003e44:	4903      	ldr	r1, [pc, #12]	@ (8003e54 <HAL_RCC_GetPCLK2Freq+0x24>)
 8003e46:	5ccb      	ldrb	r3, [r1, r3]
 8003e48:	fa22 f303 	lsr.w	r3, r2, r3
}
 8003e4c:	4618      	mov	r0, r3
 8003e4e:	bd80      	pop	{r7, pc}
 8003e50:	40021000 	.word	0x40021000
 8003e54:	08007dc8 	.word	0x08007dc8

08003e58 <HAL_RCC_NMI_IRQHandler>:
  * @brief This function handles the RCC CSS interrupt request.
  * @note This API should be called under the NMI_Handler().
  * @retval None
  */
void HAL_RCC_NMI_IRQHandler(void)
{
 8003e58:	b580      	push	{r7, lr}
 8003e5a:	af00      	add	r7, sp, #0
  /* Check RCC CSSF flag  */
  if (__HAL_RCC_GET_IT(RCC_IT_CSS))
 8003e5c:	4b06      	ldr	r3, [pc, #24]	@ (8003e78 <HAL_RCC_NMI_IRQHandler+0x20>)
 8003e5e:	689b      	ldr	r3, [r3, #8]
 8003e60:	f003 0380 	and.w	r3, r3, #128	@ 0x80
 8003e64:	2b80      	cmp	r3, #128	@ 0x80
 8003e66:	d104      	bne.n	8003e72 <HAL_RCC_NMI_IRQHandler+0x1a>
  {
    /* RCC Clock Security System interrupt user callback */
    HAL_RCC_CSSCallback();
 8003e68:	f000 f828 	bl	8003ebc <HAL_RCC_CSSCallback>

    /* Clear RCC CSS pending bit */
    __HAL_RCC_CLEAR_IT(RCC_IT_CSS);
 8003e6c:	4b03      	ldr	r3, [pc, #12]	@ (8003e7c <HAL_RCC_NMI_IRQHandler+0x24>)
 8003e6e:	2280      	movs	r2, #128	@ 0x80
 8003e70:	701a      	strb	r2, [r3, #0]
  }
}
 8003e72:	bf00      	nop
 8003e74:	bd80      	pop	{r7, pc}
 8003e76:	bf00      	nop
 8003e78:	40021000 	.word	0x40021000
 8003e7c:	4002100a 	.word	0x4002100a

08003e80 <RCC_Delay>:
  * @brief  This function provides delay (in milliseconds) based on CPU cycles method.
  * @param  mdelay: specifies the delay time length, in milliseconds.
  * @retval None
  */
static void RCC_Delay(uint32_t mdelay)
{
 8003e80:	b480      	push	{r7}
 8003e82:	b085      	sub	sp, #20
 8003e84:	af00      	add	r7, sp, #0
 8003e86:	6078      	str	r0, [r7, #4]
  __IO uint32_t Delay = mdelay * (SystemCoreClock / 8U / 1000U);
 8003e88:	4b0a      	ldr	r3, [pc, #40]	@ (8003eb4 <RCC_Delay+0x34>)
 8003e8a:	681b      	ldr	r3, [r3, #0]
 8003e8c:	4a0a      	ldr	r2, [pc, #40]	@ (8003eb8 <RCC_Delay+0x38>)
 8003e8e:	fba2 2303 	umull	r2, r3, r2, r3
 8003e92:	0a5b      	lsrs	r3, r3, #9
 8003e94:	687a      	ldr	r2, [r7, #4]
 8003e96:	fb02 f303 	mul.w	r3, r2, r3
 8003e9a:	60fb      	str	r3, [r7, #12]
  do
  {
    __NOP();
 8003e9c:	bf00      	nop
  }
  while (Delay --);
 8003e9e:	68fb      	ldr	r3, [r7, #12]
 8003ea0:	1e5a      	subs	r2, r3, #1
 8003ea2:	60fa      	str	r2, [r7, #12]
 8003ea4:	2b00      	cmp	r3, #0
 8003ea6:	d1f9      	bne.n	8003e9c <RCC_Delay+0x1c>
}
 8003ea8:	bf00      	nop
 8003eaa:	bf00      	nop
 8003eac:	3714      	adds	r7, #20
 8003eae:	46bd      	mov	sp, r7
 8003eb0:	bc80      	pop	{r7}
 8003eb2:	4770      	bx	lr
 8003eb4:	20000000 	.word	0x20000000
 8003eb8:	10624dd3 	.word	0x10624dd3

08003ebc <HAL_RCC_CSSCallback>:
/**
  * @brief  RCC Clock Security System interrupt callback
  * @retval none
  */
__weak void HAL_RCC_CSSCallback(void)
{
 8003ebc:	b480      	push	{r7}
 8003ebe:	af00      	add	r7, sp, #0
  /* NOTE : This function Should not be modified, when the callback is needed,
    the HAL_RCC_CSSCallback could be implemented in the user file
    */
}
 8003ec0:	bf00      	nop
 8003ec2:	46bd      	mov	sp, r7
 8003ec4:	bc80      	pop	{r7}
 8003ec6:	4770      	bx	lr

08003ec8 <HAL_RCCEx_PeriphCLKConfig>:
  *         manually disable it.
  *
  * @retval HAL status
  */
HAL_StatusTypeDef HAL_RCCEx_PeriphCLKConfig(RCC_PeriphCLKInitTypeDef  *PeriphClkInit)
{
 8003ec8:	b580      	push	{r7, lr}
 8003eca:	b086      	sub	sp, #24
 8003ecc:	af00      	add	r7, sp, #0
 8003ece:	6078      	str	r0, [r7, #4]
  uint32_t tickstart = 0U, temp_reg = 0U;
 8003ed0:	2300      	movs	r3, #0
 8003ed2:	613b      	str	r3, [r7, #16]
 8003ed4:	2300      	movs	r3, #0
 8003ed6:	60fb      	str	r3, [r7, #12]

  /* Check the parameters */
  assert_param(IS_RCC_PERIPHCLOCK(PeriphClkInit->PeriphClockSelection));

  /*------------------------------- RTC/LCD Configuration ------------------------*/
  if ((((PeriphClkInit->PeriphClockSelection) & RCC_PERIPHCLK_RTC) == RCC_PERIPHCLK_RTC))
 8003ed8:	687b      	ldr	r3, [r7, #4]
 8003eda:	681b      	ldr	r3, [r3, #0]
 8003edc:	f003 0301 	and.w	r3, r3, #1
 8003ee0:	2b00      	cmp	r3, #0
 8003ee2:	d07d      	beq.n	8003fe0 <HAL_RCCEx_PeriphCLKConfig+0x118>
  {
    FlagStatus pwrclkchanged = RESET;
 8003ee4:	2300      	movs	r3, #0
 8003ee6:	75fb      	strb	r3, [r7, #23]
    assert_param(IS_RCC_RTCCLKSOURCE(PeriphClkInit->RTCClockSelection));

    /* As soon as function is called to change RTC clock source, activation of the
       power domain is done. */
    /* Requires to enable write access to Backup Domain of necessary */
    if (__HAL_RCC_PWR_IS_CLK_DISABLED())
 8003ee8:	4b4f      	ldr	r3, [pc, #316]	@ (8004028 <HAL_RCCEx_PeriphCLKConfig+0x160>)
 8003eea:	69db      	ldr	r3, [r3, #28]
 8003eec:	f003 5380 	and.w	r3, r3, #268435456	@ 0x10000000
 8003ef0:	2b00      	cmp	r3, #0
 8003ef2:	d10d      	bne.n	8003f10 <HAL_RCCEx_PeriphCLKConfig+0x48>
    {
      __HAL_RCC_PWR_CLK_ENABLE();
 8003ef4:	4b4c      	ldr	r3, [pc, #304]	@ (8004028 <HAL_RCCEx_PeriphCLKConfig+0x160>)
 8003ef6:	69db      	ldr	r3, [r3, #28]
 8003ef8:	4a4b      	ldr	r2, [pc, #300]	@ (8004028 <HAL_RCCEx_PeriphCLKConfig+0x160>)
 8003efa:	f043 5380 	orr.w	r3, r3, #268435456	@ 0x10000000
 8003efe:	61d3      	str	r3, [r2, #28]
 8003f00:	4b49      	ldr	r3, [pc, #292]	@ (8004028 <HAL_RCCEx_PeriphCLKConfig+0x160>)
 8003f02:	69db      	ldr	r3, [r3, #28]
 8003f04:	f003 5380 	and.w	r3, r3, #268435456	@ 0x10000000
 8003f08:	60bb      	str	r3, [r7, #8]
 8003f0a:	68bb      	ldr	r3, [r7, #8]
      pwrclkchanged = SET;
 8003f0c:	2301      	movs	r3, #1
 8003f0e:	75fb      	strb	r3, [r7, #23]
    }

    if (HAL_IS_BIT_CLR(PWR->CR, PWR_CR_DBP))
 8003f10:	4b46      	ldr	r3, [pc, #280]	@ (800402c <HAL_RCCEx_PeriphCLKConfig+0x164>)
 8003f12:	681b      	ldr	r3, [r3, #0]
 8003f14:	f403 7380 	and.w	r3, r3, #256	@ 0x100
 8003f18:	2b00      	cmp	r3, #0
 8003f1a:	d118      	bne.n	8003f4e <HAL_RCCEx_PeriphCLKConfig+0x86>
    {
      /* Enable write access to Backup domain */
      SET_BIT(PWR->CR, PWR_CR_DBP);
 8003f1c:	4b43      	ldr	r3, [pc, #268]	@ (800402c <HAL_RCCEx_PeriphCLKConfig+0x164>)
 8003f1e:	681b      	ldr	r3, [r3, #0]
 8003f20:	4a42      	ldr	r2, [pc, #264]	@ (800402c <HAL_RCCEx_PeriphCLKConfig+0x164>)
 8003f22:	f443 7380 	orr.w	r3, r3, #256	@ 0x100
 8003f26:	6013      	str	r3, [r2, #0]

      /* Wait for Backup domain Write protection disable */
      tickstart = HAL_GetTick();
 8003f28:	f7fe f90c 	bl	8002144 <HAL_GetTick>
 8003f2c:	6138      	str	r0, [r7, #16]

      while (HAL_IS_BIT_CLR(PWR->CR, PWR_CR_DBP))
 8003f2e:	e008      	b.n	8003f42 <HAL_RCCEx_PeriphCLKConfig+0x7a>
      {
        if ((HAL_GetTick() - tickstart) > RCC_DBP_TIMEOUT_VALUE)
 8003f30:	f7fe f908 	bl	8002144 <HAL_GetTick>
 8003f34:	4602      	mov	r2, r0
 8003f36:	693b      	ldr	r3, [r7, #16]
 8003f38:	1ad3      	subs	r3, r2, r3
 8003f3a:	2b64      	cmp	r3, #100	@ 0x64
 8003f3c:	d901      	bls.n	8003f42 <HAL_RCCEx_PeriphCLKConfig+0x7a>
        {
          return HAL_TIMEOUT;
 8003f3e:	2303      	movs	r3, #3
 8003f40:	e06d      	b.n	800401e <HAL_RCCEx_PeriphCLKConfig+0x156>
      while (HAL_IS_BIT_CLR(PWR->CR, PWR_CR_DBP))
 8003f42:	4b3a      	ldr	r3, [pc, #232]	@ (800402c <HAL_RCCEx_PeriphCLKConfig+0x164>)
 8003f44:	681b      	ldr	r3, [r3, #0]
 8003f46:	f403 7380 	and.w	r3, r3, #256	@ 0x100
 8003f4a:	2b00      	cmp	r3, #0
 8003f4c:	d0f0      	beq.n	8003f30 <HAL_RCCEx_PeriphCLKConfig+0x68>
        }
      }
    }

    /* Reset the Backup domain only if the RTC Clock source selection is modified from reset value */
    temp_reg = (RCC->BDCR & RCC_BDCR_RTCSEL);
 8003f4e:	4b36      	ldr	r3, [pc, #216]	@ (8004028 <HAL_RCCEx_PeriphCLKConfig+0x160>)
 8003f50:	6a1b      	ldr	r3, [r3, #32]
 8003f52:	f403 7340 	and.w	r3, r3, #768	@ 0x300
 8003f56:	60fb      	str	r3, [r7, #12]
    if ((temp_reg != 0x00000000U) && (temp_reg != (PeriphClkInit->RTCClockSelection & RCC_BDCR_RTCSEL)))
 8003f58:	68fb      	ldr	r3, [r7, #12]
 8003f5a:	2b00      	cmp	r3, #0
 8003f5c:	d02e      	beq.n	8003fbc <HAL_RCCEx_PeriphCLKConfig+0xf4>
 8003f5e:	687b      	ldr	r3, [r7, #4]
 8003f60:	685b      	ldr	r3, [r3, #4]
 8003f62:	f403 7340 	and.w	r3, r3, #768	@ 0x300
 8003f66:	68fa      	ldr	r2, [r7, #12]
 8003f68:	429a      	cmp	r2, r3
 8003f6a:	d027      	beq.n	8003fbc <HAL_RCCEx_PeriphCLKConfig+0xf4>
    {
      /* Store the content of BDCR register before the reset of Backup Domain */
      temp_reg = (RCC->BDCR & ~(RCC_BDCR_RTCSEL));
 8003f6c:	4b2e      	ldr	r3, [pc, #184]	@ (8004028 <HAL_RCCEx_PeriphCLKConfig+0x160>)
 8003f6e:	6a1b      	ldr	r3, [r3, #32]
 8003f70:	f423 7340 	bic.w	r3, r3, #768	@ 0x300
 8003f74:	60fb      	str	r3, [r7, #12]
      /* RTC Clock selection can be changed only if the Backup Domain is reset */
      __HAL_RCC_BACKUPRESET_FORCE();
 8003f76:	4b2e      	ldr	r3, [pc, #184]	@ (8004030 <HAL_RCCEx_PeriphCLKConfig+0x168>)
 8003f78:	2201      	movs	r2, #1
 8003f7a:	601a      	str	r2, [r3, #0]
      __HAL_RCC_BACKUPRESET_RELEASE();
 8003f7c:	4b2c      	ldr	r3, [pc, #176]	@ (8004030 <HAL_RCCEx_PeriphCLKConfig+0x168>)
 8003f7e:	2200      	movs	r2, #0
 8003f80:	601a      	str	r2, [r3, #0]
      /* Restore the Content of BDCR register */
      RCC->BDCR = temp_reg;
 8003f82:	4a29      	ldr	r2, [pc, #164]	@ (8004028 <HAL_RCCEx_PeriphCLKConfig+0x160>)
 8003f84:	68fb      	ldr	r3, [r7, #12]
 8003f86:	6213      	str	r3, [r2, #32]

      /* Wait for LSERDY if LSE was enabled */
      if (HAL_IS_BIT_SET(temp_reg, RCC_BDCR_LSEON))
 8003f88:	68fb      	ldr	r3, [r7, #12]
 8003f8a:	f003 0301 	and.w	r3, r3, #1
 8003f8e:	2b00      	cmp	r3, #0
 8003f90:	d014      	beq.n	8003fbc <HAL_RCCEx_PeriphCLKConfig+0xf4>
      {
        /* Get Start Tick */
        tickstart = HAL_GetTick();
 8003f92:	f7fe f8d7 	bl	8002144 <HAL_GetTick>
 8003f96:	6138      	str	r0, [r7, #16]

        /* Wait till LSE is ready */
        while (__HAL_RCC_GET_FLAG(RCC_FLAG_LSERDY) == RESET)
 8003f98:	e00a      	b.n	8003fb0 <HAL_RCCEx_PeriphCLKConfig+0xe8>
        {
          if ((HAL_GetTick() - tickstart) > RCC_LSE_TIMEOUT_VALUE)
 8003f9a:	f7fe f8d3 	bl	8002144 <HAL_GetTick>
 8003f9e:	4602      	mov	r2, r0
 8003fa0:	693b      	ldr	r3, [r7, #16]
 8003fa2:	1ad3      	subs	r3, r2, r3
 8003fa4:	f241 3288 	movw	r2, #5000	@ 0x1388
 8003fa8:	4293      	cmp	r3, r2
 8003faa:	d901      	bls.n	8003fb0 <HAL_RCCEx_PeriphCLKConfig+0xe8>
          {
            return HAL_TIMEOUT;
 8003fac:	2303      	movs	r3, #3
 8003fae:	e036      	b.n	800401e <HAL_RCCEx_PeriphCLKConfig+0x156>
        while (__HAL_RCC_GET_FLAG(RCC_FLAG_LSERDY) == RESET)
 8003fb0:	4b1d      	ldr	r3, [pc, #116]	@ (8004028 <HAL_RCCEx_PeriphCLKConfig+0x160>)
 8003fb2:	6a1b      	ldr	r3, [r3, #32]
 8003fb4:	f003 0302 	and.w	r3, r3, #2
 8003fb8:	2b00      	cmp	r3, #0
 8003fba:	d0ee      	beq.n	8003f9a <HAL_RCCEx_PeriphCLKConfig+0xd2>
          }
        }
      }
    }
    __HAL_RCC_RTC_CONFIG(PeriphClkInit->RTCClockSelection);
 8003fbc:	4b1a      	ldr	r3, [pc, #104]	@ (8004028 <HAL_RCCEx_PeriphCLKConfig+0x160>)
 8003fbe:	6a1b      	ldr	r3, [r3, #32]
 8003fc0:	f423 7240 	bic.w	r2, r3, #768	@ 0x300
 8003fc4:	687b      	ldr	r3, [r7, #4]
 8003fc6:	685b      	ldr	r3, [r3, #4]
 8003fc8:	4917      	ldr	r1, [pc, #92]	@ (8004028 <HAL_RCCEx_PeriphCLKConfig+0x160>)
 8003fca:	4313      	orrs	r3, r2
 8003fcc:	620b      	str	r3, [r1, #32]

    /* Require to disable power clock if necessary */
    if (pwrclkchanged == SET)
 8003fce:	7dfb      	ldrb	r3, [r7, #23]
 8003fd0:	2b01      	cmp	r3, #1
 8003fd2:	d105      	bne.n	8003fe0 <HAL_RCCEx_PeriphCLKConfig+0x118>
    {
      __HAL_RCC_PWR_CLK_DISABLE();
 8003fd4:	4b14      	ldr	r3, [pc, #80]	@ (8004028 <HAL_RCCEx_PeriphCLKConfig+0x160>)
 8003fd6:	69db      	ldr	r3, [r3, #28]
 8003fd8:	4a13      	ldr	r2, [pc, #76]	@ (8004028 <HAL_RCCEx_PeriphCLKConfig+0x160>)
 8003fda:	f023 5380 	bic.w	r3, r3, #268435456	@ 0x10000000
 8003fde:	61d3      	str	r3, [r2, #28]
    }
  }

  /*------------------------------ ADC clock Configuration ------------------*/
  if (((PeriphClkInit->PeriphClockSelection) & RCC_PERIPHCLK_ADC) == RCC_PERIPHCLK_ADC)
 8003fe0:	687b      	ldr	r3, [r7, #4]
 8003fe2:	681b      	ldr	r3, [r3, #0]
 8003fe4:	f003 0302 	and.w	r3, r3, #2
 8003fe8:	2b00      	cmp	r3, #0
 8003fea:	d008      	beq.n	8003ffe <HAL_RCCEx_PeriphCLKConfig+0x136>
  {
    /* Check the parameters */
    assert_param(IS_RCC_ADCPLLCLK_DIV(PeriphClkInit->AdcClockSelection));

    /* Configure the ADC clock source */
    __HAL_RCC_ADC_CONFIG(PeriphClkInit->AdcClockSelection);
 8003fec:	4b0e      	ldr	r3, [pc, #56]	@ (8004028 <HAL_RCCEx_PeriphCLKConfig+0x160>)
 8003fee:	685b      	ldr	r3, [r3, #4]
 8003ff0:	f423 4240 	bic.w	r2, r3, #49152	@ 0xc000
 8003ff4:	687b      	ldr	r3, [r7, #4]
 8003ff6:	689b      	ldr	r3, [r3, #8]
 8003ff8:	490b      	ldr	r1, [pc, #44]	@ (8004028 <HAL_RCCEx_PeriphCLKConfig+0x160>)
 8003ffa:	4313      	orrs	r3, r2
 8003ffc:	604b      	str	r3, [r1, #4]

#if defined(STM32F102x6) || defined(STM32F102xB) || defined(STM32F103x6)\
 || defined(STM32F103xB) || defined(STM32F103xE) || defined(STM32F103xG)\
 || defined(STM32F105xC) || defined(STM32F107xC)
  /*------------------------------ USB clock Configuration ------------------*/
  if (((PeriphClkInit->PeriphClockSelection) & RCC_PERIPHCLK_USB) == RCC_PERIPHCLK_USB)
 8003ffe:	687b      	ldr	r3, [r7, #4]
 8004000:	681b      	ldr	r3, [r3, #0]
 8004002:	f003 0310 	and.w	r3, r3, #16
 8004006:	2b00      	cmp	r3, #0
 8004008:	d008      	beq.n	800401c <HAL_RCCEx_PeriphCLKConfig+0x154>
  {
    /* Check the parameters */
    assert_param(IS_RCC_USBPLLCLK_DIV(PeriphClkInit->UsbClockSelection));

    /* Configure the USB clock source */
    __HAL_RCC_USB_CONFIG(PeriphClkInit->UsbClockSelection);
 800400a:	4b07      	ldr	r3, [pc, #28]	@ (8004028 <HAL_RCCEx_PeriphCLKConfig+0x160>)
 800400c:	685b      	ldr	r3, [r3, #4]
 800400e:	f423 0280 	bic.w	r2, r3, #4194304	@ 0x400000
 8004012:	687b      	ldr	r3, [r7, #4]
 8004014:	68db      	ldr	r3, [r3, #12]
 8004016:	4904      	ldr	r1, [pc, #16]	@ (8004028 <HAL_RCCEx_PeriphCLKConfig+0x160>)
 8004018:	4313      	orrs	r3, r2
 800401a:	604b      	str	r3, [r1, #4]
  }
#endif /* STM32F102x6 || STM32F102xB || STM32F103x6 || STM32F103xB || STM32F103xE || STM32F103xG || STM32F105xC || STM32F107xC */

  return HAL_OK;
 800401c:	2300      	movs	r3, #0
}
 800401e:	4618      	mov	r0, r3
 8004020:	3718      	adds	r7, #24
 8004022:	46bd      	mov	sp, r7
 8004024:	bd80      	pop	{r7, pc}
 8004026:	bf00      	nop
 8004028:	40021000 	.word	0x40021000
 800402c:	40007000 	.word	0x40007000
 8004030:	42420440 	.word	0x42420440

08004034 <HAL_RCCEx_GetPeriphCLKFreq>:
  *            @arg @ref RCC_PERIPHCLK_USB  USB peripheral clock
  @endif
  * @retval Frequency in Hz (0: means that no available frequency for the peripheral)
  */
uint32_t HAL_RCCEx_GetPeriphCLKFreq(uint32_t PeriphClk)
{
 8004034:	b580      	push	{r7, lr}
 8004036:	b088      	sub	sp, #32
 8004038:	af00      	add	r7, sp, #0
 800403a:	6078      	str	r0, [r7, #4]
#if defined(STM32F102x6) || defined(STM32F102xB) || defined(STM32F103x6) || \
    defined(STM32F103xB) || defined(STM32F103xE) || defined(STM32F103xG)
  static const uint8_t aPLLMULFactorTable[16U] = {2, 3, 4, 5, 6, 7, 8, 9, 10, 11, 12, 13, 14, 15, 16, 16};
  static const uint8_t aPredivFactorTable[2U] = {1, 2};

  uint32_t prediv1 = 0U, pllclk = 0U, pllmul = 0U;
 800403c:	2300      	movs	r3, #0
 800403e:	617b      	str	r3, [r7, #20]
 8004040:	2300      	movs	r3, #0
 8004042:	61fb      	str	r3, [r7, #28]
 8004044:	2300      	movs	r3, #0
 8004046:	613b      	str	r3, [r7, #16]
#endif /* STM32F102x6 || STM32F102xB || STM32F103x6 || STM32F103xB || STM32F103xE || STM32F103xG */
  uint32_t temp_reg = 0U, frequency = 0U;
 8004048:	2300      	movs	r3, #0
 800404a:	60fb      	str	r3, [r7, #12]
 800404c:	2300      	movs	r3, #0
 800404e:	61bb      	str	r3, [r7, #24]

  /* Check the parameters */
  assert_param(IS_RCC_PERIPHCLOCK(PeriphClk));

  switch (PeriphClk)
 8004050:	687b      	ldr	r3, [r7, #4]
 8004052:	2b10      	cmp	r3, #16
 8004054:	d00a      	beq.n	800406c <HAL_RCCEx_GetPeriphCLKFreq+0x38>
 8004056:	687b      	ldr	r3, [r7, #4]
 8004058:	2b10      	cmp	r3, #16
 800405a:	f200 808a 	bhi.w	8004172 <HAL_RCCEx_GetPeriphCLKFreq+0x13e>
 800405e:	687b      	ldr	r3, [r7, #4]
 8004060:	2b01      	cmp	r3, #1
 8004062:	d045      	beq.n	80040f0 <HAL_RCCEx_GetPeriphCLKFreq+0xbc>
 8004064:	687b      	ldr	r3, [r7, #4]
 8004066:	2b02      	cmp	r3, #2
 8004068:	d075      	beq.n	8004156 <HAL_RCCEx_GetPeriphCLKFreq+0x122>
      frequency = HAL_RCC_GetPCLK2Freq() / (((__HAL_RCC_GET_ADC_SOURCE() >> RCC_CFGR_ADCPRE_Pos) + 1) * 2);
      break;
    }
    default:
    {
      break;
 800406a:	e082      	b.n	8004172 <HAL_RCCEx_GetPeriphCLKFreq+0x13e>
      temp_reg = RCC->CFGR;
 800406c:	4b46      	ldr	r3, [pc, #280]	@ (8004188 <HAL_RCCEx_GetPeriphCLKFreq+0x154>)
 800406e:	685b      	ldr	r3, [r3, #4]
 8004070:	60fb      	str	r3, [r7, #12]
      if (HAL_IS_BIT_SET(RCC->CR, RCC_CR_PLLON))
 8004072:	4b45      	ldr	r3, [pc, #276]	@ (8004188 <HAL_RCCEx_GetPeriphCLKFreq+0x154>)
 8004074:	681b      	ldr	r3, [r3, #0]
 8004076:	f003 7380 	and.w	r3, r3, #16777216	@ 0x1000000
 800407a:	2b00      	cmp	r3, #0
 800407c:	d07b      	beq.n	8004176 <HAL_RCCEx_GetPeriphCLKFreq+0x142>
        pllmul = aPLLMULFactorTable[(uint32_t)(temp_reg & RCC_CFGR_PLLMULL) >> RCC_CFGR_PLLMULL_Pos];
 800407e:	68fb      	ldr	r3, [r7, #12]
 8004080:	0c9b      	lsrs	r3, r3, #18
 8004082:	f003 030f 	and.w	r3, r3, #15
 8004086:	4a41      	ldr	r2, [pc, #260]	@ (800418c <HAL_RCCEx_GetPeriphCLKFreq+0x158>)
 8004088:	5cd3      	ldrb	r3, [r2, r3]
 800408a:	613b      	str	r3, [r7, #16]
        if ((temp_reg & RCC_CFGR_PLLSRC) != RCC_PLLSOURCE_HSI_DIV2)
 800408c:	68fb      	ldr	r3, [r7, #12]
 800408e:	f403 3380 	and.w	r3, r3, #65536	@ 0x10000
 8004092:	2b00      	cmp	r3, #0
 8004094:	d015      	beq.n	80040c2 <HAL_RCCEx_GetPeriphCLKFreq+0x8e>
          prediv1 = aPredivFactorTable[(uint32_t)(RCC->CFGR & RCC_CFGR_PLLXTPRE) >> RCC_CFGR_PLLXTPRE_Pos];
 8004096:	4b3c      	ldr	r3, [pc, #240]	@ (8004188 <HAL_RCCEx_GetPeriphCLKFreq+0x154>)
 8004098:	685b      	ldr	r3, [r3, #4]
 800409a:	0c5b      	lsrs	r3, r3, #17
 800409c:	f003 0301 	and.w	r3, r3, #1
 80040a0:	4a3b      	ldr	r2, [pc, #236]	@ (8004190 <HAL_RCCEx_GetPeriphCLKFreq+0x15c>)
 80040a2:	5cd3      	ldrb	r3, [r2, r3]
 80040a4:	617b      	str	r3, [r7, #20]
          if ((temp_reg & RCC_CFGR_PLLSRC) != RCC_PLLSOURCE_HSI_DIV2)
 80040a6:	68fb      	ldr	r3, [r7, #12]
 80040a8:	f403 3380 	and.w	r3, r3, #65536	@ 0x10000
 80040ac:	2b00      	cmp	r3, #0
 80040ae:	d00d      	beq.n	80040cc <HAL_RCCEx_GetPeriphCLKFreq+0x98>
            pllclk = (uint32_t)((HSE_VALUE / prediv1) * pllmul);
 80040b0:	4a38      	ldr	r2, [pc, #224]	@ (8004194 <HAL_RCCEx_GetPeriphCLKFreq+0x160>)
 80040b2:	697b      	ldr	r3, [r7, #20]
 80040b4:	fbb2 f2f3 	udiv	r2, r2, r3
 80040b8:	693b      	ldr	r3, [r7, #16]
 80040ba:	fb02 f303 	mul.w	r3, r2, r3
 80040be:	61fb      	str	r3, [r7, #28]
 80040c0:	e004      	b.n	80040cc <HAL_RCCEx_GetPeriphCLKFreq+0x98>
          pllclk = (uint32_t)((HSI_VALUE >> 1) * pllmul);
 80040c2:	693b      	ldr	r3, [r7, #16]
 80040c4:	4a34      	ldr	r2, [pc, #208]	@ (8004198 <HAL_RCCEx_GetPeriphCLKFreq+0x164>)
 80040c6:	fb02 f303 	mul.w	r3, r2, r3
 80040ca:	61fb      	str	r3, [r7, #28]
        if (__HAL_RCC_GET_USB_SOURCE() == RCC_USBCLKSOURCE_PLL)
 80040cc:	4b2e      	ldr	r3, [pc, #184]	@ (8004188 <HAL_RCCEx_GetPeriphCLKFreq+0x154>)
 80040ce:	685b      	ldr	r3, [r3, #4]
 80040d0:	f403 0380 	and.w	r3, r3, #4194304	@ 0x400000
 80040d4:	f5b3 0f80 	cmp.w	r3, #4194304	@ 0x400000
 80040d8:	d102      	bne.n	80040e0 <HAL_RCCEx_GetPeriphCLKFreq+0xac>
          frequency = pllclk;
 80040da:	69fb      	ldr	r3, [r7, #28]
 80040dc:	61bb      	str	r3, [r7, #24]
      break;
 80040de:	e04a      	b.n	8004176 <HAL_RCCEx_GetPeriphCLKFreq+0x142>
          frequency = (pllclk * 2) / 3;
 80040e0:	69fb      	ldr	r3, [r7, #28]
 80040e2:	005b      	lsls	r3, r3, #1
 80040e4:	4a2d      	ldr	r2, [pc, #180]	@ (800419c <HAL_RCCEx_GetPeriphCLKFreq+0x168>)
 80040e6:	fba2 2303 	umull	r2, r3, r2, r3
 80040ea:	085b      	lsrs	r3, r3, #1
 80040ec:	61bb      	str	r3, [r7, #24]
      break;
 80040ee:	e042      	b.n	8004176 <HAL_RCCEx_GetPeriphCLKFreq+0x142>
      temp_reg = RCC->BDCR;
 80040f0:	4b25      	ldr	r3, [pc, #148]	@ (8004188 <HAL_RCCEx_GetPeriphCLKFreq+0x154>)
 80040f2:	6a1b      	ldr	r3, [r3, #32]
 80040f4:	60fb      	str	r3, [r7, #12]
      if (((temp_reg & RCC_BDCR_RTCSEL) == RCC_RTCCLKSOURCE_LSE) && (HAL_IS_BIT_SET(temp_reg, RCC_BDCR_LSERDY)))
 80040f6:	68fb      	ldr	r3, [r7, #12]
 80040f8:	f403 7340 	and.w	r3, r3, #768	@ 0x300
 80040fc:	f5b3 7f80 	cmp.w	r3, #256	@ 0x100
 8004100:	d108      	bne.n	8004114 <HAL_RCCEx_GetPeriphCLKFreq+0xe0>
 8004102:	68fb      	ldr	r3, [r7, #12]
 8004104:	f003 0302 	and.w	r3, r3, #2
 8004108:	2b00      	cmp	r3, #0
 800410a:	d003      	beq.n	8004114 <HAL_RCCEx_GetPeriphCLKFreq+0xe0>
        frequency = LSE_VALUE;
 800410c:	f44f 4300 	mov.w	r3, #32768	@ 0x8000
 8004110:	61bb      	str	r3, [r7, #24]
 8004112:	e01f      	b.n	8004154 <HAL_RCCEx_GetPeriphCLKFreq+0x120>
      else if (((temp_reg & RCC_BDCR_RTCSEL) == RCC_RTCCLKSOURCE_LSI) && (HAL_IS_BIT_SET(RCC->CSR, RCC_CSR_LSIRDY)))
 8004114:	68fb      	ldr	r3, [r7, #12]
 8004116:	f403 7340 	and.w	r3, r3, #768	@ 0x300
 800411a:	f5b3 7f00 	cmp.w	r3, #512	@ 0x200
 800411e:	d109      	bne.n	8004134 <HAL_RCCEx_GetPeriphCLKFreq+0x100>
 8004120:	4b19      	ldr	r3, [pc, #100]	@ (8004188 <HAL_RCCEx_GetPeriphCLKFreq+0x154>)
 8004122:	6a5b      	ldr	r3, [r3, #36]	@ 0x24
 8004124:	f003 0302 	and.w	r3, r3, #2
 8004128:	2b00      	cmp	r3, #0
 800412a:	d003      	beq.n	8004134 <HAL_RCCEx_GetPeriphCLKFreq+0x100>
        frequency = LSI_VALUE;
 800412c:	f649 4340 	movw	r3, #40000	@ 0x9c40
 8004130:	61bb      	str	r3, [r7, #24]
 8004132:	e00f      	b.n	8004154 <HAL_RCCEx_GetPeriphCLKFreq+0x120>
      else if (((temp_reg & RCC_BDCR_RTCSEL) == RCC_RTCCLKSOURCE_HSE_DIV128) && (HAL_IS_BIT_SET(RCC->CR, RCC_CR_HSERDY)))
 8004134:	68fb      	ldr	r3, [r7, #12]
 8004136:	f403 7340 	and.w	r3, r3, #768	@ 0x300
 800413a:	f5b3 7f40 	cmp.w	r3, #768	@ 0x300
 800413e:	d11c      	bne.n	800417a <HAL_RCCEx_GetPeriphCLKFreq+0x146>
 8004140:	4b11      	ldr	r3, [pc, #68]	@ (8004188 <HAL_RCCEx_GetPeriphCLKFreq+0x154>)
 8004142:	681b      	ldr	r3, [r3, #0]
 8004144:	f403 3300 	and.w	r3, r3, #131072	@ 0x20000
 8004148:	2b00      	cmp	r3, #0
 800414a:	d016      	beq.n	800417a <HAL_RCCEx_GetPeriphCLKFreq+0x146>
        frequency = HSE_VALUE / 128U;
 800414c:	f24f 4324 	movw	r3, #62500	@ 0xf424
 8004150:	61bb      	str	r3, [r7, #24]
      break;
 8004152:	e012      	b.n	800417a <HAL_RCCEx_GetPeriphCLKFreq+0x146>
 8004154:	e011      	b.n	800417a <HAL_RCCEx_GetPeriphCLKFreq+0x146>
      frequency = HAL_RCC_GetPCLK2Freq() / (((__HAL_RCC_GET_ADC_SOURCE() >> RCC_CFGR_ADCPRE_Pos) + 1) * 2);
 8004156:	f7ff fe6b 	bl	8003e30 <HAL_RCC_GetPCLK2Freq>
 800415a:	4602      	mov	r2, r0
 800415c:	4b0a      	ldr	r3, [pc, #40]	@ (8004188 <HAL_RCCEx_GetPeriphCLKFreq+0x154>)
 800415e:	685b      	ldr	r3, [r3, #4]
 8004160:	0b9b      	lsrs	r3, r3, #14
 8004162:	f003 0303 	and.w	r3, r3, #3
 8004166:	3301      	adds	r3, #1
 8004168:	005b      	lsls	r3, r3, #1
 800416a:	fbb2 f3f3 	udiv	r3, r2, r3
 800416e:	61bb      	str	r3, [r7, #24]
      break;
 8004170:	e004      	b.n	800417c <HAL_RCCEx_GetPeriphCLKFreq+0x148>
      break;
 8004172:	bf00      	nop
 8004174:	e002      	b.n	800417c <HAL_RCCEx_GetPeriphCLKFreq+0x148>
      break;
 8004176:	bf00      	nop
 8004178:	e000      	b.n	800417c <HAL_RCCEx_GetPeriphCLKFreq+0x148>
      break;
 800417a:	bf00      	nop
    }
  }
  return (frequency);
 800417c:	69bb      	ldr	r3, [r7, #24]
}
 800417e:	4618      	mov	r0, r3
 8004180:	3720      	adds	r7, #32
 8004182:	46bd      	mov	sp, r7
 8004184:	bd80      	pop	{r7, pc}
 8004186:	bf00      	nop
 8004188:	40021000 	.word	0x40021000
 800418c:	08007de4 	.word	0x08007de4
 8004190:	08007df4 	.word	0x08007df4
 8004194:	007a1200 	.word	0x007a1200
 8004198:	003d0900 	.word	0x003d0900
 800419c:	aaaaaaab 	.word	0xaaaaaaab

080041a0 <HAL_SPI_Init>:
  * @param  hspi pointer to a SPI_HandleTypeDef structure that contains
  *               the configuration information for SPI module.
  * @retval HAL status
  */
HAL_StatusTypeDef HAL_SPI_Init(SPI_HandleTypeDef *hspi)
{
 80041a0:	b580      	push	{r7, lr}
 80041a2:	b082      	sub	sp, #8
 80041a4:	af00      	add	r7, sp, #0
 80041a6:	6078      	str	r0, [r7, #4]
  /* Check the SPI handle allocation */
  if (hspi == NULL)
 80041a8:	687b      	ldr	r3, [r7, #4]
 80041aa:	2b00      	cmp	r3, #0
 80041ac:	d101      	bne.n	80041b2 <HAL_SPI_Init+0x12>
  {
    return HAL_ERROR;
 80041ae:	2301      	movs	r3, #1
 80041b0:	e076      	b.n	80042a0 <HAL_SPI_Init+0x100>
  assert_param(IS_SPI_BAUDRATE_PRESCALER(hspi->Init.BaudRatePrescaler));
  assert_param(IS_SPI_FIRST_BIT(hspi->Init.FirstBit));
  /* TI mode is not supported on this device.
     TIMode parameter is mandatory equal to SPI_TIMODE_DISABLE */
  assert_param(IS_SPI_TIMODE(hspi->Init.TIMode));
  if (hspi->Init.TIMode == SPI_TIMODE_DISABLE)
 80041b2:	687b      	ldr	r3, [r7, #4]
 80041b4:	6a5b      	ldr	r3, [r3, #36]	@ 0x24
 80041b6:	2b00      	cmp	r3, #0
 80041b8:	d108      	bne.n	80041cc <HAL_SPI_Init+0x2c>
  {
    assert_param(IS_SPI_CPOL(hspi->Init.CLKPolarity));
    assert_param(IS_SPI_CPHA(hspi->Init.CLKPhase));

    if (hspi->Init.Mode == SPI_MODE_MASTER)
 80041ba:	687b      	ldr	r3, [r7, #4]
 80041bc:	685b      	ldr	r3, [r3, #4]
 80041be:	f5b3 7f82 	cmp.w	r3, #260	@ 0x104
 80041c2:	d009      	beq.n	80041d8 <HAL_SPI_Init+0x38>
      assert_param(IS_SPI_BAUDRATE_PRESCALER(hspi->Init.BaudRatePrescaler));
    }
    else
    {
      /* Baudrate prescaler not use in Motoraola Slave mode. force to default value */
      hspi->Init.BaudRatePrescaler = SPI_BAUDRATEPRESCALER_2;
 80041c4:	687b      	ldr	r3, [r7, #4]
 80041c6:	2200      	movs	r2, #0
 80041c8:	61da      	str	r2, [r3, #28]
 80041ca:	e005      	b.n	80041d8 <HAL_SPI_Init+0x38>
  else
  {
    assert_param(IS_SPI_BAUDRATE_PRESCALER(hspi->Init.BaudRatePrescaler));

    /* Force polarity and phase to TI protocaol requirements */
    hspi->Init.CLKPolarity = SPI_POLARITY_LOW;
 80041cc:	687b      	ldr	r3, [r7, #4]
 80041ce:	2200      	movs	r2, #0
 80041d0:	611a      	str	r2, [r3, #16]
    hspi->Init.CLKPhase    = SPI_PHASE_1EDGE;
 80041d2:	687b      	ldr	r3, [r7, #4]
 80041d4:	2200      	movs	r2, #0
 80041d6:	615a      	str	r2, [r3, #20]
  if (hspi->Init.CRCCalculation == SPI_CRCCALCULATION_ENABLE)
  {
    assert_param(IS_SPI_CRC_POLYNOMIAL(hspi->Init.CRCPolynomial));
  }
#else
  hspi->Init.CRCCalculation = SPI_CRCCALCULATION_DISABLE;
 80041d8:	687b      	ldr	r3, [r7, #4]
 80041da:	2200      	movs	r2, #0
 80041dc:	629a      	str	r2, [r3, #40]	@ 0x28
#endif /* USE_SPI_CRC */

  if (hspi->State == HAL_SPI_STATE_RESET)
 80041de:	687b      	ldr	r3, [r7, #4]
 80041e0:	f893 3051 	ldrb.w	r3, [r3, #81]	@ 0x51
 80041e4:	b2db      	uxtb	r3, r3
 80041e6:	2b00      	cmp	r3, #0
 80041e8:	d106      	bne.n	80041f8 <HAL_SPI_Init+0x58>
  {
    /* Allocate lock resource and initialize it */
    hspi->Lock = HAL_UNLOCKED;
 80041ea:	687b      	ldr	r3, [r7, #4]
 80041ec:	2200      	movs	r2, #0
 80041ee:	f883 2050 	strb.w	r2, [r3, #80]	@ 0x50

    /* Init the low level hardware : GPIO, CLOCK, NVIC... */
    hspi->MspInitCallback(hspi);
#else
    /* Init the low level hardware : GPIO, CLOCK, NVIC... */
    HAL_SPI_MspInit(hspi);
 80041f2:	6878      	ldr	r0, [r7, #4]
 80041f4:	f7fd fe16 	bl	8001e24 <HAL_SPI_MspInit>
#endif /* USE_HAL_SPI_REGISTER_CALLBACKS */
  }

  hspi->State = HAL_SPI_STATE_BUSY;
 80041f8:	687b      	ldr	r3, [r7, #4]
 80041fa:	2202      	movs	r2, #2
 80041fc:	f883 2051 	strb.w	r2, [r3, #81]	@ 0x51

  /* Disable the selected SPI peripheral */
  __HAL_SPI_DISABLE(hspi);
 8004200:	687b      	ldr	r3, [r7, #4]
 8004202:	681b      	ldr	r3, [r3, #0]
 8004204:	681a      	ldr	r2, [r3, #0]
 8004206:	687b      	ldr	r3, [r7, #4]
 8004208:	681b      	ldr	r3, [r3, #0]
 800420a:	f022 0240 	bic.w	r2, r2, #64	@ 0x40
 800420e:	601a      	str	r2, [r3, #0]

  /*----------------------- SPIx CR1 & CR2 Configuration ---------------------*/
  /* Configure : SPI Mode, Communication Mode, Data size, Clock polarity and phase, NSS management,
  Communication speed, First bit and CRC calculation state */
  WRITE_REG(hspi->Instance->CR1, ((hspi->Init.Mode & (SPI_CR1_MSTR | SPI_CR1_SSI)) |
 8004210:	687b      	ldr	r3, [r7, #4]
 8004212:	685b      	ldr	r3, [r3, #4]
 8004214:	f403 7282 	and.w	r2, r3, #260	@ 0x104
 8004218:	687b      	ldr	r3, [r7, #4]
 800421a:	689b      	ldr	r3, [r3, #8]
 800421c:	f403 4304 	and.w	r3, r3, #33792	@ 0x8400
 8004220:	431a      	orrs	r2, r3
 8004222:	687b      	ldr	r3, [r7, #4]
 8004224:	68db      	ldr	r3, [r3, #12]
 8004226:	f403 6300 	and.w	r3, r3, #2048	@ 0x800
 800422a:	431a      	orrs	r2, r3
 800422c:	687b      	ldr	r3, [r7, #4]
 800422e:	691b      	ldr	r3, [r3, #16]
 8004230:	f003 0302 	and.w	r3, r3, #2
 8004234:	431a      	orrs	r2, r3
 8004236:	687b      	ldr	r3, [r7, #4]
 8004238:	695b      	ldr	r3, [r3, #20]
 800423a:	f003 0301 	and.w	r3, r3, #1
 800423e:	431a      	orrs	r2, r3
 8004240:	687b      	ldr	r3, [r7, #4]
 8004242:	699b      	ldr	r3, [r3, #24]
 8004244:	f403 7300 	and.w	r3, r3, #512	@ 0x200
 8004248:	431a      	orrs	r2, r3
 800424a:	687b      	ldr	r3, [r7, #4]
 800424c:	69db      	ldr	r3, [r3, #28]
 800424e:	f003 0338 	and.w	r3, r3, #56	@ 0x38
 8004252:	431a      	orrs	r2, r3
 8004254:	687b      	ldr	r3, [r7, #4]
 8004256:	6a1b      	ldr	r3, [r3, #32]
 8004258:	f003 0380 	and.w	r3, r3, #128	@ 0x80
 800425c:	ea42 0103 	orr.w	r1, r2, r3
 8004260:	687b      	ldr	r3, [r7, #4]
 8004262:	6a9b      	ldr	r3, [r3, #40]	@ 0x28
 8004264:	f403 5200 	and.w	r2, r3, #8192	@ 0x2000
 8004268:	687b      	ldr	r3, [r7, #4]
 800426a:	681b      	ldr	r3, [r3, #0]
 800426c:	430a      	orrs	r2, r1
 800426e:	601a      	str	r2, [r3, #0]
                                  (hspi->Init.BaudRatePrescaler & SPI_CR1_BR_Msk) |
                                  (hspi->Init.FirstBit  & SPI_CR1_LSBFIRST) |
                                  (hspi->Init.CRCCalculation & SPI_CR1_CRCEN)));

  /* Configure : NSS management */
  WRITE_REG(hspi->Instance->CR2, ((hspi->Init.NSS >> 16U) & SPI_CR2_SSOE));
 8004270:	687b      	ldr	r3, [r7, #4]
 8004272:	699b      	ldr	r3, [r3, #24]
 8004274:	0c1a      	lsrs	r2, r3, #16
 8004276:	687b      	ldr	r3, [r7, #4]
 8004278:	681b      	ldr	r3, [r3, #0]
 800427a:	f002 0204 	and.w	r2, r2, #4
 800427e:	605a      	str	r2, [r3, #4]
  }
#endif /* USE_SPI_CRC */

#if defined(SPI_I2SCFGR_I2SMOD)
  /* Activate the SPI mode (Make sure that I2SMOD bit in I2SCFGR register is reset) */
  CLEAR_BIT(hspi->Instance->I2SCFGR, SPI_I2SCFGR_I2SMOD);
 8004280:	687b      	ldr	r3, [r7, #4]
 8004282:	681b      	ldr	r3, [r3, #0]
 8004284:	69da      	ldr	r2, [r3, #28]
 8004286:	687b      	ldr	r3, [r7, #4]
 8004288:	681b      	ldr	r3, [r3, #0]
 800428a:	f422 6200 	bic.w	r2, r2, #2048	@ 0x800
 800428e:	61da      	str	r2, [r3, #28]
#endif /* SPI_I2SCFGR_I2SMOD */

  hspi->ErrorCode = HAL_SPI_ERROR_NONE;
 8004290:	687b      	ldr	r3, [r7, #4]
 8004292:	2200      	movs	r2, #0
 8004294:	655a      	str	r2, [r3, #84]	@ 0x54
  hspi->State     = HAL_SPI_STATE_READY;
 8004296:	687b      	ldr	r3, [r7, #4]
 8004298:	2201      	movs	r2, #1
 800429a:	f883 2051 	strb.w	r2, [r3, #81]	@ 0x51

  return HAL_OK;
 800429e:	2300      	movs	r3, #0
}
 80042a0:	4618      	mov	r0, r3
 80042a2:	3708      	adds	r7, #8
 80042a4:	46bd      	mov	sp, r7
 80042a6:	bd80      	pop	{r7, pc}

080042a8 <HAL_SPI_Transmit>:
  * @param  Size amount of data to be sent
  * @param  Timeout Timeout duration
  * @retval HAL status
  */
HAL_StatusTypeDef HAL_SPI_Transmit(SPI_HandleTypeDef *hspi, const uint8_t *pData, uint16_t Size, uint32_t Timeout)
{
 80042a8:	b580      	push	{r7, lr}
 80042aa:	b088      	sub	sp, #32
 80042ac:	af00      	add	r7, sp, #0
 80042ae:	60f8      	str	r0, [r7, #12]
 80042b0:	60b9      	str	r1, [r7, #8]
 80042b2:	603b      	str	r3, [r7, #0]
 80042b4:	4613      	mov	r3, r2
 80042b6:	80fb      	strh	r3, [r7, #6]

  /* Check Direction parameter */
  assert_param(IS_SPI_DIRECTION_2LINES_OR_1LINE(hspi->Init.Direction));

  /* Init tickstart for timeout management*/
  tickstart = HAL_GetTick();
 80042b8:	f7fd ff44 	bl	8002144 <HAL_GetTick>
 80042bc:	61f8      	str	r0, [r7, #28]
  initial_TxXferCount = Size;
 80042be:	88fb      	ldrh	r3, [r7, #6]
 80042c0:	837b      	strh	r3, [r7, #26]

  if (hspi->State != HAL_SPI_STATE_READY)
 80042c2:	68fb      	ldr	r3, [r7, #12]
 80042c4:	f893 3051 	ldrb.w	r3, [r3, #81]	@ 0x51
 80042c8:	b2db      	uxtb	r3, r3
 80042ca:	2b01      	cmp	r3, #1
 80042cc:	d001      	beq.n	80042d2 <HAL_SPI_Transmit+0x2a>
  {
    return HAL_BUSY;
 80042ce:	2302      	movs	r3, #2
 80042d0:	e12a      	b.n	8004528 <HAL_SPI_Transmit+0x280>
  }

  if ((pData == NULL) || (Size == 0U))
 80042d2:	68bb      	ldr	r3, [r7, #8]
 80042d4:	2b00      	cmp	r3, #0
 80042d6:	d002      	beq.n	80042de <HAL_SPI_Transmit+0x36>
 80042d8:	88fb      	ldrh	r3, [r7, #6]
 80042da:	2b00      	cmp	r3, #0
 80042dc:	d101      	bne.n	80042e2 <HAL_SPI_Transmit+0x3a>
  {
    return HAL_ERROR;
 80042de:	2301      	movs	r3, #1
 80042e0:	e122      	b.n	8004528 <HAL_SPI_Transmit+0x280>
  }

  /* Process Locked */
  __HAL_LOCK(hspi);
 80042e2:	68fb      	ldr	r3, [r7, #12]
 80042e4:	f893 3050 	ldrb.w	r3, [r3, #80]	@ 0x50
 80042e8:	2b01      	cmp	r3, #1
 80042ea:	d101      	bne.n	80042f0 <HAL_SPI_Transmit+0x48>
 80042ec:	2302      	movs	r3, #2
 80042ee:	e11b      	b.n	8004528 <HAL_SPI_Transmit+0x280>
 80042f0:	68fb      	ldr	r3, [r7, #12]
 80042f2:	2201      	movs	r2, #1
 80042f4:	f883 2050 	strb.w	r2, [r3, #80]	@ 0x50

  /* Set the transaction information */
  hspi->State       = HAL_SPI_STATE_BUSY_TX;
 80042f8:	68fb      	ldr	r3, [r7, #12]
 80042fa:	2203      	movs	r2, #3
 80042fc:	f883 2051 	strb.w	r2, [r3, #81]	@ 0x51
  hspi->ErrorCode   = HAL_SPI_ERROR_NONE;
 8004300:	68fb      	ldr	r3, [r7, #12]
 8004302:	2200      	movs	r2, #0
 8004304:	655a      	str	r2, [r3, #84]	@ 0x54
  hspi->pTxBuffPtr  = (const uint8_t *)pData;
 8004306:	68fb      	ldr	r3, [r7, #12]
 8004308:	68ba      	ldr	r2, [r7, #8]
 800430a:	631a      	str	r2, [r3, #48]	@ 0x30
  hspi->TxXferSize  = Size;
 800430c:	68fb      	ldr	r3, [r7, #12]
 800430e:	88fa      	ldrh	r2, [r7, #6]
 8004310:	869a      	strh	r2, [r3, #52]	@ 0x34
  hspi->TxXferCount = Size;
 8004312:	68fb      	ldr	r3, [r7, #12]
 8004314:	88fa      	ldrh	r2, [r7, #6]
 8004316:	86da      	strh	r2, [r3, #54]	@ 0x36

  /*Init field not used in handle to zero */
  hspi->pRxBuffPtr  = (uint8_t *)NULL;
 8004318:	68fb      	ldr	r3, [r7, #12]
 800431a:	2200      	movs	r2, #0
 800431c:	639a      	str	r2, [r3, #56]	@ 0x38
  hspi->RxXferSize  = 0U;
 800431e:	68fb      	ldr	r3, [r7, #12]
 8004320:	2200      	movs	r2, #0
 8004322:	879a      	strh	r2, [r3, #60]	@ 0x3c
  hspi->RxXferCount = 0U;
 8004324:	68fb      	ldr	r3, [r7, #12]
 8004326:	2200      	movs	r2, #0
 8004328:	87da      	strh	r2, [r3, #62]	@ 0x3e
  hspi->TxISR       = NULL;
 800432a:	68fb      	ldr	r3, [r7, #12]
 800432c:	2200      	movs	r2, #0
 800432e:	645a      	str	r2, [r3, #68]	@ 0x44
  hspi->RxISR       = NULL;
 8004330:	68fb      	ldr	r3, [r7, #12]
 8004332:	2200      	movs	r2, #0
 8004334:	641a      	str	r2, [r3, #64]	@ 0x40

  /* Configure communication direction : 1Line */
  if (hspi->Init.Direction == SPI_DIRECTION_1LINE)
 8004336:	68fb      	ldr	r3, [r7, #12]
 8004338:	689b      	ldr	r3, [r3, #8]
 800433a:	f5b3 4f00 	cmp.w	r3, #32768	@ 0x8000
 800433e:	d10f      	bne.n	8004360 <HAL_SPI_Transmit+0xb8>
  {
    /* Disable SPI Peripheral before set 1Line direction (BIDIOE bit) */
    __HAL_SPI_DISABLE(hspi);
 8004340:	68fb      	ldr	r3, [r7, #12]
 8004342:	681b      	ldr	r3, [r3, #0]
 8004344:	681a      	ldr	r2, [r3, #0]
 8004346:	68fb      	ldr	r3, [r7, #12]
 8004348:	681b      	ldr	r3, [r3, #0]
 800434a:	f022 0240 	bic.w	r2, r2, #64	@ 0x40
 800434e:	601a      	str	r2, [r3, #0]
    SPI_1LINE_TX(hspi);
 8004350:	68fb      	ldr	r3, [r7, #12]
 8004352:	681b      	ldr	r3, [r3, #0]
 8004354:	681a      	ldr	r2, [r3, #0]
 8004356:	68fb      	ldr	r3, [r7, #12]
 8004358:	681b      	ldr	r3, [r3, #0]
 800435a:	f442 4280 	orr.w	r2, r2, #16384	@ 0x4000
 800435e:	601a      	str	r2, [r3, #0]
    SPI_RESET_CRC(hspi);
  }
#endif /* USE_SPI_CRC */

  /* Check if the SPI is already enabled */
  if ((hspi->Instance->CR1 & SPI_CR1_SPE) != SPI_CR1_SPE)
 8004360:	68fb      	ldr	r3, [r7, #12]
 8004362:	681b      	ldr	r3, [r3, #0]
 8004364:	681b      	ldr	r3, [r3, #0]
 8004366:	f003 0340 	and.w	r3, r3, #64	@ 0x40
 800436a:	2b40      	cmp	r3, #64	@ 0x40
 800436c:	d007      	beq.n	800437e <HAL_SPI_Transmit+0xd6>
  {
    /* Enable SPI peripheral */
    __HAL_SPI_ENABLE(hspi);
 800436e:	68fb      	ldr	r3, [r7, #12]
 8004370:	681b      	ldr	r3, [r3, #0]
 8004372:	681a      	ldr	r2, [r3, #0]
 8004374:	68fb      	ldr	r3, [r7, #12]
 8004376:	681b      	ldr	r3, [r3, #0]
 8004378:	f042 0240 	orr.w	r2, r2, #64	@ 0x40
 800437c:	601a      	str	r2, [r3, #0]
  }

  /* Transmit data in 16 Bit mode */
  if (hspi->Init.DataSize == SPI_DATASIZE_16BIT)
 800437e:	68fb      	ldr	r3, [r7, #12]
 8004380:	68db      	ldr	r3, [r3, #12]
 8004382:	f5b3 6f00 	cmp.w	r3, #2048	@ 0x800
 8004386:	d152      	bne.n	800442e <HAL_SPI_Transmit+0x186>
  {
    if ((hspi->Init.Mode == SPI_MODE_SLAVE) || (initial_TxXferCount == 0x01U))
 8004388:	68fb      	ldr	r3, [r7, #12]
 800438a:	685b      	ldr	r3, [r3, #4]
 800438c:	2b00      	cmp	r3, #0
 800438e:	d002      	beq.n	8004396 <HAL_SPI_Transmit+0xee>
 8004390:	8b7b      	ldrh	r3, [r7, #26]
 8004392:	2b01      	cmp	r3, #1
 8004394:	d145      	bne.n	8004422 <HAL_SPI_Transmit+0x17a>
    {
      hspi->Instance->DR = *((const uint16_t *)hspi->pTxBuffPtr);
 8004396:	68fb      	ldr	r3, [r7, #12]
 8004398:	6b1b      	ldr	r3, [r3, #48]	@ 0x30
 800439a:	881a      	ldrh	r2, [r3, #0]
 800439c:	68fb      	ldr	r3, [r7, #12]
 800439e:	681b      	ldr	r3, [r3, #0]
 80043a0:	60da      	str	r2, [r3, #12]
      hspi->pTxBuffPtr += sizeof(uint16_t);
 80043a2:	68fb      	ldr	r3, [r7, #12]
 80043a4:	6b1b      	ldr	r3, [r3, #48]	@ 0x30
 80043a6:	1c9a      	adds	r2, r3, #2
 80043a8:	68fb      	ldr	r3, [r7, #12]
 80043aa:	631a      	str	r2, [r3, #48]	@ 0x30
      hspi->TxXferCount--;
 80043ac:	68fb      	ldr	r3, [r7, #12]
 80043ae:	8edb      	ldrh	r3, [r3, #54]	@ 0x36
 80043b0:	b29b      	uxth	r3, r3
 80043b2:	3b01      	subs	r3, #1
 80043b4:	b29a      	uxth	r2, r3
 80043b6:	68fb      	ldr	r3, [r7, #12]
 80043b8:	86da      	strh	r2, [r3, #54]	@ 0x36
    }
    /* Transmit data in 16 Bit mode */
    while (hspi->TxXferCount > 0U)
 80043ba:	e032      	b.n	8004422 <HAL_SPI_Transmit+0x17a>
    {
      /* Wait until TXE flag is set to send data */
      if (__HAL_SPI_GET_FLAG(hspi, SPI_FLAG_TXE))
 80043bc:	68fb      	ldr	r3, [r7, #12]
 80043be:	681b      	ldr	r3, [r3, #0]
 80043c0:	689b      	ldr	r3, [r3, #8]
 80043c2:	f003 0302 	and.w	r3, r3, #2
 80043c6:	2b02      	cmp	r3, #2
 80043c8:	d112      	bne.n	80043f0 <HAL_SPI_Transmit+0x148>
      {
        hspi->Instance->DR = *((const uint16_t *)hspi->pTxBuffPtr);
 80043ca:	68fb      	ldr	r3, [r7, #12]
 80043cc:	6b1b      	ldr	r3, [r3, #48]	@ 0x30
 80043ce:	881a      	ldrh	r2, [r3, #0]
 80043d0:	68fb      	ldr	r3, [r7, #12]
 80043d2:	681b      	ldr	r3, [r3, #0]
 80043d4:	60da      	str	r2, [r3, #12]
        hspi->pTxBuffPtr += sizeof(uint16_t);
 80043d6:	68fb      	ldr	r3, [r7, #12]
 80043d8:	6b1b      	ldr	r3, [r3, #48]	@ 0x30
 80043da:	1c9a      	adds	r2, r3, #2
 80043dc:	68fb      	ldr	r3, [r7, #12]
 80043de:	631a      	str	r2, [r3, #48]	@ 0x30
        hspi->TxXferCount--;
 80043e0:	68fb      	ldr	r3, [r7, #12]
 80043e2:	8edb      	ldrh	r3, [r3, #54]	@ 0x36
 80043e4:	b29b      	uxth	r3, r3
 80043e6:	3b01      	subs	r3, #1
 80043e8:	b29a      	uxth	r2, r3
 80043ea:	68fb      	ldr	r3, [r7, #12]
 80043ec:	86da      	strh	r2, [r3, #54]	@ 0x36
 80043ee:	e018      	b.n	8004422 <HAL_SPI_Transmit+0x17a>
      }
      else
      {
        /* Timeout management */
        if ((((HAL_GetTick() - tickstart) >=  Timeout) && (Timeout != HAL_MAX_DELAY)) || (Timeout == 0U))
 80043f0:	f7fd fea8 	bl	8002144 <HAL_GetTick>
 80043f4:	4602      	mov	r2, r0
 80043f6:	69fb      	ldr	r3, [r7, #28]
 80043f8:	1ad3      	subs	r3, r2, r3
 80043fa:	683a      	ldr	r2, [r7, #0]
 80043fc:	429a      	cmp	r2, r3
 80043fe:	d803      	bhi.n	8004408 <HAL_SPI_Transmit+0x160>
 8004400:	683b      	ldr	r3, [r7, #0]
 8004402:	f1b3 3fff 	cmp.w	r3, #4294967295	@ 0xffffffff
 8004406:	d102      	bne.n	800440e <HAL_SPI_Transmit+0x166>
 8004408:	683b      	ldr	r3, [r7, #0]
 800440a:	2b00      	cmp	r3, #0
 800440c:	d109      	bne.n	8004422 <HAL_SPI_Transmit+0x17a>
        {
          hspi->State = HAL_SPI_STATE_READY;
 800440e:	68fb      	ldr	r3, [r7, #12]
 8004410:	2201      	movs	r2, #1
 8004412:	f883 2051 	strb.w	r2, [r3, #81]	@ 0x51
          __HAL_UNLOCK(hspi);
 8004416:	68fb      	ldr	r3, [r7, #12]
 8004418:	2200      	movs	r2, #0
 800441a:	f883 2050 	strb.w	r2, [r3, #80]	@ 0x50
          return HAL_TIMEOUT;
 800441e:	2303      	movs	r3, #3
 8004420:	e082      	b.n	8004528 <HAL_SPI_Transmit+0x280>
    while (hspi->TxXferCount > 0U)
 8004422:	68fb      	ldr	r3, [r7, #12]
 8004424:	8edb      	ldrh	r3, [r3, #54]	@ 0x36
 8004426:	b29b      	uxth	r3, r3
 8004428:	2b00      	cmp	r3, #0
 800442a:	d1c7      	bne.n	80043bc <HAL_SPI_Transmit+0x114>
 800442c:	e053      	b.n	80044d6 <HAL_SPI_Transmit+0x22e>
    }
  }
  /* Transmit data in 8 Bit mode */
  else
  {
    if ((hspi->Init.Mode == SPI_MODE_SLAVE) || (initial_TxXferCount == 0x01U))
 800442e:	68fb      	ldr	r3, [r7, #12]
 8004430:	685b      	ldr	r3, [r3, #4]
 8004432:	2b00      	cmp	r3, #0
 8004434:	d002      	beq.n	800443c <HAL_SPI_Transmit+0x194>
 8004436:	8b7b      	ldrh	r3, [r7, #26]
 8004438:	2b01      	cmp	r3, #1
 800443a:	d147      	bne.n	80044cc <HAL_SPI_Transmit+0x224>
    {
      *((__IO uint8_t *)&hspi->Instance->DR) = *((const uint8_t *)hspi->pTxBuffPtr);
 800443c:	68fb      	ldr	r3, [r7, #12]
 800443e:	6b1a      	ldr	r2, [r3, #48]	@ 0x30
 8004440:	68fb      	ldr	r3, [r7, #12]
 8004442:	681b      	ldr	r3, [r3, #0]
 8004444:	330c      	adds	r3, #12
 8004446:	7812      	ldrb	r2, [r2, #0]
 8004448:	701a      	strb	r2, [r3, #0]
      hspi->pTxBuffPtr += sizeof(uint8_t);
 800444a:	68fb      	ldr	r3, [r7, #12]
 800444c:	6b1b      	ldr	r3, [r3, #48]	@ 0x30
 800444e:	1c5a      	adds	r2, r3, #1
 8004450:	68fb      	ldr	r3, [r7, #12]
 8004452:	631a      	str	r2, [r3, #48]	@ 0x30
      hspi->TxXferCount--;
 8004454:	68fb      	ldr	r3, [r7, #12]
 8004456:	8edb      	ldrh	r3, [r3, #54]	@ 0x36
 8004458:	b29b      	uxth	r3, r3
 800445a:	3b01      	subs	r3, #1
 800445c:	b29a      	uxth	r2, r3
 800445e:	68fb      	ldr	r3, [r7, #12]
 8004460:	86da      	strh	r2, [r3, #54]	@ 0x36
    }
    while (hspi->TxXferCount > 0U)
 8004462:	e033      	b.n	80044cc <HAL_SPI_Transmit+0x224>
    {
      /* Wait until TXE flag is set to send data */
      if (__HAL_SPI_GET_FLAG(hspi, SPI_FLAG_TXE))
 8004464:	68fb      	ldr	r3, [r7, #12]
 8004466:	681b      	ldr	r3, [r3, #0]
 8004468:	689b      	ldr	r3, [r3, #8]
 800446a:	f003 0302 	and.w	r3, r3, #2
 800446e:	2b02      	cmp	r3, #2
 8004470:	d113      	bne.n	800449a <HAL_SPI_Transmit+0x1f2>
      {
        *((__IO uint8_t *)&hspi->Instance->DR) = *((const uint8_t *)hspi->pTxBuffPtr);
 8004472:	68fb      	ldr	r3, [r7, #12]
 8004474:	6b1a      	ldr	r2, [r3, #48]	@ 0x30
 8004476:	68fb      	ldr	r3, [r7, #12]
 8004478:	681b      	ldr	r3, [r3, #0]
 800447a:	330c      	adds	r3, #12
 800447c:	7812      	ldrb	r2, [r2, #0]
 800447e:	701a      	strb	r2, [r3, #0]
        hspi->pTxBuffPtr += sizeof(uint8_t);
 8004480:	68fb      	ldr	r3, [r7, #12]
 8004482:	6b1b      	ldr	r3, [r3, #48]	@ 0x30
 8004484:	1c5a      	adds	r2, r3, #1
 8004486:	68fb      	ldr	r3, [r7, #12]
 8004488:	631a      	str	r2, [r3, #48]	@ 0x30
        hspi->TxXferCount--;
 800448a:	68fb      	ldr	r3, [r7, #12]
 800448c:	8edb      	ldrh	r3, [r3, #54]	@ 0x36
 800448e:	b29b      	uxth	r3, r3
 8004490:	3b01      	subs	r3, #1
 8004492:	b29a      	uxth	r2, r3
 8004494:	68fb      	ldr	r3, [r7, #12]
 8004496:	86da      	strh	r2, [r3, #54]	@ 0x36
 8004498:	e018      	b.n	80044cc <HAL_SPI_Transmit+0x224>
      }
      else
      {
        /* Timeout management */
        if ((((HAL_GetTick() - tickstart) >=  Timeout) && (Timeout != HAL_MAX_DELAY)) || (Timeout == 0U))
 800449a:	f7fd fe53 	bl	8002144 <HAL_GetTick>
 800449e:	4602      	mov	r2, r0
 80044a0:	69fb      	ldr	r3, [r7, #28]
 80044a2:	1ad3      	subs	r3, r2, r3
 80044a4:	683a      	ldr	r2, [r7, #0]
 80044a6:	429a      	cmp	r2, r3
 80044a8:	d803      	bhi.n	80044b2 <HAL_SPI_Transmit+0x20a>
 80044aa:	683b      	ldr	r3, [r7, #0]
 80044ac:	f1b3 3fff 	cmp.w	r3, #4294967295	@ 0xffffffff
 80044b0:	d102      	bne.n	80044b8 <HAL_SPI_Transmit+0x210>
 80044b2:	683b      	ldr	r3, [r7, #0]
 80044b4:	2b00      	cmp	r3, #0
 80044b6:	d109      	bne.n	80044cc <HAL_SPI_Transmit+0x224>
        {
          hspi->State = HAL_SPI_STATE_READY;
 80044b8:	68fb      	ldr	r3, [r7, #12]
 80044ba:	2201      	movs	r2, #1
 80044bc:	f883 2051 	strb.w	r2, [r3, #81]	@ 0x51
          __HAL_UNLOCK(hspi);
 80044c0:	68fb      	ldr	r3, [r7, #12]
 80044c2:	2200      	movs	r2, #0
 80044c4:	f883 2050 	strb.w	r2, [r3, #80]	@ 0x50
          return HAL_TIMEOUT;
 80044c8:	2303      	movs	r3, #3
 80044ca:	e02d      	b.n	8004528 <HAL_SPI_Transmit+0x280>
    while (hspi->TxXferCount > 0U)
 80044cc:	68fb      	ldr	r3, [r7, #12]
 80044ce:	8edb      	ldrh	r3, [r3, #54]	@ 0x36
 80044d0:	b29b      	uxth	r3, r3
 80044d2:	2b00      	cmp	r3, #0
 80044d4:	d1c6      	bne.n	8004464 <HAL_SPI_Transmit+0x1bc>
    SET_BIT(hspi->Instance->CR1, SPI_CR1_CRCNEXT);
  }
#endif /* USE_SPI_CRC */

  /* Check the end of the transaction */
  if (SPI_EndRxTxTransaction(hspi, Timeout, tickstart) != HAL_OK)
 80044d6:	69fa      	ldr	r2, [r7, #28]
 80044d8:	6839      	ldr	r1, [r7, #0]
 80044da:	68f8      	ldr	r0, [r7, #12]
 80044dc:	f000 f8b0 	bl	8004640 <SPI_EndRxTxTransaction>
 80044e0:	4603      	mov	r3, r0
 80044e2:	2b00      	cmp	r3, #0
 80044e4:	d002      	beq.n	80044ec <HAL_SPI_Transmit+0x244>
  {
    hspi->ErrorCode = HAL_SPI_ERROR_FLAG;
 80044e6:	68fb      	ldr	r3, [r7, #12]
 80044e8:	2220      	movs	r2, #32
 80044ea:	655a      	str	r2, [r3, #84]	@ 0x54
  }

  /* Clear overrun flag in 2 Lines communication mode because received is not read */
  if (hspi->Init.Direction == SPI_DIRECTION_2LINES)
 80044ec:	68fb      	ldr	r3, [r7, #12]
 80044ee:	689b      	ldr	r3, [r3, #8]
 80044f0:	2b00      	cmp	r3, #0
 80044f2:	d10a      	bne.n	800450a <HAL_SPI_Transmit+0x262>
  {
    __HAL_SPI_CLEAR_OVRFLAG(hspi);
 80044f4:	2300      	movs	r3, #0
 80044f6:	617b      	str	r3, [r7, #20]
 80044f8:	68fb      	ldr	r3, [r7, #12]
 80044fa:	681b      	ldr	r3, [r3, #0]
 80044fc:	68db      	ldr	r3, [r3, #12]
 80044fe:	617b      	str	r3, [r7, #20]
 8004500:	68fb      	ldr	r3, [r7, #12]
 8004502:	681b      	ldr	r3, [r3, #0]
 8004504:	689b      	ldr	r3, [r3, #8]
 8004506:	617b      	str	r3, [r7, #20]
 8004508:	697b      	ldr	r3, [r7, #20]
  }

  hspi->State = HAL_SPI_STATE_READY;
 800450a:	68fb      	ldr	r3, [r7, #12]
 800450c:	2201      	movs	r2, #1
 800450e:	f883 2051 	strb.w	r2, [r3, #81]	@ 0x51
  /* Process Unlocked */
  __HAL_UNLOCK(hspi);
 8004512:	68fb      	ldr	r3, [r7, #12]
 8004514:	2200      	movs	r2, #0
 8004516:	f883 2050 	strb.w	r2, [r3, #80]	@ 0x50

  if (hspi->ErrorCode != HAL_SPI_ERROR_NONE)
 800451a:	68fb      	ldr	r3, [r7, #12]
 800451c:	6d5b      	ldr	r3, [r3, #84]	@ 0x54
 800451e:	2b00      	cmp	r3, #0
 8004520:	d001      	beq.n	8004526 <HAL_SPI_Transmit+0x27e>
  {
    return HAL_ERROR;
 8004522:	2301      	movs	r3, #1
 8004524:	e000      	b.n	8004528 <HAL_SPI_Transmit+0x280>
  }
  else
  {
    return HAL_OK;
 8004526:	2300      	movs	r3, #0
  }
}
 8004528:	4618      	mov	r0, r3
 800452a:	3720      	adds	r7, #32
 800452c:	46bd      	mov	sp, r7
 800452e:	bd80      	pop	{r7, pc}

08004530 <SPI_WaitFlagStateUntilTimeout>:
  * @param  Tickstart tick start value
  * @retval HAL status
  */
static HAL_StatusTypeDef SPI_WaitFlagStateUntilTimeout(SPI_HandleTypeDef *hspi, uint32_t Flag, FlagStatus State,
                                                       uint32_t Timeout, uint32_t Tickstart)
{
 8004530:	b580      	push	{r7, lr}
 8004532:	b088      	sub	sp, #32
 8004534:	af00      	add	r7, sp, #0
 8004536:	60f8      	str	r0, [r7, #12]
 8004538:	60b9      	str	r1, [r7, #8]
 800453a:	603b      	str	r3, [r7, #0]
 800453c:	4613      	mov	r3, r2
 800453e:	71fb      	strb	r3, [r7, #7]
  __IO uint32_t count;
  uint32_t tmp_timeout;
  uint32_t tmp_tickstart;

  /* Adjust Timeout value  in case of end of transfer */
  tmp_timeout   = Timeout - (HAL_GetTick() - Tickstart);
 8004540:	f7fd fe00 	bl	8002144 <HAL_GetTick>
 8004544:	4602      	mov	r2, r0
 8004546:	6abb      	ldr	r3, [r7, #40]	@ 0x28
 8004548:	1a9b      	subs	r3, r3, r2
 800454a:	683a      	ldr	r2, [r7, #0]
 800454c:	4413      	add	r3, r2
 800454e:	61fb      	str	r3, [r7, #28]
  tmp_tickstart = HAL_GetTick();
 8004550:	f7fd fdf8 	bl	8002144 <HAL_GetTick>
 8004554:	61b8      	str	r0, [r7, #24]

  /* Calculate Timeout based on a software loop to avoid blocking issue if Systick is disabled */
  count = tmp_timeout * ((SystemCoreClock * 32U) >> 20U);
 8004556:	4b39      	ldr	r3, [pc, #228]	@ (800463c <SPI_WaitFlagStateUntilTimeout+0x10c>)
 8004558:	681b      	ldr	r3, [r3, #0]
 800455a:	015b      	lsls	r3, r3, #5
 800455c:	0d1b      	lsrs	r3, r3, #20
 800455e:	69fa      	ldr	r2, [r7, #28]
 8004560:	fb02 f303 	mul.w	r3, r2, r3
 8004564:	617b      	str	r3, [r7, #20]

  while ((__HAL_SPI_GET_FLAG(hspi, Flag) ? SET : RESET) != State)
 8004566:	e054      	b.n	8004612 <SPI_WaitFlagStateUntilTimeout+0xe2>
  {
    if (Timeout != HAL_MAX_DELAY)
 8004568:	683b      	ldr	r3, [r7, #0]
 800456a:	f1b3 3fff 	cmp.w	r3, #4294967295	@ 0xffffffff
 800456e:	d050      	beq.n	8004612 <SPI_WaitFlagStateUntilTimeout+0xe2>
    {
      if (((HAL_GetTick() - tmp_tickstart) >= tmp_timeout) || (tmp_timeout == 0U))
 8004570:	f7fd fde8 	bl	8002144 <HAL_GetTick>
 8004574:	4602      	mov	r2, r0
 8004576:	69bb      	ldr	r3, [r7, #24]
 8004578:	1ad3      	subs	r3, r2, r3
 800457a:	69fa      	ldr	r2, [r7, #28]
 800457c:	429a      	cmp	r2, r3
 800457e:	d902      	bls.n	8004586 <SPI_WaitFlagStateUntilTimeout+0x56>
 8004580:	69fb      	ldr	r3, [r7, #28]
 8004582:	2b00      	cmp	r3, #0
 8004584:	d13d      	bne.n	8004602 <SPI_WaitFlagStateUntilTimeout+0xd2>
        /* Disable the SPI and reset the CRC: the CRC value should be cleared
           on both master and slave sides in order to resynchronize the master
           and slave for their respective CRC calculation */

        /* Disable TXE, RXNE and ERR interrupts for the interrupt process */
        __HAL_SPI_DISABLE_IT(hspi, (SPI_IT_TXE | SPI_IT_RXNE | SPI_IT_ERR));
 8004586:	68fb      	ldr	r3, [r7, #12]
 8004588:	681b      	ldr	r3, [r3, #0]
 800458a:	685a      	ldr	r2, [r3, #4]
 800458c:	68fb      	ldr	r3, [r7, #12]
 800458e:	681b      	ldr	r3, [r3, #0]
 8004590:	f022 02e0 	bic.w	r2, r2, #224	@ 0xe0
 8004594:	605a      	str	r2, [r3, #4]

        if ((hspi->Init.Mode == SPI_MODE_MASTER) && ((hspi->Init.Direction == SPI_DIRECTION_1LINE)
 8004596:	68fb      	ldr	r3, [r7, #12]
 8004598:	685b      	ldr	r3, [r3, #4]
 800459a:	f5b3 7f82 	cmp.w	r3, #260	@ 0x104
 800459e:	d111      	bne.n	80045c4 <SPI_WaitFlagStateUntilTimeout+0x94>
 80045a0:	68fb      	ldr	r3, [r7, #12]
 80045a2:	689b      	ldr	r3, [r3, #8]
 80045a4:	f5b3 4f00 	cmp.w	r3, #32768	@ 0x8000
 80045a8:	d004      	beq.n	80045b4 <SPI_WaitFlagStateUntilTimeout+0x84>
                                                     || (hspi->Init.Direction == SPI_DIRECTION_2LINES_RXONLY)))
 80045aa:	68fb      	ldr	r3, [r7, #12]
 80045ac:	689b      	ldr	r3, [r3, #8]
 80045ae:	f5b3 6f80 	cmp.w	r3, #1024	@ 0x400
 80045b2:	d107      	bne.n	80045c4 <SPI_WaitFlagStateUntilTimeout+0x94>
        {
          /* Disable SPI peripheral */
          __HAL_SPI_DISABLE(hspi);
 80045b4:	68fb      	ldr	r3, [r7, #12]
 80045b6:	681b      	ldr	r3, [r3, #0]
 80045b8:	681a      	ldr	r2, [r3, #0]
 80045ba:	68fb      	ldr	r3, [r7, #12]
 80045bc:	681b      	ldr	r3, [r3, #0]
 80045be:	f022 0240 	bic.w	r2, r2, #64	@ 0x40
 80045c2:	601a      	str	r2, [r3, #0]
        }

        /* Reset CRC Calculation */
        if (hspi->Init.CRCCalculation == SPI_CRCCALCULATION_ENABLE)
 80045c4:	68fb      	ldr	r3, [r7, #12]
 80045c6:	6a9b      	ldr	r3, [r3, #40]	@ 0x28
 80045c8:	f5b3 5f00 	cmp.w	r3, #8192	@ 0x2000
 80045cc:	d10f      	bne.n	80045ee <SPI_WaitFlagStateUntilTimeout+0xbe>
        {
          SPI_RESET_CRC(hspi);
 80045ce:	68fb      	ldr	r3, [r7, #12]
 80045d0:	681b      	ldr	r3, [r3, #0]
 80045d2:	681a      	ldr	r2, [r3, #0]
 80045d4:	68fb      	ldr	r3, [r7, #12]
 80045d6:	681b      	ldr	r3, [r3, #0]
 80045d8:	f422 5200 	bic.w	r2, r2, #8192	@ 0x2000
 80045dc:	601a      	str	r2, [r3, #0]
 80045de:	68fb      	ldr	r3, [r7, #12]
 80045e0:	681b      	ldr	r3, [r3, #0]
 80045e2:	681a      	ldr	r2, [r3, #0]
 80045e4:	68fb      	ldr	r3, [r7, #12]
 80045e6:	681b      	ldr	r3, [r3, #0]
 80045e8:	f442 5200 	orr.w	r2, r2, #8192	@ 0x2000
 80045ec:	601a      	str	r2, [r3, #0]
        }

        hspi->State = HAL_SPI_STATE_READY;
 80045ee:	68fb      	ldr	r3, [r7, #12]
 80045f0:	2201      	movs	r2, #1
 80045f2:	f883 2051 	strb.w	r2, [r3, #81]	@ 0x51

        /* Process Unlocked */
        __HAL_UNLOCK(hspi);
 80045f6:	68fb      	ldr	r3, [r7, #12]
 80045f8:	2200      	movs	r2, #0
 80045fa:	f883 2050 	strb.w	r2, [r3, #80]	@ 0x50

        return HAL_TIMEOUT;
 80045fe:	2303      	movs	r3, #3
 8004600:	e017      	b.n	8004632 <SPI_WaitFlagStateUntilTimeout+0x102>
      }
      /* If Systick is disabled or not incremented, deactivate timeout to go in disable loop procedure */
      if (count == 0U)
 8004602:	697b      	ldr	r3, [r7, #20]
 8004604:	2b00      	cmp	r3, #0
 8004606:	d101      	bne.n	800460c <SPI_WaitFlagStateUntilTimeout+0xdc>
      {
        tmp_timeout = 0U;
 8004608:	2300      	movs	r3, #0
 800460a:	61fb      	str	r3, [r7, #28]
      }
      count--;
 800460c:	697b      	ldr	r3, [r7, #20]
 800460e:	3b01      	subs	r3, #1
 8004610:	617b      	str	r3, [r7, #20]
  while ((__HAL_SPI_GET_FLAG(hspi, Flag) ? SET : RESET) != State)
 8004612:	68fb      	ldr	r3, [r7, #12]
 8004614:	681b      	ldr	r3, [r3, #0]
 8004616:	689a      	ldr	r2, [r3, #8]
 8004618:	68bb      	ldr	r3, [r7, #8]
 800461a:	4013      	ands	r3, r2
 800461c:	68ba      	ldr	r2, [r7, #8]
 800461e:	429a      	cmp	r2, r3
 8004620:	bf0c      	ite	eq
 8004622:	2301      	moveq	r3, #1
 8004624:	2300      	movne	r3, #0
 8004626:	b2db      	uxtb	r3, r3
 8004628:	461a      	mov	r2, r3
 800462a:	79fb      	ldrb	r3, [r7, #7]
 800462c:	429a      	cmp	r2, r3
 800462e:	d19b      	bne.n	8004568 <SPI_WaitFlagStateUntilTimeout+0x38>
    }
  }

  return HAL_OK;
 8004630:	2300      	movs	r3, #0
}
 8004632:	4618      	mov	r0, r3
 8004634:	3720      	adds	r7, #32
 8004636:	46bd      	mov	sp, r7
 8004638:	bd80      	pop	{r7, pc}
 800463a:	bf00      	nop
 800463c:	20000000 	.word	0x20000000

08004640 <SPI_EndRxTxTransaction>:
  * @param  Timeout Timeout duration
  * @param  Tickstart tick start value
  * @retval HAL status
  */
static HAL_StatusTypeDef SPI_EndRxTxTransaction(SPI_HandleTypeDef *hspi, uint32_t Timeout, uint32_t Tickstart)
{
 8004640:	b580      	push	{r7, lr}
 8004642:	b086      	sub	sp, #24
 8004644:	af02      	add	r7, sp, #8
 8004646:	60f8      	str	r0, [r7, #12]
 8004648:	60b9      	str	r1, [r7, #8]
 800464a:	607a      	str	r2, [r7, #4]
  /* Wait until TXE flag */
  if (SPI_WaitFlagStateUntilTimeout(hspi, SPI_FLAG_TXE, SET, Timeout, Tickstart) != HAL_OK)
 800464c:	687b      	ldr	r3, [r7, #4]
 800464e:	9300      	str	r3, [sp, #0]
 8004650:	68bb      	ldr	r3, [r7, #8]
 8004652:	2201      	movs	r2, #1
 8004654:	2102      	movs	r1, #2
 8004656:	68f8      	ldr	r0, [r7, #12]
 8004658:	f7ff ff6a 	bl	8004530 <SPI_WaitFlagStateUntilTimeout>
 800465c:	4603      	mov	r3, r0
 800465e:	2b00      	cmp	r3, #0
 8004660:	d007      	beq.n	8004672 <SPI_EndRxTxTransaction+0x32>
  {
    SET_BIT(hspi->ErrorCode, HAL_SPI_ERROR_FLAG);
 8004662:	68fb      	ldr	r3, [r7, #12]
 8004664:	6d5b      	ldr	r3, [r3, #84]	@ 0x54
 8004666:	f043 0220 	orr.w	r2, r3, #32
 800466a:	68fb      	ldr	r3, [r7, #12]
 800466c:	655a      	str	r2, [r3, #84]	@ 0x54
    return HAL_TIMEOUT;
 800466e:	2303      	movs	r3, #3
 8004670:	e013      	b.n	800469a <SPI_EndRxTxTransaction+0x5a>
  }

  /* Control the BSY flag */
  if (SPI_WaitFlagStateUntilTimeout(hspi, SPI_FLAG_BSY, RESET, Timeout, Tickstart) != HAL_OK)
 8004672:	687b      	ldr	r3, [r7, #4]
 8004674:	9300      	str	r3, [sp, #0]
 8004676:	68bb      	ldr	r3, [r7, #8]
 8004678:	2200      	movs	r2, #0
 800467a:	2180      	movs	r1, #128	@ 0x80
 800467c:	68f8      	ldr	r0, [r7, #12]
 800467e:	f7ff ff57 	bl	8004530 <SPI_WaitFlagStateUntilTimeout>
 8004682:	4603      	mov	r3, r0
 8004684:	2b00      	cmp	r3, #0
 8004686:	d007      	beq.n	8004698 <SPI_EndRxTxTransaction+0x58>
  {
    SET_BIT(hspi->ErrorCode, HAL_SPI_ERROR_FLAG);
 8004688:	68fb      	ldr	r3, [r7, #12]
 800468a:	6d5b      	ldr	r3, [r3, #84]	@ 0x54
 800468c:	f043 0220 	orr.w	r2, r3, #32
 8004690:	68fb      	ldr	r3, [r7, #12]
 8004692:	655a      	str	r2, [r3, #84]	@ 0x54
    return HAL_TIMEOUT;
 8004694:	2303      	movs	r3, #3
 8004696:	e000      	b.n	800469a <SPI_EndRxTxTransaction+0x5a>
  }
  return HAL_OK;
 8004698:	2300      	movs	r3, #0
}
 800469a:	4618      	mov	r0, r3
 800469c:	3710      	adds	r7, #16
 800469e:	46bd      	mov	sp, r7
 80046a0:	bd80      	pop	{r7, pc}

080046a2 <HAL_TIM_Base_Init>:
  *         Ex: call @ref HAL_TIM_Base_DeInit() before HAL_TIM_Base_Init()
  * @param  htim TIM Base handle
  * @retval HAL status
  */
HAL_StatusTypeDef HAL_TIM_Base_Init(TIM_HandleTypeDef *htim)
{
 80046a2:	b580      	push	{r7, lr}
 80046a4:	b082      	sub	sp, #8
 80046a6:	af00      	add	r7, sp, #0
 80046a8:	6078      	str	r0, [r7, #4]
  /* Check the TIM handle allocation */
  if (htim == NULL)
 80046aa:	687b      	ldr	r3, [r7, #4]
 80046ac:	2b00      	cmp	r3, #0
 80046ae:	d101      	bne.n	80046b4 <HAL_TIM_Base_Init+0x12>
  {
    return HAL_ERROR;
 80046b0:	2301      	movs	r3, #1
 80046b2:	e041      	b.n	8004738 <HAL_TIM_Base_Init+0x96>
  assert_param(IS_TIM_COUNTER_MODE(htim->Init.CounterMode));
  assert_param(IS_TIM_CLOCKDIVISION_DIV(htim->Init.ClockDivision));
  assert_param(IS_TIM_PERIOD(htim->Init.Period));
  assert_param(IS_TIM_AUTORELOAD_PRELOAD(htim->Init.AutoReloadPreload));

  if (htim->State == HAL_TIM_STATE_RESET)
 80046b4:	687b      	ldr	r3, [r7, #4]
 80046b6:	f893 303d 	ldrb.w	r3, [r3, #61]	@ 0x3d
 80046ba:	b2db      	uxtb	r3, r3
 80046bc:	2b00      	cmp	r3, #0
 80046be:	d106      	bne.n	80046ce <HAL_TIM_Base_Init+0x2c>
  {
    /* Allocate lock resource and initialize it */
    htim->Lock = HAL_UNLOCKED;
 80046c0:	687b      	ldr	r3, [r7, #4]
 80046c2:	2200      	movs	r2, #0
 80046c4:	f883 203c 	strb.w	r2, [r3, #60]	@ 0x3c
    }
    /* Init the low level hardware : GPIO, CLOCK, NVIC */
    htim->Base_MspInitCallback(htim);
#else
    /* Init the low level hardware : GPIO, CLOCK, NVIC */
    HAL_TIM_Base_MspInit(htim);
 80046c8:	6878      	ldr	r0, [r7, #4]
 80046ca:	f7fd fbe9 	bl	8001ea0 <HAL_TIM_Base_MspInit>
#endif /* USE_HAL_TIM_REGISTER_CALLBACKS */
  }

  /* Set the TIM state */
  htim->State = HAL_TIM_STATE_BUSY;
 80046ce:	687b      	ldr	r3, [r7, #4]
 80046d0:	2202      	movs	r2, #2
 80046d2:	f883 203d 	strb.w	r2, [r3, #61]	@ 0x3d

  /* Set the Time Base configuration */
  TIM_Base_SetConfig(htim->Instance, &htim->Init);
 80046d6:	687b      	ldr	r3, [r7, #4]
 80046d8:	681a      	ldr	r2, [r3, #0]
 80046da:	687b      	ldr	r3, [r7, #4]
 80046dc:	3304      	adds	r3, #4
 80046de:	4619      	mov	r1, r3
 80046e0:	4610      	mov	r0, r2
 80046e2:	f000 f8f5 	bl	80048d0 <TIM_Base_SetConfig>

  /* Initialize the DMA burst operation state */
  htim->DMABurstState = HAL_DMA_BURST_STATE_READY;
 80046e6:	687b      	ldr	r3, [r7, #4]
 80046e8:	2201      	movs	r2, #1
 80046ea:	f883 2046 	strb.w	r2, [r3, #70]	@ 0x46

  /* Initialize the TIM channels state */
  TIM_CHANNEL_STATE_SET_ALL(htim, HAL_TIM_CHANNEL_STATE_READY);
 80046ee:	687b      	ldr	r3, [r7, #4]
 80046f0:	2201      	movs	r2, #1
 80046f2:	f883 203e 	strb.w	r2, [r3, #62]	@ 0x3e
 80046f6:	687b      	ldr	r3, [r7, #4]
 80046f8:	2201      	movs	r2, #1
 80046fa:	f883 203f 	strb.w	r2, [r3, #63]	@ 0x3f
 80046fe:	687b      	ldr	r3, [r7, #4]
 8004700:	2201      	movs	r2, #1
 8004702:	f883 2040 	strb.w	r2, [r3, #64]	@ 0x40
 8004706:	687b      	ldr	r3, [r7, #4]
 8004708:	2201      	movs	r2, #1
 800470a:	f883 2041 	strb.w	r2, [r3, #65]	@ 0x41
  TIM_CHANNEL_N_STATE_SET_ALL(htim, HAL_TIM_CHANNEL_STATE_READY);
 800470e:	687b      	ldr	r3, [r7, #4]
 8004710:	2201      	movs	r2, #1
 8004712:	f883 2042 	strb.w	r2, [r3, #66]	@ 0x42
 8004716:	687b      	ldr	r3, [r7, #4]
 8004718:	2201      	movs	r2, #1
 800471a:	f883 2043 	strb.w	r2, [r3, #67]	@ 0x43
 800471e:	687b      	ldr	r3, [r7, #4]
 8004720:	2201      	movs	r2, #1
 8004722:	f883 2044 	strb.w	r2, [r3, #68]	@ 0x44
 8004726:	687b      	ldr	r3, [r7, #4]
 8004728:	2201      	movs	r2, #1
 800472a:	f883 2045 	strb.w	r2, [r3, #69]	@ 0x45

  /* Initialize the TIM state*/
  htim->State = HAL_TIM_STATE_READY;
 800472e:	687b      	ldr	r3, [r7, #4]
 8004730:	2201      	movs	r2, #1
 8004732:	f883 203d 	strb.w	r2, [r3, #61]	@ 0x3d

  return HAL_OK;
 8004736:	2300      	movs	r3, #0
}
 8004738:	4618      	mov	r0, r3
 800473a:	3708      	adds	r7, #8
 800473c:	46bd      	mov	sp, r7
 800473e:	bd80      	pop	{r7, pc}

08004740 <HAL_TIM_ConfigClockSource>:
  * @param  sClockSourceConfig pointer to a TIM_ClockConfigTypeDef structure that
  *         contains the clock source information for the TIM peripheral.
  * @retval HAL status
  */
HAL_StatusTypeDef HAL_TIM_ConfigClockSource(TIM_HandleTypeDef *htim, const TIM_ClockConfigTypeDef *sClockSourceConfig)
{
 8004740:	b580      	push	{r7, lr}
 8004742:	b084      	sub	sp, #16
 8004744:	af00      	add	r7, sp, #0
 8004746:	6078      	str	r0, [r7, #4]
 8004748:	6039      	str	r1, [r7, #0]
  HAL_StatusTypeDef status = HAL_OK;
 800474a:	2300      	movs	r3, #0
 800474c:	73fb      	strb	r3, [r7, #15]
  uint32_t tmpsmcr;

  /* Process Locked */
  __HAL_LOCK(htim);
 800474e:	687b      	ldr	r3, [r7, #4]
 8004750:	f893 303c 	ldrb.w	r3, [r3, #60]	@ 0x3c
 8004754:	2b01      	cmp	r3, #1
 8004756:	d101      	bne.n	800475c <HAL_TIM_ConfigClockSource+0x1c>
 8004758:	2302      	movs	r3, #2
 800475a:	e0b4      	b.n	80048c6 <HAL_TIM_ConfigClockSource+0x186>
 800475c:	687b      	ldr	r3, [r7, #4]
 800475e:	2201      	movs	r2, #1
 8004760:	f883 203c 	strb.w	r2, [r3, #60]	@ 0x3c

  htim->State = HAL_TIM_STATE_BUSY;
 8004764:	687b      	ldr	r3, [r7, #4]
 8004766:	2202      	movs	r2, #2
 8004768:	f883 203d 	strb.w	r2, [r3, #61]	@ 0x3d

  /* Check the parameters */
  assert_param(IS_TIM_CLOCKSOURCE(sClockSourceConfig->ClockSource));

  /* Reset the SMS, TS, ECE, ETPS and ETRF bits */
  tmpsmcr = htim->Instance->SMCR;
 800476c:	687b      	ldr	r3, [r7, #4]
 800476e:	681b      	ldr	r3, [r3, #0]
 8004770:	689b      	ldr	r3, [r3, #8]
 8004772:	60bb      	str	r3, [r7, #8]
  tmpsmcr &= ~(TIM_SMCR_SMS | TIM_SMCR_TS);
 8004774:	68bb      	ldr	r3, [r7, #8]
 8004776:	f023 0377 	bic.w	r3, r3, #119	@ 0x77
 800477a:	60bb      	str	r3, [r7, #8]
  tmpsmcr &= ~(TIM_SMCR_ETF | TIM_SMCR_ETPS | TIM_SMCR_ECE | TIM_SMCR_ETP);
 800477c:	68bb      	ldr	r3, [r7, #8]
 800477e:	f423 437f 	bic.w	r3, r3, #65280	@ 0xff00
 8004782:	60bb      	str	r3, [r7, #8]
  htim->Instance->SMCR = tmpsmcr;
 8004784:	687b      	ldr	r3, [r7, #4]
 8004786:	681b      	ldr	r3, [r3, #0]
 8004788:	68ba      	ldr	r2, [r7, #8]
 800478a:	609a      	str	r2, [r3, #8]

  switch (sClockSourceConfig->ClockSource)
 800478c:	683b      	ldr	r3, [r7, #0]
 800478e:	681b      	ldr	r3, [r3, #0]
 8004790:	f5b3 5f00 	cmp.w	r3, #8192	@ 0x2000
 8004794:	d03e      	beq.n	8004814 <HAL_TIM_ConfigClockSource+0xd4>
 8004796:	f5b3 5f00 	cmp.w	r3, #8192	@ 0x2000
 800479a:	f200 8087 	bhi.w	80048ac <HAL_TIM_ConfigClockSource+0x16c>
 800479e:	f5b3 5f80 	cmp.w	r3, #4096	@ 0x1000
 80047a2:	f000 8086 	beq.w	80048b2 <HAL_TIM_ConfigClockSource+0x172>
 80047a6:	f5b3 5f80 	cmp.w	r3, #4096	@ 0x1000
 80047aa:	d87f      	bhi.n	80048ac <HAL_TIM_ConfigClockSource+0x16c>
 80047ac:	2b70      	cmp	r3, #112	@ 0x70
 80047ae:	d01a      	beq.n	80047e6 <HAL_TIM_ConfigClockSource+0xa6>
 80047b0:	2b70      	cmp	r3, #112	@ 0x70
 80047b2:	d87b      	bhi.n	80048ac <HAL_TIM_ConfigClockSource+0x16c>
 80047b4:	2b60      	cmp	r3, #96	@ 0x60
 80047b6:	d050      	beq.n	800485a <HAL_TIM_ConfigClockSource+0x11a>
 80047b8:	2b60      	cmp	r3, #96	@ 0x60
 80047ba:	d877      	bhi.n	80048ac <HAL_TIM_ConfigClockSource+0x16c>
 80047bc:	2b50      	cmp	r3, #80	@ 0x50
 80047be:	d03c      	beq.n	800483a <HAL_TIM_ConfigClockSource+0xfa>
 80047c0:	2b50      	cmp	r3, #80	@ 0x50
 80047c2:	d873      	bhi.n	80048ac <HAL_TIM_ConfigClockSource+0x16c>
 80047c4:	2b40      	cmp	r3, #64	@ 0x40
 80047c6:	d058      	beq.n	800487a <HAL_TIM_ConfigClockSource+0x13a>
 80047c8:	2b40      	cmp	r3, #64	@ 0x40
 80047ca:	d86f      	bhi.n	80048ac <HAL_TIM_ConfigClockSource+0x16c>
 80047cc:	2b30      	cmp	r3, #48	@ 0x30
 80047ce:	d064      	beq.n	800489a <HAL_TIM_ConfigClockSource+0x15a>
 80047d0:	2b30      	cmp	r3, #48	@ 0x30
 80047d2:	d86b      	bhi.n	80048ac <HAL_TIM_ConfigClockSource+0x16c>
 80047d4:	2b20      	cmp	r3, #32
 80047d6:	d060      	beq.n	800489a <HAL_TIM_ConfigClockSource+0x15a>
 80047d8:	2b20      	cmp	r3, #32
 80047da:	d867      	bhi.n	80048ac <HAL_TIM_ConfigClockSource+0x16c>
 80047dc:	2b00      	cmp	r3, #0
 80047de:	d05c      	beq.n	800489a <HAL_TIM_ConfigClockSource+0x15a>
 80047e0:	2b10      	cmp	r3, #16
 80047e2:	d05a      	beq.n	800489a <HAL_TIM_ConfigClockSource+0x15a>
 80047e4:	e062      	b.n	80048ac <HAL_TIM_ConfigClockSource+0x16c>
      assert_param(IS_TIM_CLOCKPRESCALER(sClockSourceConfig->ClockPrescaler));
      assert_param(IS_TIM_CLOCKPOLARITY(sClockSourceConfig->ClockPolarity));
      assert_param(IS_TIM_CLOCKFILTER(sClockSourceConfig->ClockFilter));

      /* Configure the ETR Clock source */
      TIM_ETR_SetConfig(htim->Instance,
 80047e6:	687b      	ldr	r3, [r7, #4]
 80047e8:	6818      	ldr	r0, [r3, #0]
                        sClockSourceConfig->ClockPrescaler,
 80047ea:	683b      	ldr	r3, [r7, #0]
 80047ec:	6899      	ldr	r1, [r3, #8]
                        sClockSourceConfig->ClockPolarity,
 80047ee:	683b      	ldr	r3, [r7, #0]
 80047f0:	685a      	ldr	r2, [r3, #4]
                        sClockSourceConfig->ClockFilter);
 80047f2:	683b      	ldr	r3, [r7, #0]
 80047f4:	68db      	ldr	r3, [r3, #12]
      TIM_ETR_SetConfig(htim->Instance,
 80047f6:	f000 f950 	bl	8004a9a <TIM_ETR_SetConfig>

      /* Select the External clock mode1 and the ETRF trigger */
      tmpsmcr = htim->Instance->SMCR;
 80047fa:	687b      	ldr	r3, [r7, #4]
 80047fc:	681b      	ldr	r3, [r3, #0]
 80047fe:	689b      	ldr	r3, [r3, #8]
 8004800:	60bb      	str	r3, [r7, #8]
      tmpsmcr |= (TIM_SLAVEMODE_EXTERNAL1 | TIM_CLOCKSOURCE_ETRMODE1);
 8004802:	68bb      	ldr	r3, [r7, #8]
 8004804:	f043 0377 	orr.w	r3, r3, #119	@ 0x77
 8004808:	60bb      	str	r3, [r7, #8]
      /* Write to TIMx SMCR */
      htim->Instance->SMCR = tmpsmcr;
 800480a:	687b      	ldr	r3, [r7, #4]
 800480c:	681b      	ldr	r3, [r3, #0]
 800480e:	68ba      	ldr	r2, [r7, #8]
 8004810:	609a      	str	r2, [r3, #8]
      break;
 8004812:	e04f      	b.n	80048b4 <HAL_TIM_ConfigClockSource+0x174>
      assert_param(IS_TIM_CLOCKPRESCALER(sClockSourceConfig->ClockPrescaler));
      assert_param(IS_TIM_CLOCKPOLARITY(sClockSourceConfig->ClockPolarity));
      assert_param(IS_TIM_CLOCKFILTER(sClockSourceConfig->ClockFilter));

      /* Configure the ETR Clock source */
      TIM_ETR_SetConfig(htim->Instance,
 8004814:	687b      	ldr	r3, [r7, #4]
 8004816:	6818      	ldr	r0, [r3, #0]
                        sClockSourceConfig->ClockPrescaler,
 8004818:	683b      	ldr	r3, [r7, #0]
 800481a:	6899      	ldr	r1, [r3, #8]
                        sClockSourceConfig->ClockPolarity,
 800481c:	683b      	ldr	r3, [r7, #0]
 800481e:	685a      	ldr	r2, [r3, #4]
                        sClockSourceConfig->ClockFilter);
 8004820:	683b      	ldr	r3, [r7, #0]
 8004822:	68db      	ldr	r3, [r3, #12]
      TIM_ETR_SetConfig(htim->Instance,
 8004824:	f000 f939 	bl	8004a9a <TIM_ETR_SetConfig>
      /* Enable the External clock mode2 */
      htim->Instance->SMCR |= TIM_SMCR_ECE;
 8004828:	687b      	ldr	r3, [r7, #4]
 800482a:	681b      	ldr	r3, [r3, #0]
 800482c:	689a      	ldr	r2, [r3, #8]
 800482e:	687b      	ldr	r3, [r7, #4]
 8004830:	681b      	ldr	r3, [r3, #0]
 8004832:	f442 4280 	orr.w	r2, r2, #16384	@ 0x4000
 8004836:	609a      	str	r2, [r3, #8]
      break;
 8004838:	e03c      	b.n	80048b4 <HAL_TIM_ConfigClockSource+0x174>

      /* Check TI1 input conditioning related parameters */
      assert_param(IS_TIM_CLOCKPOLARITY(sClockSourceConfig->ClockPolarity));
      assert_param(IS_TIM_CLOCKFILTER(sClockSourceConfig->ClockFilter));

      TIM_TI1_ConfigInputStage(htim->Instance,
 800483a:	687b      	ldr	r3, [r7, #4]
 800483c:	6818      	ldr	r0, [r3, #0]
                               sClockSourceConfig->ClockPolarity,
 800483e:	683b      	ldr	r3, [r7, #0]
 8004840:	6859      	ldr	r1, [r3, #4]
                               sClockSourceConfig->ClockFilter);
 8004842:	683b      	ldr	r3, [r7, #0]
 8004844:	68db      	ldr	r3, [r3, #12]
      TIM_TI1_ConfigInputStage(htim->Instance,
 8004846:	461a      	mov	r2, r3
 8004848:	f000 f8b0 	bl	80049ac <TIM_TI1_ConfigInputStage>
      TIM_ITRx_SetConfig(htim->Instance, TIM_CLOCKSOURCE_TI1);
 800484c:	687b      	ldr	r3, [r7, #4]
 800484e:	681b      	ldr	r3, [r3, #0]
 8004850:	2150      	movs	r1, #80	@ 0x50
 8004852:	4618      	mov	r0, r3
 8004854:	f000 f907 	bl	8004a66 <TIM_ITRx_SetConfig>
      break;
 8004858:	e02c      	b.n	80048b4 <HAL_TIM_ConfigClockSource+0x174>

      /* Check TI2 input conditioning related parameters */
      assert_param(IS_TIM_CLOCKPOLARITY(sClockSourceConfig->ClockPolarity));
      assert_param(IS_TIM_CLOCKFILTER(sClockSourceConfig->ClockFilter));

      TIM_TI2_ConfigInputStage(htim->Instance,
 800485a:	687b      	ldr	r3, [r7, #4]
 800485c:	6818      	ldr	r0, [r3, #0]
                               sClockSourceConfig->ClockPolarity,
 800485e:	683b      	ldr	r3, [r7, #0]
 8004860:	6859      	ldr	r1, [r3, #4]
                               sClockSourceConfig->ClockFilter);
 8004862:	683b      	ldr	r3, [r7, #0]
 8004864:	68db      	ldr	r3, [r3, #12]
      TIM_TI2_ConfigInputStage(htim->Instance,
 8004866:	461a      	mov	r2, r3
 8004868:	f000 f8ce 	bl	8004a08 <TIM_TI2_ConfigInputStage>
      TIM_ITRx_SetConfig(htim->Instance, TIM_CLOCKSOURCE_TI2);
 800486c:	687b      	ldr	r3, [r7, #4]
 800486e:	681b      	ldr	r3, [r3, #0]
 8004870:	2160      	movs	r1, #96	@ 0x60
 8004872:	4618      	mov	r0, r3
 8004874:	f000 f8f7 	bl	8004a66 <TIM_ITRx_SetConfig>
      break;
 8004878:	e01c      	b.n	80048b4 <HAL_TIM_ConfigClockSource+0x174>

      /* Check TI1 input conditioning related parameters */
      assert_param(IS_TIM_CLOCKPOLARITY(sClockSourceConfig->ClockPolarity));
      assert_param(IS_TIM_CLOCKFILTER(sClockSourceConfig->ClockFilter));

      TIM_TI1_ConfigInputStage(htim->Instance,
 800487a:	687b      	ldr	r3, [r7, #4]
 800487c:	6818      	ldr	r0, [r3, #0]
                               sClockSourceConfig->ClockPolarity,
 800487e:	683b      	ldr	r3, [r7, #0]
 8004880:	6859      	ldr	r1, [r3, #4]
                               sClockSourceConfig->ClockFilter);
 8004882:	683b      	ldr	r3, [r7, #0]
 8004884:	68db      	ldr	r3, [r3, #12]
      TIM_TI1_ConfigInputStage(htim->Instance,
 8004886:	461a      	mov	r2, r3
 8004888:	f000 f890 	bl	80049ac <TIM_TI1_ConfigInputStage>
      TIM_ITRx_SetConfig(htim->Instance, TIM_CLOCKSOURCE_TI1ED);
 800488c:	687b      	ldr	r3, [r7, #4]
 800488e:	681b      	ldr	r3, [r3, #0]
 8004890:	2140      	movs	r1, #64	@ 0x40
 8004892:	4618      	mov	r0, r3
 8004894:	f000 f8e7 	bl	8004a66 <TIM_ITRx_SetConfig>
      break;
 8004898:	e00c      	b.n	80048b4 <HAL_TIM_ConfigClockSource+0x174>
    case TIM_CLOCKSOURCE_ITR3:
    {
      /* Check whether or not the timer instance supports internal trigger input */
      assert_param(IS_TIM_CLOCKSOURCE_ITRX_INSTANCE(htim->Instance));

      TIM_ITRx_SetConfig(htim->Instance, sClockSourceConfig->ClockSource);
 800489a:	687b      	ldr	r3, [r7, #4]
 800489c:	681a      	ldr	r2, [r3, #0]
 800489e:	683b      	ldr	r3, [r7, #0]
 80048a0:	681b      	ldr	r3, [r3, #0]
 80048a2:	4619      	mov	r1, r3
 80048a4:	4610      	mov	r0, r2
 80048a6:	f000 f8de 	bl	8004a66 <TIM_ITRx_SetConfig>
      break;
 80048aa:	e003      	b.n	80048b4 <HAL_TIM_ConfigClockSource+0x174>
    }

    default:
      status = HAL_ERROR;
 80048ac:	2301      	movs	r3, #1
 80048ae:	73fb      	strb	r3, [r7, #15]
      break;
 80048b0:	e000      	b.n	80048b4 <HAL_TIM_ConfigClockSource+0x174>
      break;
 80048b2:	bf00      	nop
  }
  htim->State = HAL_TIM_STATE_READY;
 80048b4:	687b      	ldr	r3, [r7, #4]
 80048b6:	2201      	movs	r2, #1
 80048b8:	f883 203d 	strb.w	r2, [r3, #61]	@ 0x3d

  __HAL_UNLOCK(htim);
 80048bc:	687b      	ldr	r3, [r7, #4]
 80048be:	2200      	movs	r2, #0
 80048c0:	f883 203c 	strb.w	r2, [r3, #60]	@ 0x3c

  return status;
 80048c4:	7bfb      	ldrb	r3, [r7, #15]
}
 80048c6:	4618      	mov	r0, r3
 80048c8:	3710      	adds	r7, #16
 80048ca:	46bd      	mov	sp, r7
 80048cc:	bd80      	pop	{r7, pc}
	...

080048d0 <TIM_Base_SetConfig>:
  * @param  TIMx TIM peripheral
  * @param  Structure TIM Base configuration structure
  * @retval None
  */
void TIM_Base_SetConfig(TIM_TypeDef *TIMx, const TIM_Base_InitTypeDef *Structure)
{
 80048d0:	b480      	push	{r7}
 80048d2:	b085      	sub	sp, #20
 80048d4:	af00      	add	r7, sp, #0
 80048d6:	6078      	str	r0, [r7, #4]
 80048d8:	6039      	str	r1, [r7, #0]
  uint32_t tmpcr1;
  tmpcr1 = TIMx->CR1;
 80048da:	687b      	ldr	r3, [r7, #4]
 80048dc:	681b      	ldr	r3, [r3, #0]
 80048de:	60fb      	str	r3, [r7, #12]

  /* Set TIM Time Base Unit parameters ---------------------------------------*/
  if (IS_TIM_COUNTER_MODE_SELECT_INSTANCE(TIMx))
 80048e0:	687b      	ldr	r3, [r7, #4]
 80048e2:	4a2f      	ldr	r2, [pc, #188]	@ (80049a0 <TIM_Base_SetConfig+0xd0>)
 80048e4:	4293      	cmp	r3, r2
 80048e6:	d00b      	beq.n	8004900 <TIM_Base_SetConfig+0x30>
 80048e8:	687b      	ldr	r3, [r7, #4]
 80048ea:	f1b3 4f80 	cmp.w	r3, #1073741824	@ 0x40000000
 80048ee:	d007      	beq.n	8004900 <TIM_Base_SetConfig+0x30>
 80048f0:	687b      	ldr	r3, [r7, #4]
 80048f2:	4a2c      	ldr	r2, [pc, #176]	@ (80049a4 <TIM_Base_SetConfig+0xd4>)
 80048f4:	4293      	cmp	r3, r2
 80048f6:	d003      	beq.n	8004900 <TIM_Base_SetConfig+0x30>
 80048f8:	687b      	ldr	r3, [r7, #4]
 80048fa:	4a2b      	ldr	r2, [pc, #172]	@ (80049a8 <TIM_Base_SetConfig+0xd8>)
 80048fc:	4293      	cmp	r3, r2
 80048fe:	d108      	bne.n	8004912 <TIM_Base_SetConfig+0x42>
  {
    /* Select the Counter Mode */
    tmpcr1 &= ~(TIM_CR1_DIR | TIM_CR1_CMS);
 8004900:	68fb      	ldr	r3, [r7, #12]
 8004902:	f023 0370 	bic.w	r3, r3, #112	@ 0x70
 8004906:	60fb      	str	r3, [r7, #12]
    tmpcr1 |= Structure->CounterMode;
 8004908:	683b      	ldr	r3, [r7, #0]
 800490a:	685b      	ldr	r3, [r3, #4]
 800490c:	68fa      	ldr	r2, [r7, #12]
 800490e:	4313      	orrs	r3, r2
 8004910:	60fb      	str	r3, [r7, #12]
  }

  if (IS_TIM_CLOCK_DIVISION_INSTANCE(TIMx))
 8004912:	687b      	ldr	r3, [r7, #4]
 8004914:	4a22      	ldr	r2, [pc, #136]	@ (80049a0 <TIM_Base_SetConfig+0xd0>)
 8004916:	4293      	cmp	r3, r2
 8004918:	d00b      	beq.n	8004932 <TIM_Base_SetConfig+0x62>
 800491a:	687b      	ldr	r3, [r7, #4]
 800491c:	f1b3 4f80 	cmp.w	r3, #1073741824	@ 0x40000000
 8004920:	d007      	beq.n	8004932 <TIM_Base_SetConfig+0x62>
 8004922:	687b      	ldr	r3, [r7, #4]
 8004924:	4a1f      	ldr	r2, [pc, #124]	@ (80049a4 <TIM_Base_SetConfig+0xd4>)
 8004926:	4293      	cmp	r3, r2
 8004928:	d003      	beq.n	8004932 <TIM_Base_SetConfig+0x62>
 800492a:	687b      	ldr	r3, [r7, #4]
 800492c:	4a1e      	ldr	r2, [pc, #120]	@ (80049a8 <TIM_Base_SetConfig+0xd8>)
 800492e:	4293      	cmp	r3, r2
 8004930:	d108      	bne.n	8004944 <TIM_Base_SetConfig+0x74>
  {
    /* Set the clock division */
    tmpcr1 &= ~TIM_CR1_CKD;
 8004932:	68fb      	ldr	r3, [r7, #12]
 8004934:	f423 7340 	bic.w	r3, r3, #768	@ 0x300
 8004938:	60fb      	str	r3, [r7, #12]
    tmpcr1 |= (uint32_t)Structure->ClockDivision;
 800493a:	683b      	ldr	r3, [r7, #0]
 800493c:	68db      	ldr	r3, [r3, #12]
 800493e:	68fa      	ldr	r2, [r7, #12]
 8004940:	4313      	orrs	r3, r2
 8004942:	60fb      	str	r3, [r7, #12]
  }

  /* Set the auto-reload preload */
  MODIFY_REG(tmpcr1, TIM_CR1_ARPE, Structure->AutoReloadPreload);
 8004944:	68fb      	ldr	r3, [r7, #12]
 8004946:	f023 0280 	bic.w	r2, r3, #128	@ 0x80
 800494a:	683b      	ldr	r3, [r7, #0]
 800494c:	695b      	ldr	r3, [r3, #20]
 800494e:	4313      	orrs	r3, r2
 8004950:	60fb      	str	r3, [r7, #12]

  TIMx->CR1 = tmpcr1;
 8004952:	687b      	ldr	r3, [r7, #4]
 8004954:	68fa      	ldr	r2, [r7, #12]
 8004956:	601a      	str	r2, [r3, #0]

  /* Set the Autoreload value */
  TIMx->ARR = (uint32_t)Structure->Period ;
 8004958:	683b      	ldr	r3, [r7, #0]
 800495a:	689a      	ldr	r2, [r3, #8]
 800495c:	687b      	ldr	r3, [r7, #4]
 800495e:	62da      	str	r2, [r3, #44]	@ 0x2c

  /* Set the Prescaler value */
  TIMx->PSC = Structure->Prescaler;
 8004960:	683b      	ldr	r3, [r7, #0]
 8004962:	681a      	ldr	r2, [r3, #0]
 8004964:	687b      	ldr	r3, [r7, #4]
 8004966:	629a      	str	r2, [r3, #40]	@ 0x28

  if (IS_TIM_REPETITION_COUNTER_INSTANCE(TIMx))
 8004968:	687b      	ldr	r3, [r7, #4]
 800496a:	4a0d      	ldr	r2, [pc, #52]	@ (80049a0 <TIM_Base_SetConfig+0xd0>)
 800496c:	4293      	cmp	r3, r2
 800496e:	d103      	bne.n	8004978 <TIM_Base_SetConfig+0xa8>
  {
    /* Set the Repetition Counter value */
    TIMx->RCR = Structure->RepetitionCounter;
 8004970:	683b      	ldr	r3, [r7, #0]
 8004972:	691a      	ldr	r2, [r3, #16]
 8004974:	687b      	ldr	r3, [r7, #4]
 8004976:	631a      	str	r2, [r3, #48]	@ 0x30
  }

  /* Generate an update event to reload the Prescaler
     and the repetition counter (only for advanced timer) value immediately */
  TIMx->EGR = TIM_EGR_UG;
 8004978:	687b      	ldr	r3, [r7, #4]
 800497a:	2201      	movs	r2, #1
 800497c:	615a      	str	r2, [r3, #20]

  /* Check if the update flag is set after the Update Generation, if so clear the UIF flag */
  if (HAL_IS_BIT_SET(TIMx->SR, TIM_FLAG_UPDATE))
 800497e:	687b      	ldr	r3, [r7, #4]
 8004980:	691b      	ldr	r3, [r3, #16]
 8004982:	f003 0301 	and.w	r3, r3, #1
 8004986:	2b00      	cmp	r3, #0
 8004988:	d005      	beq.n	8004996 <TIM_Base_SetConfig+0xc6>
  {
    /* Clear the update flag */
    CLEAR_BIT(TIMx->SR, TIM_FLAG_UPDATE);
 800498a:	687b      	ldr	r3, [r7, #4]
 800498c:	691b      	ldr	r3, [r3, #16]
 800498e:	f023 0201 	bic.w	r2, r3, #1
 8004992:	687b      	ldr	r3, [r7, #4]
 8004994:	611a      	str	r2, [r3, #16]
  }
}
 8004996:	bf00      	nop
 8004998:	3714      	adds	r7, #20
 800499a:	46bd      	mov	sp, r7
 800499c:	bc80      	pop	{r7}
 800499e:	4770      	bx	lr
 80049a0:	40012c00 	.word	0x40012c00
 80049a4:	40000400 	.word	0x40000400
 80049a8:	40000800 	.word	0x40000800

080049ac <TIM_TI1_ConfigInputStage>:
  * @param  TIM_ICFilter Specifies the Input Capture Filter.
  *          This parameter must be a value between 0x00 and 0x0F.
  * @retval None
  */
static void TIM_TI1_ConfigInputStage(TIM_TypeDef *TIMx, uint32_t TIM_ICPolarity, uint32_t TIM_ICFilter)
{
 80049ac:	b480      	push	{r7}
 80049ae:	b087      	sub	sp, #28
 80049b0:	af00      	add	r7, sp, #0
 80049b2:	60f8      	str	r0, [r7, #12]
 80049b4:	60b9      	str	r1, [r7, #8]
 80049b6:	607a      	str	r2, [r7, #4]
  uint32_t tmpccmr1;
  uint32_t tmpccer;

  /* Disable the Channel 1: Reset the CC1E Bit */
  tmpccer = TIMx->CCER;
 80049b8:	68fb      	ldr	r3, [r7, #12]
 80049ba:	6a1b      	ldr	r3, [r3, #32]
 80049bc:	617b      	str	r3, [r7, #20]
  TIMx->CCER &= ~TIM_CCER_CC1E;
 80049be:	68fb      	ldr	r3, [r7, #12]
 80049c0:	6a1b      	ldr	r3, [r3, #32]
 80049c2:	f023 0201 	bic.w	r2, r3, #1
 80049c6:	68fb      	ldr	r3, [r7, #12]
 80049c8:	621a      	str	r2, [r3, #32]
  tmpccmr1 = TIMx->CCMR1;
 80049ca:	68fb      	ldr	r3, [r7, #12]
 80049cc:	699b      	ldr	r3, [r3, #24]
 80049ce:	613b      	str	r3, [r7, #16]

  /* Set the filter */
  tmpccmr1 &= ~TIM_CCMR1_IC1F;
 80049d0:	693b      	ldr	r3, [r7, #16]
 80049d2:	f023 03f0 	bic.w	r3, r3, #240	@ 0xf0
 80049d6:	613b      	str	r3, [r7, #16]
  tmpccmr1 |= (TIM_ICFilter << 4U);
 80049d8:	687b      	ldr	r3, [r7, #4]
 80049da:	011b      	lsls	r3, r3, #4
 80049dc:	693a      	ldr	r2, [r7, #16]
 80049de:	4313      	orrs	r3, r2
 80049e0:	613b      	str	r3, [r7, #16]

  /* Select the Polarity and set the CC1E Bit */
  tmpccer &= ~(TIM_CCER_CC1P | TIM_CCER_CC1NP);
 80049e2:	697b      	ldr	r3, [r7, #20]
 80049e4:	f023 030a 	bic.w	r3, r3, #10
 80049e8:	617b      	str	r3, [r7, #20]
  tmpccer |= TIM_ICPolarity;
 80049ea:	697a      	ldr	r2, [r7, #20]
 80049ec:	68bb      	ldr	r3, [r7, #8]
 80049ee:	4313      	orrs	r3, r2
 80049f0:	617b      	str	r3, [r7, #20]

  /* Write to TIMx CCMR1 and CCER registers */
  TIMx->CCMR1 = tmpccmr1;
 80049f2:	68fb      	ldr	r3, [r7, #12]
 80049f4:	693a      	ldr	r2, [r7, #16]
 80049f6:	619a      	str	r2, [r3, #24]
  TIMx->CCER = tmpccer;
 80049f8:	68fb      	ldr	r3, [r7, #12]
 80049fa:	697a      	ldr	r2, [r7, #20]
 80049fc:	621a      	str	r2, [r3, #32]
}
 80049fe:	bf00      	nop
 8004a00:	371c      	adds	r7, #28
 8004a02:	46bd      	mov	sp, r7
 8004a04:	bc80      	pop	{r7}
 8004a06:	4770      	bx	lr

08004a08 <TIM_TI2_ConfigInputStage>:
  * @param  TIM_ICFilter Specifies the Input Capture Filter.
  *          This parameter must be a value between 0x00 and 0x0F.
  * @retval None
  */
static void TIM_TI2_ConfigInputStage(TIM_TypeDef *TIMx, uint32_t TIM_ICPolarity, uint32_t TIM_ICFilter)
{
 8004a08:	b480      	push	{r7}
 8004a0a:	b087      	sub	sp, #28
 8004a0c:	af00      	add	r7, sp, #0
 8004a0e:	60f8      	str	r0, [r7, #12]
 8004a10:	60b9      	str	r1, [r7, #8]
 8004a12:	607a      	str	r2, [r7, #4]
  uint32_t tmpccmr1;
  uint32_t tmpccer;

  /* Disable the Channel 2: Reset the CC2E Bit */
  tmpccer = TIMx->CCER;
 8004a14:	68fb      	ldr	r3, [r7, #12]
 8004a16:	6a1b      	ldr	r3, [r3, #32]
 8004a18:	617b      	str	r3, [r7, #20]
  TIMx->CCER &= ~TIM_CCER_CC2E;
 8004a1a:	68fb      	ldr	r3, [r7, #12]
 8004a1c:	6a1b      	ldr	r3, [r3, #32]
 8004a1e:	f023 0210 	bic.w	r2, r3, #16
 8004a22:	68fb      	ldr	r3, [r7, #12]
 8004a24:	621a      	str	r2, [r3, #32]
  tmpccmr1 = TIMx->CCMR1;
 8004a26:	68fb      	ldr	r3, [r7, #12]
 8004a28:	699b      	ldr	r3, [r3, #24]
 8004a2a:	613b      	str	r3, [r7, #16]

  /* Set the filter */
  tmpccmr1 &= ~TIM_CCMR1_IC2F;
 8004a2c:	693b      	ldr	r3, [r7, #16]
 8004a2e:	f423 4370 	bic.w	r3, r3, #61440	@ 0xf000
 8004a32:	613b      	str	r3, [r7, #16]
  tmpccmr1 |= (TIM_ICFilter << 12U);
 8004a34:	687b      	ldr	r3, [r7, #4]
 8004a36:	031b      	lsls	r3, r3, #12
 8004a38:	693a      	ldr	r2, [r7, #16]
 8004a3a:	4313      	orrs	r3, r2
 8004a3c:	613b      	str	r3, [r7, #16]

  /* Select the Polarity and set the CC2E Bit */
  tmpccer &= ~(TIM_CCER_CC2P | TIM_CCER_CC2NP);
 8004a3e:	697b      	ldr	r3, [r7, #20]
 8004a40:	f023 03a0 	bic.w	r3, r3, #160	@ 0xa0
 8004a44:	617b      	str	r3, [r7, #20]
  tmpccer |= (TIM_ICPolarity << 4U);
 8004a46:	68bb      	ldr	r3, [r7, #8]
 8004a48:	011b      	lsls	r3, r3, #4
 8004a4a:	697a      	ldr	r2, [r7, #20]
 8004a4c:	4313      	orrs	r3, r2
 8004a4e:	617b      	str	r3, [r7, #20]

  /* Write to TIMx CCMR1 and CCER registers */
  TIMx->CCMR1 = tmpccmr1 ;
 8004a50:	68fb      	ldr	r3, [r7, #12]
 8004a52:	693a      	ldr	r2, [r7, #16]
 8004a54:	619a      	str	r2, [r3, #24]
  TIMx->CCER = tmpccer;
 8004a56:	68fb      	ldr	r3, [r7, #12]
 8004a58:	697a      	ldr	r2, [r7, #20]
 8004a5a:	621a      	str	r2, [r3, #32]
}
 8004a5c:	bf00      	nop
 8004a5e:	371c      	adds	r7, #28
 8004a60:	46bd      	mov	sp, r7
 8004a62:	bc80      	pop	{r7}
 8004a64:	4770      	bx	lr

08004a66 <TIM_ITRx_SetConfig>:
  *            @arg TIM_TS_TI2FP2: Filtered Timer Input 2
  *            @arg TIM_TS_ETRF: External Trigger input
  * @retval None
  */
static void TIM_ITRx_SetConfig(TIM_TypeDef *TIMx, uint32_t InputTriggerSource)
{
 8004a66:	b480      	push	{r7}
 8004a68:	b085      	sub	sp, #20
 8004a6a:	af00      	add	r7, sp, #0
 8004a6c:	6078      	str	r0, [r7, #4]
 8004a6e:	6039      	str	r1, [r7, #0]
  uint32_t tmpsmcr;

  /* Get the TIMx SMCR register value */
  tmpsmcr = TIMx->SMCR;
 8004a70:	687b      	ldr	r3, [r7, #4]
 8004a72:	689b      	ldr	r3, [r3, #8]
 8004a74:	60fb      	str	r3, [r7, #12]
  /* Reset the TS Bits */
  tmpsmcr &= ~TIM_SMCR_TS;
 8004a76:	68fb      	ldr	r3, [r7, #12]
 8004a78:	f023 0370 	bic.w	r3, r3, #112	@ 0x70
 8004a7c:	60fb      	str	r3, [r7, #12]
  /* Set the Input Trigger source and the slave mode*/
  tmpsmcr |= (InputTriggerSource | TIM_SLAVEMODE_EXTERNAL1);
 8004a7e:	683a      	ldr	r2, [r7, #0]
 8004a80:	68fb      	ldr	r3, [r7, #12]
 8004a82:	4313      	orrs	r3, r2
 8004a84:	f043 0307 	orr.w	r3, r3, #7
 8004a88:	60fb      	str	r3, [r7, #12]
  /* Write to TIMx SMCR */
  TIMx->SMCR = tmpsmcr;
 8004a8a:	687b      	ldr	r3, [r7, #4]
 8004a8c:	68fa      	ldr	r2, [r7, #12]
 8004a8e:	609a      	str	r2, [r3, #8]
}
 8004a90:	bf00      	nop
 8004a92:	3714      	adds	r7, #20
 8004a94:	46bd      	mov	sp, r7
 8004a96:	bc80      	pop	{r7}
 8004a98:	4770      	bx	lr

08004a9a <TIM_ETR_SetConfig>:
  *          This parameter must be a value between 0x00 and 0x0F
  * @retval None
  */
void TIM_ETR_SetConfig(TIM_TypeDef *TIMx, uint32_t TIM_ExtTRGPrescaler,
                       uint32_t TIM_ExtTRGPolarity, uint32_t ExtTRGFilter)
{
 8004a9a:	b480      	push	{r7}
 8004a9c:	b087      	sub	sp, #28
 8004a9e:	af00      	add	r7, sp, #0
 8004aa0:	60f8      	str	r0, [r7, #12]
 8004aa2:	60b9      	str	r1, [r7, #8]
 8004aa4:	607a      	str	r2, [r7, #4]
 8004aa6:	603b      	str	r3, [r7, #0]
  uint32_t tmpsmcr;

  tmpsmcr = TIMx->SMCR;
 8004aa8:	68fb      	ldr	r3, [r7, #12]
 8004aaa:	689b      	ldr	r3, [r3, #8]
 8004aac:	617b      	str	r3, [r7, #20]

  /* Reset the ETR Bits */
  tmpsmcr &= ~(TIM_SMCR_ETF | TIM_SMCR_ETPS | TIM_SMCR_ECE | TIM_SMCR_ETP);
 8004aae:	697b      	ldr	r3, [r7, #20]
 8004ab0:	f423 437f 	bic.w	r3, r3, #65280	@ 0xff00
 8004ab4:	617b      	str	r3, [r7, #20]

  /* Set the Prescaler, the Filter value and the Polarity */
  tmpsmcr |= (uint32_t)(TIM_ExtTRGPrescaler | (TIM_ExtTRGPolarity | (ExtTRGFilter << 8U)));
 8004ab6:	683b      	ldr	r3, [r7, #0]
 8004ab8:	021a      	lsls	r2, r3, #8
 8004aba:	687b      	ldr	r3, [r7, #4]
 8004abc:	431a      	orrs	r2, r3
 8004abe:	68bb      	ldr	r3, [r7, #8]
 8004ac0:	4313      	orrs	r3, r2
 8004ac2:	697a      	ldr	r2, [r7, #20]
 8004ac4:	4313      	orrs	r3, r2
 8004ac6:	617b      	str	r3, [r7, #20]

  /* Write to TIMx SMCR */
  TIMx->SMCR = tmpsmcr;
 8004ac8:	68fb      	ldr	r3, [r7, #12]
 8004aca:	697a      	ldr	r2, [r7, #20]
 8004acc:	609a      	str	r2, [r3, #8]
}
 8004ace:	bf00      	nop
 8004ad0:	371c      	adds	r7, #28
 8004ad2:	46bd      	mov	sp, r7
 8004ad4:	bc80      	pop	{r7}
 8004ad6:	4770      	bx	lr

08004ad8 <HAL_TIMEx_MasterConfigSynchronization>:
  *         mode.
  * @retval HAL status
  */
HAL_StatusTypeDef HAL_TIMEx_MasterConfigSynchronization(TIM_HandleTypeDef *htim,
                                                        const TIM_MasterConfigTypeDef *sMasterConfig)
{
 8004ad8:	b480      	push	{r7}
 8004ada:	b085      	sub	sp, #20
 8004adc:	af00      	add	r7, sp, #0
 8004ade:	6078      	str	r0, [r7, #4]
 8004ae0:	6039      	str	r1, [r7, #0]
  assert_param(IS_TIM_MASTER_INSTANCE(htim->Instance));
  assert_param(IS_TIM_TRGO_SOURCE(sMasterConfig->MasterOutputTrigger));
  assert_param(IS_TIM_MSM_STATE(sMasterConfig->MasterSlaveMode));

  /* Check input state */
  __HAL_LOCK(htim);
 8004ae2:	687b      	ldr	r3, [r7, #4]
 8004ae4:	f893 303c 	ldrb.w	r3, [r3, #60]	@ 0x3c
 8004ae8:	2b01      	cmp	r3, #1
 8004aea:	d101      	bne.n	8004af0 <HAL_TIMEx_MasterConfigSynchronization+0x18>
 8004aec:	2302      	movs	r3, #2
 8004aee:	e046      	b.n	8004b7e <HAL_TIMEx_MasterConfigSynchronization+0xa6>
 8004af0:	687b      	ldr	r3, [r7, #4]
 8004af2:	2201      	movs	r2, #1
 8004af4:	f883 203c 	strb.w	r2, [r3, #60]	@ 0x3c

  /* Change the handler state */
  htim->State = HAL_TIM_STATE_BUSY;
 8004af8:	687b      	ldr	r3, [r7, #4]
 8004afa:	2202      	movs	r2, #2
 8004afc:	f883 203d 	strb.w	r2, [r3, #61]	@ 0x3d

  /* Get the TIMx CR2 register value */
  tmpcr2 = htim->Instance->CR2;
 8004b00:	687b      	ldr	r3, [r7, #4]
 8004b02:	681b      	ldr	r3, [r3, #0]
 8004b04:	685b      	ldr	r3, [r3, #4]
 8004b06:	60fb      	str	r3, [r7, #12]

  /* Get the TIMx SMCR register value */
  tmpsmcr = htim->Instance->SMCR;
 8004b08:	687b      	ldr	r3, [r7, #4]
 8004b0a:	681b      	ldr	r3, [r3, #0]
 8004b0c:	689b      	ldr	r3, [r3, #8]
 8004b0e:	60bb      	str	r3, [r7, #8]

  /* Reset the MMS Bits */
  tmpcr2 &= ~TIM_CR2_MMS;
 8004b10:	68fb      	ldr	r3, [r7, #12]
 8004b12:	f023 0370 	bic.w	r3, r3, #112	@ 0x70
 8004b16:	60fb      	str	r3, [r7, #12]
  /* Select the TRGO source */
  tmpcr2 |=  sMasterConfig->MasterOutputTrigger;
 8004b18:	683b      	ldr	r3, [r7, #0]
 8004b1a:	681b      	ldr	r3, [r3, #0]
 8004b1c:	68fa      	ldr	r2, [r7, #12]
 8004b1e:	4313      	orrs	r3, r2
 8004b20:	60fb      	str	r3, [r7, #12]

  /* Update TIMx CR2 */
  htim->Instance->CR2 = tmpcr2;
 8004b22:	687b      	ldr	r3, [r7, #4]
 8004b24:	681b      	ldr	r3, [r3, #0]
 8004b26:	68fa      	ldr	r2, [r7, #12]
 8004b28:	605a      	str	r2, [r3, #4]

  if (IS_TIM_SLAVE_INSTANCE(htim->Instance))
 8004b2a:	687b      	ldr	r3, [r7, #4]
 8004b2c:	681b      	ldr	r3, [r3, #0]
 8004b2e:	4a16      	ldr	r2, [pc, #88]	@ (8004b88 <HAL_TIMEx_MasterConfigSynchronization+0xb0>)
 8004b30:	4293      	cmp	r3, r2
 8004b32:	d00e      	beq.n	8004b52 <HAL_TIMEx_MasterConfigSynchronization+0x7a>
 8004b34:	687b      	ldr	r3, [r7, #4]
 8004b36:	681b      	ldr	r3, [r3, #0]
 8004b38:	f1b3 4f80 	cmp.w	r3, #1073741824	@ 0x40000000
 8004b3c:	d009      	beq.n	8004b52 <HAL_TIMEx_MasterConfigSynchronization+0x7a>
 8004b3e:	687b      	ldr	r3, [r7, #4]
 8004b40:	681b      	ldr	r3, [r3, #0]
 8004b42:	4a12      	ldr	r2, [pc, #72]	@ (8004b8c <HAL_TIMEx_MasterConfigSynchronization+0xb4>)
 8004b44:	4293      	cmp	r3, r2
 8004b46:	d004      	beq.n	8004b52 <HAL_TIMEx_MasterConfigSynchronization+0x7a>
 8004b48:	687b      	ldr	r3, [r7, #4]
 8004b4a:	681b      	ldr	r3, [r3, #0]
 8004b4c:	4a10      	ldr	r2, [pc, #64]	@ (8004b90 <HAL_TIMEx_MasterConfigSynchronization+0xb8>)
 8004b4e:	4293      	cmp	r3, r2
 8004b50:	d10c      	bne.n	8004b6c <HAL_TIMEx_MasterConfigSynchronization+0x94>
  {
    /* Reset the MSM Bit */
    tmpsmcr &= ~TIM_SMCR_MSM;
 8004b52:	68bb      	ldr	r3, [r7, #8]
 8004b54:	f023 0380 	bic.w	r3, r3, #128	@ 0x80
 8004b58:	60bb      	str	r3, [r7, #8]
    /* Set master mode */
    tmpsmcr |= sMasterConfig->MasterSlaveMode;
 8004b5a:	683b      	ldr	r3, [r7, #0]
 8004b5c:	685b      	ldr	r3, [r3, #4]
 8004b5e:	68ba      	ldr	r2, [r7, #8]
 8004b60:	4313      	orrs	r3, r2
 8004b62:	60bb      	str	r3, [r7, #8]

    /* Update TIMx SMCR */
    htim->Instance->SMCR = tmpsmcr;
 8004b64:	687b      	ldr	r3, [r7, #4]
 8004b66:	681b      	ldr	r3, [r3, #0]
 8004b68:	68ba      	ldr	r2, [r7, #8]
 8004b6a:	609a      	str	r2, [r3, #8]
  }

  /* Change the htim state */
  htim->State = HAL_TIM_STATE_READY;
 8004b6c:	687b      	ldr	r3, [r7, #4]
 8004b6e:	2201      	movs	r2, #1
 8004b70:	f883 203d 	strb.w	r2, [r3, #61]	@ 0x3d

  __HAL_UNLOCK(htim);
 8004b74:	687b      	ldr	r3, [r7, #4]
 8004b76:	2200      	movs	r2, #0
 8004b78:	f883 203c 	strb.w	r2, [r3, #60]	@ 0x3c

  return HAL_OK;
 8004b7c:	2300      	movs	r3, #0
}
 8004b7e:	4618      	mov	r0, r3
 8004b80:	3714      	adds	r7, #20
 8004b82:	46bd      	mov	sp, r7
 8004b84:	bc80      	pop	{r7}
 8004b86:	4770      	bx	lr
 8004b88:	40012c00 	.word	0x40012c00
 8004b8c:	40000400 	.word	0x40000400
 8004b90:	40000800 	.word	0x40000800

08004b94 <HAL_UART_Init>:
  * @param  huart  Pointer to a UART_HandleTypeDef structure that contains
  *                the configuration information for the specified UART module.
  * @retval HAL status
  */
HAL_StatusTypeDef HAL_UART_Init(UART_HandleTypeDef *huart)
{
 8004b94:	b580      	push	{r7, lr}
 8004b96:	b082      	sub	sp, #8
 8004b98:	af00      	add	r7, sp, #0
 8004b9a:	6078      	str	r0, [r7, #4]
  /* Check the UART handle allocation */
  if (huart == NULL)
 8004b9c:	687b      	ldr	r3, [r7, #4]
 8004b9e:	2b00      	cmp	r3, #0
 8004ba0:	d101      	bne.n	8004ba6 <HAL_UART_Init+0x12>
  {
    return HAL_ERROR;
 8004ba2:	2301      	movs	r3, #1
 8004ba4:	e042      	b.n	8004c2c <HAL_UART_Init+0x98>
  assert_param(IS_UART_WORD_LENGTH(huart->Init.WordLength));
#if defined(USART_CR1_OVER8)
  assert_param(IS_UART_OVERSAMPLING(huart->Init.OverSampling));
#endif /* USART_CR1_OVER8 */

  if (huart->gState == HAL_UART_STATE_RESET)
 8004ba6:	687b      	ldr	r3, [r7, #4]
 8004ba8:	f893 3041 	ldrb.w	r3, [r3, #65]	@ 0x41
 8004bac:	b2db      	uxtb	r3, r3
 8004bae:	2b00      	cmp	r3, #0
 8004bb0:	d106      	bne.n	8004bc0 <HAL_UART_Init+0x2c>
  {
    /* Allocate lock resource and initialize it */
    huart->Lock = HAL_UNLOCKED;
 8004bb2:	687b      	ldr	r3, [r7, #4]
 8004bb4:	2200      	movs	r2, #0
 8004bb6:	f883 2040 	strb.w	r2, [r3, #64]	@ 0x40

    /* Init the low level hardware */
    huart->MspInitCallback(huart);
#else
    /* Init the low level hardware : GPIO, CLOCK */
    HAL_UART_MspInit(huart);
 8004bba:	6878      	ldr	r0, [r7, #4]
 8004bbc:	f7fd f98e 	bl	8001edc <HAL_UART_MspInit>
#endif /* (USE_HAL_UART_REGISTER_CALLBACKS) */
  }

  huart->gState = HAL_UART_STATE_BUSY;
 8004bc0:	687b      	ldr	r3, [r7, #4]
 8004bc2:	2224      	movs	r2, #36	@ 0x24
 8004bc4:	f883 2041 	strb.w	r2, [r3, #65]	@ 0x41

  /* Disable the peripheral */
  __HAL_UART_DISABLE(huart);
 8004bc8:	687b      	ldr	r3, [r7, #4]
 8004bca:	681b      	ldr	r3, [r3, #0]
 8004bcc:	68da      	ldr	r2, [r3, #12]
 8004bce:	687b      	ldr	r3, [r7, #4]
 8004bd0:	681b      	ldr	r3, [r3, #0]
 8004bd2:	f422 5200 	bic.w	r2, r2, #8192	@ 0x2000
 8004bd6:	60da      	str	r2, [r3, #12]

  /* Set the UART Communication parameters */
  UART_SetConfig(huart);
 8004bd8:	6878      	ldr	r0, [r7, #4]
 8004bda:	f000 f82b 	bl	8004c34 <UART_SetConfig>

  /* In asynchronous mode, the following bits must be kept cleared:
     - LINEN and CLKEN bits in the USART_CR2 register,
     - SCEN, HDSEL and IREN  bits in the USART_CR3 register.*/
  CLEAR_BIT(huart->Instance->CR2, (USART_CR2_LINEN | USART_CR2_CLKEN));
 8004bde:	687b      	ldr	r3, [r7, #4]
 8004be0:	681b      	ldr	r3, [r3, #0]
 8004be2:	691a      	ldr	r2, [r3, #16]
 8004be4:	687b      	ldr	r3, [r7, #4]
 8004be6:	681b      	ldr	r3, [r3, #0]
 8004be8:	f422 4290 	bic.w	r2, r2, #18432	@ 0x4800
 8004bec:	611a      	str	r2, [r3, #16]
  CLEAR_BIT(huart->Instance->CR3, (USART_CR3_SCEN | USART_CR3_HDSEL | USART_CR3_IREN));
 8004bee:	687b      	ldr	r3, [r7, #4]
 8004bf0:	681b      	ldr	r3, [r3, #0]
 8004bf2:	695a      	ldr	r2, [r3, #20]
 8004bf4:	687b      	ldr	r3, [r7, #4]
 8004bf6:	681b      	ldr	r3, [r3, #0]
 8004bf8:	f022 022a 	bic.w	r2, r2, #42	@ 0x2a
 8004bfc:	615a      	str	r2, [r3, #20]

  /* Enable the peripheral */
  __HAL_UART_ENABLE(huart);
 8004bfe:	687b      	ldr	r3, [r7, #4]
 8004c00:	681b      	ldr	r3, [r3, #0]
 8004c02:	68da      	ldr	r2, [r3, #12]
 8004c04:	687b      	ldr	r3, [r7, #4]
 8004c06:	681b      	ldr	r3, [r3, #0]
 8004c08:	f442 5200 	orr.w	r2, r2, #8192	@ 0x2000
 8004c0c:	60da      	str	r2, [r3, #12]

  /* Initialize the UART state */
  huart->ErrorCode = HAL_UART_ERROR_NONE;
 8004c0e:	687b      	ldr	r3, [r7, #4]
 8004c10:	2200      	movs	r2, #0
 8004c12:	645a      	str	r2, [r3, #68]	@ 0x44
  huart->gState = HAL_UART_STATE_READY;
 8004c14:	687b      	ldr	r3, [r7, #4]
 8004c16:	2220      	movs	r2, #32
 8004c18:	f883 2041 	strb.w	r2, [r3, #65]	@ 0x41
  huart->RxState = HAL_UART_STATE_READY;
 8004c1c:	687b      	ldr	r3, [r7, #4]
 8004c1e:	2220      	movs	r2, #32
 8004c20:	f883 2042 	strb.w	r2, [r3, #66]	@ 0x42
  huart->RxEventType = HAL_UART_RXEVENT_TC;
 8004c24:	687b      	ldr	r3, [r7, #4]
 8004c26:	2200      	movs	r2, #0
 8004c28:	635a      	str	r2, [r3, #52]	@ 0x34

  return HAL_OK;
 8004c2a:	2300      	movs	r3, #0
}
 8004c2c:	4618      	mov	r0, r3
 8004c2e:	3708      	adds	r7, #8
 8004c30:	46bd      	mov	sp, r7
 8004c32:	bd80      	pop	{r7, pc}

08004c34 <UART_SetConfig>:
  * @param  huart  Pointer to a UART_HandleTypeDef structure that contains
  *                the configuration information for the specified UART module.
  * @retval None
  */
static void UART_SetConfig(UART_HandleTypeDef *huart)
{
 8004c34:	b580      	push	{r7, lr}
 8004c36:	b084      	sub	sp, #16
 8004c38:	af00      	add	r7, sp, #0
 8004c3a:	6078      	str	r0, [r7, #4]
  assert_param(IS_UART_MODE(huart->Init.Mode));

  /*-------------------------- USART CR2 Configuration -----------------------*/
  /* Configure the UART Stop Bits: Set STOP[13:12] bits
     according to huart->Init.StopBits value */
  MODIFY_REG(huart->Instance->CR2, USART_CR2_STOP, huart->Init.StopBits);
 8004c3c:	687b      	ldr	r3, [r7, #4]
 8004c3e:	681b      	ldr	r3, [r3, #0]
 8004c40:	691b      	ldr	r3, [r3, #16]
 8004c42:	f423 5140 	bic.w	r1, r3, #12288	@ 0x3000
 8004c46:	687b      	ldr	r3, [r7, #4]
 8004c48:	68da      	ldr	r2, [r3, #12]
 8004c4a:	687b      	ldr	r3, [r7, #4]
 8004c4c:	681b      	ldr	r3, [r3, #0]
 8004c4e:	430a      	orrs	r2, r1
 8004c50:	611a      	str	r2, [r3, #16]
  tmpreg = (uint32_t)huart->Init.WordLength | huart->Init.Parity | huart->Init.Mode | huart->Init.OverSampling;
  MODIFY_REG(huart->Instance->CR1,
             (uint32_t)(USART_CR1_M | USART_CR1_PCE | USART_CR1_PS | USART_CR1_TE | USART_CR1_RE | USART_CR1_OVER8),
             tmpreg);
#else
  tmpreg = (uint32_t)huart->Init.WordLength | huart->Init.Parity | huart->Init.Mode;
 8004c52:	687b      	ldr	r3, [r7, #4]
 8004c54:	689a      	ldr	r2, [r3, #8]
 8004c56:	687b      	ldr	r3, [r7, #4]
 8004c58:	691b      	ldr	r3, [r3, #16]
 8004c5a:	431a      	orrs	r2, r3
 8004c5c:	687b      	ldr	r3, [r7, #4]
 8004c5e:	695b      	ldr	r3, [r3, #20]
 8004c60:	4313      	orrs	r3, r2
 8004c62:	60bb      	str	r3, [r7, #8]
  MODIFY_REG(huart->Instance->CR1,
 8004c64:	687b      	ldr	r3, [r7, #4]
 8004c66:	681b      	ldr	r3, [r3, #0]
 8004c68:	68db      	ldr	r3, [r3, #12]
 8004c6a:	f423 53b0 	bic.w	r3, r3, #5632	@ 0x1600
 8004c6e:	f023 030c 	bic.w	r3, r3, #12
 8004c72:	687a      	ldr	r2, [r7, #4]
 8004c74:	6812      	ldr	r2, [r2, #0]
 8004c76:	68b9      	ldr	r1, [r7, #8]
 8004c78:	430b      	orrs	r3, r1
 8004c7a:	60d3      	str	r3, [r2, #12]
             tmpreg);
#endif /* USART_CR1_OVER8 */

  /*-------------------------- USART CR3 Configuration -----------------------*/
  /* Configure the UART HFC: Set CTSE and RTSE bits according to huart->Init.HwFlowCtl value */
  MODIFY_REG(huart->Instance->CR3, (USART_CR3_RTSE | USART_CR3_CTSE), huart->Init.HwFlowCtl);
 8004c7c:	687b      	ldr	r3, [r7, #4]
 8004c7e:	681b      	ldr	r3, [r3, #0]
 8004c80:	695b      	ldr	r3, [r3, #20]
 8004c82:	f423 7140 	bic.w	r1, r3, #768	@ 0x300
 8004c86:	687b      	ldr	r3, [r7, #4]
 8004c88:	699a      	ldr	r2, [r3, #24]
 8004c8a:	687b      	ldr	r3, [r7, #4]
 8004c8c:	681b      	ldr	r3, [r3, #0]
 8004c8e:	430a      	orrs	r2, r1
 8004c90:	615a      	str	r2, [r3, #20]


  if(huart->Instance == USART1)
 8004c92:	687b      	ldr	r3, [r7, #4]
 8004c94:	681b      	ldr	r3, [r3, #0]
 8004c96:	4a2c      	ldr	r2, [pc, #176]	@ (8004d48 <UART_SetConfig+0x114>)
 8004c98:	4293      	cmp	r3, r2
 8004c9a:	d103      	bne.n	8004ca4 <UART_SetConfig+0x70>
  {
    pclk = HAL_RCC_GetPCLK2Freq();
 8004c9c:	f7ff f8c8 	bl	8003e30 <HAL_RCC_GetPCLK2Freq>
 8004ca0:	60f8      	str	r0, [r7, #12]
 8004ca2:	e002      	b.n	8004caa <UART_SetConfig+0x76>
  }
  else
  {
    pclk = HAL_RCC_GetPCLK1Freq();
 8004ca4:	f7ff f8b0 	bl	8003e08 <HAL_RCC_GetPCLK1Freq>
 8004ca8:	60f8      	str	r0, [r7, #12]
  else
  {
    huart->Instance->BRR = UART_BRR_SAMPLING16(pclk, huart->Init.BaudRate);
  }
#else
  huart->Instance->BRR = UART_BRR_SAMPLING16(pclk, huart->Init.BaudRate);
 8004caa:	68fa      	ldr	r2, [r7, #12]
 8004cac:	4613      	mov	r3, r2
 8004cae:	009b      	lsls	r3, r3, #2
 8004cb0:	4413      	add	r3, r2
 8004cb2:	009a      	lsls	r2, r3, #2
 8004cb4:	441a      	add	r2, r3
 8004cb6:	687b      	ldr	r3, [r7, #4]
 8004cb8:	685b      	ldr	r3, [r3, #4]
 8004cba:	009b      	lsls	r3, r3, #2
 8004cbc:	fbb2 f3f3 	udiv	r3, r2, r3
 8004cc0:	4a22      	ldr	r2, [pc, #136]	@ (8004d4c <UART_SetConfig+0x118>)
 8004cc2:	fba2 2303 	umull	r2, r3, r2, r3
 8004cc6:	095b      	lsrs	r3, r3, #5
 8004cc8:	0119      	lsls	r1, r3, #4
 8004cca:	68fa      	ldr	r2, [r7, #12]
 8004ccc:	4613      	mov	r3, r2
 8004cce:	009b      	lsls	r3, r3, #2
 8004cd0:	4413      	add	r3, r2
 8004cd2:	009a      	lsls	r2, r3, #2
 8004cd4:	441a      	add	r2, r3
 8004cd6:	687b      	ldr	r3, [r7, #4]
 8004cd8:	685b      	ldr	r3, [r3, #4]
 8004cda:	009b      	lsls	r3, r3, #2
 8004cdc:	fbb2 f2f3 	udiv	r2, r2, r3
 8004ce0:	4b1a      	ldr	r3, [pc, #104]	@ (8004d4c <UART_SetConfig+0x118>)
 8004ce2:	fba3 0302 	umull	r0, r3, r3, r2
 8004ce6:	095b      	lsrs	r3, r3, #5
 8004ce8:	2064      	movs	r0, #100	@ 0x64
 8004cea:	fb00 f303 	mul.w	r3, r0, r3
 8004cee:	1ad3      	subs	r3, r2, r3
 8004cf0:	011b      	lsls	r3, r3, #4
 8004cf2:	3332      	adds	r3, #50	@ 0x32
 8004cf4:	4a15      	ldr	r2, [pc, #84]	@ (8004d4c <UART_SetConfig+0x118>)
 8004cf6:	fba2 2303 	umull	r2, r3, r2, r3
 8004cfa:	095b      	lsrs	r3, r3, #5
 8004cfc:	f003 03f0 	and.w	r3, r3, #240	@ 0xf0
 8004d00:	4419      	add	r1, r3
 8004d02:	68fa      	ldr	r2, [r7, #12]
 8004d04:	4613      	mov	r3, r2
 8004d06:	009b      	lsls	r3, r3, #2
 8004d08:	4413      	add	r3, r2
 8004d0a:	009a      	lsls	r2, r3, #2
 8004d0c:	441a      	add	r2, r3
 8004d0e:	687b      	ldr	r3, [r7, #4]
 8004d10:	685b      	ldr	r3, [r3, #4]
 8004d12:	009b      	lsls	r3, r3, #2
 8004d14:	fbb2 f2f3 	udiv	r2, r2, r3
 8004d18:	4b0c      	ldr	r3, [pc, #48]	@ (8004d4c <UART_SetConfig+0x118>)
 8004d1a:	fba3 0302 	umull	r0, r3, r3, r2
 8004d1e:	095b      	lsrs	r3, r3, #5
 8004d20:	2064      	movs	r0, #100	@ 0x64
 8004d22:	fb00 f303 	mul.w	r3, r0, r3
 8004d26:	1ad3      	subs	r3, r2, r3
 8004d28:	011b      	lsls	r3, r3, #4
 8004d2a:	3332      	adds	r3, #50	@ 0x32
 8004d2c:	4a07      	ldr	r2, [pc, #28]	@ (8004d4c <UART_SetConfig+0x118>)
 8004d2e:	fba2 2303 	umull	r2, r3, r2, r3
 8004d32:	095b      	lsrs	r3, r3, #5
 8004d34:	f003 020f 	and.w	r2, r3, #15
 8004d38:	687b      	ldr	r3, [r7, #4]
 8004d3a:	681b      	ldr	r3, [r3, #0]
 8004d3c:	440a      	add	r2, r1
 8004d3e:	609a      	str	r2, [r3, #8]
#endif /* USART_CR1_OVER8 */
}
 8004d40:	bf00      	nop
 8004d42:	3710      	adds	r7, #16
 8004d44:	46bd      	mov	sp, r7
 8004d46:	bd80      	pop	{r7, pc}
 8004d48:	40013800 	.word	0x40013800
 8004d4c:	51eb851f 	.word	0x51eb851f

08004d50 <__cvt>:
 8004d50:	2b00      	cmp	r3, #0
 8004d52:	e92d 47f0 	stmdb	sp!, {r4, r5, r6, r7, r8, r9, sl, lr}
 8004d56:	461d      	mov	r5, r3
 8004d58:	bfbb      	ittet	lt
 8004d5a:	f103 4300 	addlt.w	r3, r3, #2147483648	@ 0x80000000
 8004d5e:	461d      	movlt	r5, r3
 8004d60:	2300      	movge	r3, #0
 8004d62:	232d      	movlt	r3, #45	@ 0x2d
 8004d64:	b088      	sub	sp, #32
 8004d66:	4614      	mov	r4, r2
 8004d68:	bfb8      	it	lt
 8004d6a:	4614      	movlt	r4, r2
 8004d6c:	9a12      	ldr	r2, [sp, #72]	@ 0x48
 8004d6e:	9e10      	ldr	r6, [sp, #64]	@ 0x40
 8004d70:	7013      	strb	r3, [r2, #0]
 8004d72:	9b14      	ldr	r3, [sp, #80]	@ 0x50
 8004d74:	f8dd a04c 	ldr.w	sl, [sp, #76]	@ 0x4c
 8004d78:	f023 0820 	bic.w	r8, r3, #32
 8004d7c:	f1b8 0f46 	cmp.w	r8, #70	@ 0x46
 8004d80:	d005      	beq.n	8004d8e <__cvt+0x3e>
 8004d82:	f1b8 0f45 	cmp.w	r8, #69	@ 0x45
 8004d86:	d100      	bne.n	8004d8a <__cvt+0x3a>
 8004d88:	3601      	adds	r6, #1
 8004d8a:	2302      	movs	r3, #2
 8004d8c:	e000      	b.n	8004d90 <__cvt+0x40>
 8004d8e:	2303      	movs	r3, #3
 8004d90:	aa07      	add	r2, sp, #28
 8004d92:	9204      	str	r2, [sp, #16]
 8004d94:	aa06      	add	r2, sp, #24
 8004d96:	e9cd a202 	strd	sl, r2, [sp, #8]
 8004d9a:	e9cd 3600 	strd	r3, r6, [sp]
 8004d9e:	4622      	mov	r2, r4
 8004da0:	462b      	mov	r3, r5
 8004da2:	f000 fddd 	bl	8005960 <_dtoa_r>
 8004da6:	f1b8 0f47 	cmp.w	r8, #71	@ 0x47
 8004daa:	4607      	mov	r7, r0
 8004dac:	d119      	bne.n	8004de2 <__cvt+0x92>
 8004dae:	9b11      	ldr	r3, [sp, #68]	@ 0x44
 8004db0:	07db      	lsls	r3, r3, #31
 8004db2:	d50e      	bpl.n	8004dd2 <__cvt+0x82>
 8004db4:	eb00 0906 	add.w	r9, r0, r6
 8004db8:	2200      	movs	r2, #0
 8004dba:	2300      	movs	r3, #0
 8004dbc:	4620      	mov	r0, r4
 8004dbe:	4629      	mov	r1, r5
 8004dc0:	f7fb fdf2 	bl	80009a8 <__aeabi_dcmpeq>
 8004dc4:	b108      	cbz	r0, 8004dca <__cvt+0x7a>
 8004dc6:	f8cd 901c 	str.w	r9, [sp, #28]
 8004dca:	2230      	movs	r2, #48	@ 0x30
 8004dcc:	9b07      	ldr	r3, [sp, #28]
 8004dce:	454b      	cmp	r3, r9
 8004dd0:	d31e      	bcc.n	8004e10 <__cvt+0xc0>
 8004dd2:	4638      	mov	r0, r7
 8004dd4:	9b07      	ldr	r3, [sp, #28]
 8004dd6:	9a15      	ldr	r2, [sp, #84]	@ 0x54
 8004dd8:	1bdb      	subs	r3, r3, r7
 8004dda:	6013      	str	r3, [r2, #0]
 8004ddc:	b008      	add	sp, #32
 8004dde:	e8bd 87f0 	ldmia.w	sp!, {r4, r5, r6, r7, r8, r9, sl, pc}
 8004de2:	f1b8 0f46 	cmp.w	r8, #70	@ 0x46
 8004de6:	eb00 0906 	add.w	r9, r0, r6
 8004dea:	d1e5      	bne.n	8004db8 <__cvt+0x68>
 8004dec:	7803      	ldrb	r3, [r0, #0]
 8004dee:	2b30      	cmp	r3, #48	@ 0x30
 8004df0:	d10a      	bne.n	8004e08 <__cvt+0xb8>
 8004df2:	2200      	movs	r2, #0
 8004df4:	2300      	movs	r3, #0
 8004df6:	4620      	mov	r0, r4
 8004df8:	4629      	mov	r1, r5
 8004dfa:	f7fb fdd5 	bl	80009a8 <__aeabi_dcmpeq>
 8004dfe:	b918      	cbnz	r0, 8004e08 <__cvt+0xb8>
 8004e00:	f1c6 0601 	rsb	r6, r6, #1
 8004e04:	f8ca 6000 	str.w	r6, [sl]
 8004e08:	f8da 3000 	ldr.w	r3, [sl]
 8004e0c:	4499      	add	r9, r3
 8004e0e:	e7d3      	b.n	8004db8 <__cvt+0x68>
 8004e10:	1c59      	adds	r1, r3, #1
 8004e12:	9107      	str	r1, [sp, #28]
 8004e14:	701a      	strb	r2, [r3, #0]
 8004e16:	e7d9      	b.n	8004dcc <__cvt+0x7c>

08004e18 <__exponent>:
 8004e18:	b5f7      	push	{r0, r1, r2, r4, r5, r6, r7, lr}
 8004e1a:	2900      	cmp	r1, #0
 8004e1c:	bfb6      	itet	lt
 8004e1e:	232d      	movlt	r3, #45	@ 0x2d
 8004e20:	232b      	movge	r3, #43	@ 0x2b
 8004e22:	4249      	neglt	r1, r1
 8004e24:	2909      	cmp	r1, #9
 8004e26:	7002      	strb	r2, [r0, #0]
 8004e28:	7043      	strb	r3, [r0, #1]
 8004e2a:	dd29      	ble.n	8004e80 <__exponent+0x68>
 8004e2c:	f10d 0407 	add.w	r4, sp, #7
 8004e30:	4625      	mov	r5, r4
 8004e32:	270a      	movs	r7, #10
 8004e34:	fbb1 f6f7 	udiv	r6, r1, r7
 8004e38:	4622      	mov	r2, r4
 8004e3a:	fb07 1316 	mls	r3, r7, r6, r1
 8004e3e:	3330      	adds	r3, #48	@ 0x30
 8004e40:	f802 3c01 	strb.w	r3, [r2, #-1]
 8004e44:	460b      	mov	r3, r1
 8004e46:	2b63      	cmp	r3, #99	@ 0x63
 8004e48:	4631      	mov	r1, r6
 8004e4a:	f104 34ff 	add.w	r4, r4, #4294967295	@ 0xffffffff
 8004e4e:	dcf1      	bgt.n	8004e34 <__exponent+0x1c>
 8004e50:	3130      	adds	r1, #48	@ 0x30
 8004e52:	1e93      	subs	r3, r2, #2
 8004e54:	f804 1c01 	strb.w	r1, [r4, #-1]
 8004e58:	461c      	mov	r4, r3
 8004e5a:	1c41      	adds	r1, r0, #1
 8004e5c:	42ab      	cmp	r3, r5
 8004e5e:	d30a      	bcc.n	8004e76 <__exponent+0x5e>
 8004e60:	f10d 0309 	add.w	r3, sp, #9
 8004e64:	1a9b      	subs	r3, r3, r2
 8004e66:	42a5      	cmp	r5, r4
 8004e68:	bf38      	it	cc
 8004e6a:	2300      	movcc	r3, #0
 8004e6c:	1c82      	adds	r2, r0, #2
 8004e6e:	4413      	add	r3, r2
 8004e70:	1a18      	subs	r0, r3, r0
 8004e72:	b003      	add	sp, #12
 8004e74:	bdf0      	pop	{r4, r5, r6, r7, pc}
 8004e76:	f813 6b01 	ldrb.w	r6, [r3], #1
 8004e7a:	f801 6f01 	strb.w	r6, [r1, #1]!
 8004e7e:	e7ed      	b.n	8004e5c <__exponent+0x44>
 8004e80:	2330      	movs	r3, #48	@ 0x30
 8004e82:	3130      	adds	r1, #48	@ 0x30
 8004e84:	7083      	strb	r3, [r0, #2]
 8004e86:	70c1      	strb	r1, [r0, #3]
 8004e88:	1d03      	adds	r3, r0, #4
 8004e8a:	e7f1      	b.n	8004e70 <__exponent+0x58>

08004e8c <_printf_float>:
 8004e8c:	e92d 4ff0 	stmdb	sp!, {r4, r5, r6, r7, r8, r9, sl, fp, lr}
 8004e90:	b091      	sub	sp, #68	@ 0x44
 8004e92:	460c      	mov	r4, r1
 8004e94:	f8dd 8068 	ldr.w	r8, [sp, #104]	@ 0x68
 8004e98:	4616      	mov	r6, r2
 8004e9a:	461f      	mov	r7, r3
 8004e9c:	4605      	mov	r5, r0
 8004e9e:	f000 fcc5 	bl	800582c <_localeconv_r>
 8004ea2:	6803      	ldr	r3, [r0, #0]
 8004ea4:	4618      	mov	r0, r3
 8004ea6:	930a      	str	r3, [sp, #40]	@ 0x28
 8004ea8:	f7fb f952 	bl	8000150 <strlen>
 8004eac:	2300      	movs	r3, #0
 8004eae:	930e      	str	r3, [sp, #56]	@ 0x38
 8004eb0:	f8d8 3000 	ldr.w	r3, [r8]
 8004eb4:	f894 a018 	ldrb.w	sl, [r4, #24]
 8004eb8:	3307      	adds	r3, #7
 8004eba:	f023 0307 	bic.w	r3, r3, #7
 8004ebe:	e8f3 1202 	ldrd	r1, r2, [r3], #8
 8004ec2:	f8d4 b000 	ldr.w	fp, [r4]
 8004ec6:	e9cd 1208 	strd	r1, r2, [sp, #32]
 8004eca:	f8c8 3000 	str.w	r3, [r8]
 8004ece:	4613      	mov	r3, r2
 8004ed0:	460a      	mov	r2, r1
 8004ed2:	e9c4 2312 	strd	r2, r3, [r4, #72]	@ 0x48
 8004ed6:	e9dd 8308 	ldrd	r8, r3, [sp, #32]
 8004eda:	f023 4900 	bic.w	r9, r3, #2147483648	@ 0x80000000
 8004ede:	900b      	str	r0, [sp, #44]	@ 0x2c
 8004ee0:	f04f 32ff 	mov.w	r2, #4294967295	@ 0xffffffff
 8004ee4:	4640      	mov	r0, r8
 8004ee6:	4649      	mov	r1, r9
 8004ee8:	4b9b      	ldr	r3, [pc, #620]	@ (8005158 <_printf_float+0x2cc>)
 8004eea:	f7fb fd8f 	bl	8000a0c <__aeabi_dcmpun>
 8004eee:	bb70      	cbnz	r0, 8004f4e <_printf_float+0xc2>
 8004ef0:	f04f 32ff 	mov.w	r2, #4294967295	@ 0xffffffff
 8004ef4:	4640      	mov	r0, r8
 8004ef6:	4649      	mov	r1, r9
 8004ef8:	4b97      	ldr	r3, [pc, #604]	@ (8005158 <_printf_float+0x2cc>)
 8004efa:	f7fb fd69 	bl	80009d0 <__aeabi_dcmple>
 8004efe:	bb30      	cbnz	r0, 8004f4e <_printf_float+0xc2>
 8004f00:	e9dd 0108 	ldrd	r0, r1, [sp, #32]
 8004f04:	2200      	movs	r2, #0
 8004f06:	2300      	movs	r3, #0
 8004f08:	f7fb fd58 	bl	80009bc <__aeabi_dcmplt>
 8004f0c:	b110      	cbz	r0, 8004f14 <_printf_float+0x88>
 8004f0e:	232d      	movs	r3, #45	@ 0x2d
 8004f10:	f884 3043 	strb.w	r3, [r4, #67]	@ 0x43
 8004f14:	4a91      	ldr	r2, [pc, #580]	@ (800515c <_printf_float+0x2d0>)
 8004f16:	4b92      	ldr	r3, [pc, #584]	@ (8005160 <_printf_float+0x2d4>)
 8004f18:	f1ba 0f47 	cmp.w	sl, #71	@ 0x47
 8004f1c:	bf8c      	ite	hi
 8004f1e:	4690      	movhi	r8, r2
 8004f20:	4698      	movls	r8, r3
 8004f22:	2303      	movs	r3, #3
 8004f24:	f04f 0900 	mov.w	r9, #0
 8004f28:	6123      	str	r3, [r4, #16]
 8004f2a:	f02b 0304 	bic.w	r3, fp, #4
 8004f2e:	6023      	str	r3, [r4, #0]
 8004f30:	4633      	mov	r3, r6
 8004f32:	4621      	mov	r1, r4
 8004f34:	4628      	mov	r0, r5
 8004f36:	9700      	str	r7, [sp, #0]
 8004f38:	aa0f      	add	r2, sp, #60	@ 0x3c
 8004f3a:	f000 f9d3 	bl	80052e4 <_printf_common>
 8004f3e:	3001      	adds	r0, #1
 8004f40:	f040 808f 	bne.w	8005062 <_printf_float+0x1d6>
 8004f44:	f04f 30ff 	mov.w	r0, #4294967295	@ 0xffffffff
 8004f48:	b011      	add	sp, #68	@ 0x44
 8004f4a:	e8bd 8ff0 	ldmia.w	sp!, {r4, r5, r6, r7, r8, r9, sl, fp, pc}
 8004f4e:	e9dd 2308 	ldrd	r2, r3, [sp, #32]
 8004f52:	4610      	mov	r0, r2
 8004f54:	4619      	mov	r1, r3
 8004f56:	f7fb fd59 	bl	8000a0c <__aeabi_dcmpun>
 8004f5a:	b140      	cbz	r0, 8004f6e <_printf_float+0xe2>
 8004f5c:	9b09      	ldr	r3, [sp, #36]	@ 0x24
 8004f5e:	4a81      	ldr	r2, [pc, #516]	@ (8005164 <_printf_float+0x2d8>)
 8004f60:	2b00      	cmp	r3, #0
 8004f62:	bfbc      	itt	lt
 8004f64:	232d      	movlt	r3, #45	@ 0x2d
 8004f66:	f884 3043 	strblt.w	r3, [r4, #67]	@ 0x43
 8004f6a:	4b7f      	ldr	r3, [pc, #508]	@ (8005168 <_printf_float+0x2dc>)
 8004f6c:	e7d4      	b.n	8004f18 <_printf_float+0x8c>
 8004f6e:	6863      	ldr	r3, [r4, #4]
 8004f70:	f00a 09df 	and.w	r9, sl, #223	@ 0xdf
 8004f74:	1c5a      	adds	r2, r3, #1
 8004f76:	d13e      	bne.n	8004ff6 <_printf_float+0x16a>
 8004f78:	2306      	movs	r3, #6
 8004f7a:	6063      	str	r3, [r4, #4]
 8004f7c:	2200      	movs	r2, #0
 8004f7e:	f44b 6380 	orr.w	r3, fp, #1024	@ 0x400
 8004f82:	6023      	str	r3, [r4, #0]
 8004f84:	9206      	str	r2, [sp, #24]
 8004f86:	aa0e      	add	r2, sp, #56	@ 0x38
 8004f88:	e9cd a204 	strd	sl, r2, [sp, #16]
 8004f8c:	aa0d      	add	r2, sp, #52	@ 0x34
 8004f8e:	9203      	str	r2, [sp, #12]
 8004f90:	f10d 0233 	add.w	r2, sp, #51	@ 0x33
 8004f94:	e9cd 3201 	strd	r3, r2, [sp, #4]
 8004f98:	6863      	ldr	r3, [r4, #4]
 8004f9a:	4628      	mov	r0, r5
 8004f9c:	9300      	str	r3, [sp, #0]
 8004f9e:	e9dd 2308 	ldrd	r2, r3, [sp, #32]
 8004fa2:	f7ff fed5 	bl	8004d50 <__cvt>
 8004fa6:	f1b9 0f47 	cmp.w	r9, #71	@ 0x47
 8004faa:	4680      	mov	r8, r0
 8004fac:	990d      	ldr	r1, [sp, #52]	@ 0x34
 8004fae:	d129      	bne.n	8005004 <_printf_float+0x178>
 8004fb0:	1cc8      	adds	r0, r1, #3
 8004fb2:	db02      	blt.n	8004fba <_printf_float+0x12e>
 8004fb4:	6863      	ldr	r3, [r4, #4]
 8004fb6:	428b      	cmp	r3, r1
 8004fb8:	da41      	bge.n	800503e <_printf_float+0x1b2>
 8004fba:	f1aa 0a02 	sub.w	sl, sl, #2
 8004fbe:	fa5f fa8a 	uxtb.w	sl, sl
 8004fc2:	4652      	mov	r2, sl
 8004fc4:	3901      	subs	r1, #1
 8004fc6:	f104 0050 	add.w	r0, r4, #80	@ 0x50
 8004fca:	910d      	str	r1, [sp, #52]	@ 0x34
 8004fcc:	f7ff ff24 	bl	8004e18 <__exponent>
 8004fd0:	9a0e      	ldr	r2, [sp, #56]	@ 0x38
 8004fd2:	4681      	mov	r9, r0
 8004fd4:	1813      	adds	r3, r2, r0
 8004fd6:	2a01      	cmp	r2, #1
 8004fd8:	6123      	str	r3, [r4, #16]
 8004fda:	dc02      	bgt.n	8004fe2 <_printf_float+0x156>
 8004fdc:	6822      	ldr	r2, [r4, #0]
 8004fde:	07d2      	lsls	r2, r2, #31
 8004fe0:	d501      	bpl.n	8004fe6 <_printf_float+0x15a>
 8004fe2:	3301      	adds	r3, #1
 8004fe4:	6123      	str	r3, [r4, #16]
 8004fe6:	f89d 3033 	ldrb.w	r3, [sp, #51]	@ 0x33
 8004fea:	2b00      	cmp	r3, #0
 8004fec:	d0a0      	beq.n	8004f30 <_printf_float+0xa4>
 8004fee:	232d      	movs	r3, #45	@ 0x2d
 8004ff0:	f884 3043 	strb.w	r3, [r4, #67]	@ 0x43
 8004ff4:	e79c      	b.n	8004f30 <_printf_float+0xa4>
 8004ff6:	f1b9 0f47 	cmp.w	r9, #71	@ 0x47
 8004ffa:	d1bf      	bne.n	8004f7c <_printf_float+0xf0>
 8004ffc:	2b00      	cmp	r3, #0
 8004ffe:	d1bd      	bne.n	8004f7c <_printf_float+0xf0>
 8005000:	2301      	movs	r3, #1
 8005002:	e7ba      	b.n	8004f7a <_printf_float+0xee>
 8005004:	f1ba 0f65 	cmp.w	sl, #101	@ 0x65
 8005008:	d9db      	bls.n	8004fc2 <_printf_float+0x136>
 800500a:	f1ba 0f66 	cmp.w	sl, #102	@ 0x66
 800500e:	d118      	bne.n	8005042 <_printf_float+0x1b6>
 8005010:	2900      	cmp	r1, #0
 8005012:	6863      	ldr	r3, [r4, #4]
 8005014:	dd0b      	ble.n	800502e <_printf_float+0x1a2>
 8005016:	6121      	str	r1, [r4, #16]
 8005018:	b913      	cbnz	r3, 8005020 <_printf_float+0x194>
 800501a:	6822      	ldr	r2, [r4, #0]
 800501c:	07d0      	lsls	r0, r2, #31
 800501e:	d502      	bpl.n	8005026 <_printf_float+0x19a>
 8005020:	3301      	adds	r3, #1
 8005022:	440b      	add	r3, r1
 8005024:	6123      	str	r3, [r4, #16]
 8005026:	f04f 0900 	mov.w	r9, #0
 800502a:	65a1      	str	r1, [r4, #88]	@ 0x58
 800502c:	e7db      	b.n	8004fe6 <_printf_float+0x15a>
 800502e:	b913      	cbnz	r3, 8005036 <_printf_float+0x1aa>
 8005030:	6822      	ldr	r2, [r4, #0]
 8005032:	07d2      	lsls	r2, r2, #31
 8005034:	d501      	bpl.n	800503a <_printf_float+0x1ae>
 8005036:	3302      	adds	r3, #2
 8005038:	e7f4      	b.n	8005024 <_printf_float+0x198>
 800503a:	2301      	movs	r3, #1
 800503c:	e7f2      	b.n	8005024 <_printf_float+0x198>
 800503e:	f04f 0a67 	mov.w	sl, #103	@ 0x67
 8005042:	9b0e      	ldr	r3, [sp, #56]	@ 0x38
 8005044:	428b      	cmp	r3, r1
 8005046:	dc05      	bgt.n	8005054 <_printf_float+0x1c8>
 8005048:	6823      	ldr	r3, [r4, #0]
 800504a:	6121      	str	r1, [r4, #16]
 800504c:	07d8      	lsls	r0, r3, #31
 800504e:	d5ea      	bpl.n	8005026 <_printf_float+0x19a>
 8005050:	1c4b      	adds	r3, r1, #1
 8005052:	e7e7      	b.n	8005024 <_printf_float+0x198>
 8005054:	2900      	cmp	r1, #0
 8005056:	bfcc      	ite	gt
 8005058:	2201      	movgt	r2, #1
 800505a:	f1c1 0202 	rsble	r2, r1, #2
 800505e:	4413      	add	r3, r2
 8005060:	e7e0      	b.n	8005024 <_printf_float+0x198>
 8005062:	6823      	ldr	r3, [r4, #0]
 8005064:	055a      	lsls	r2, r3, #21
 8005066:	d407      	bmi.n	8005078 <_printf_float+0x1ec>
 8005068:	6923      	ldr	r3, [r4, #16]
 800506a:	4642      	mov	r2, r8
 800506c:	4631      	mov	r1, r6
 800506e:	4628      	mov	r0, r5
 8005070:	47b8      	blx	r7
 8005072:	3001      	adds	r0, #1
 8005074:	d12b      	bne.n	80050ce <_printf_float+0x242>
 8005076:	e765      	b.n	8004f44 <_printf_float+0xb8>
 8005078:	f1ba 0f65 	cmp.w	sl, #101	@ 0x65
 800507c:	f240 80dc 	bls.w	8005238 <_printf_float+0x3ac>
 8005080:	e9d4 0112 	ldrd	r0, r1, [r4, #72]	@ 0x48
 8005084:	2200      	movs	r2, #0
 8005086:	2300      	movs	r3, #0
 8005088:	f7fb fc8e 	bl	80009a8 <__aeabi_dcmpeq>
 800508c:	2800      	cmp	r0, #0
 800508e:	d033      	beq.n	80050f8 <_printf_float+0x26c>
 8005090:	2301      	movs	r3, #1
 8005092:	4631      	mov	r1, r6
 8005094:	4628      	mov	r0, r5
 8005096:	4a35      	ldr	r2, [pc, #212]	@ (800516c <_printf_float+0x2e0>)
 8005098:	47b8      	blx	r7
 800509a:	3001      	adds	r0, #1
 800509c:	f43f af52 	beq.w	8004f44 <_printf_float+0xb8>
 80050a0:	e9dd 380d 	ldrd	r3, r8, [sp, #52]	@ 0x34
 80050a4:	4543      	cmp	r3, r8
 80050a6:	db02      	blt.n	80050ae <_printf_float+0x222>
 80050a8:	6823      	ldr	r3, [r4, #0]
 80050aa:	07d8      	lsls	r0, r3, #31
 80050ac:	d50f      	bpl.n	80050ce <_printf_float+0x242>
 80050ae:	e9dd 230a 	ldrd	r2, r3, [sp, #40]	@ 0x28
 80050b2:	4631      	mov	r1, r6
 80050b4:	4628      	mov	r0, r5
 80050b6:	47b8      	blx	r7
 80050b8:	3001      	adds	r0, #1
 80050ba:	f43f af43 	beq.w	8004f44 <_printf_float+0xb8>
 80050be:	f04f 0900 	mov.w	r9, #0
 80050c2:	f108 38ff 	add.w	r8, r8, #4294967295	@ 0xffffffff
 80050c6:	f104 0a1a 	add.w	sl, r4, #26
 80050ca:	45c8      	cmp	r8, r9
 80050cc:	dc09      	bgt.n	80050e2 <_printf_float+0x256>
 80050ce:	6823      	ldr	r3, [r4, #0]
 80050d0:	079b      	lsls	r3, r3, #30
 80050d2:	f100 8102 	bmi.w	80052da <_printf_float+0x44e>
 80050d6:	68e0      	ldr	r0, [r4, #12]
 80050d8:	9b0f      	ldr	r3, [sp, #60]	@ 0x3c
 80050da:	4298      	cmp	r0, r3
 80050dc:	bfb8      	it	lt
 80050de:	4618      	movlt	r0, r3
 80050e0:	e732      	b.n	8004f48 <_printf_float+0xbc>
 80050e2:	2301      	movs	r3, #1
 80050e4:	4652      	mov	r2, sl
 80050e6:	4631      	mov	r1, r6
 80050e8:	4628      	mov	r0, r5
 80050ea:	47b8      	blx	r7
 80050ec:	3001      	adds	r0, #1
 80050ee:	f43f af29 	beq.w	8004f44 <_printf_float+0xb8>
 80050f2:	f109 0901 	add.w	r9, r9, #1
 80050f6:	e7e8      	b.n	80050ca <_printf_float+0x23e>
 80050f8:	9b0d      	ldr	r3, [sp, #52]	@ 0x34
 80050fa:	2b00      	cmp	r3, #0
 80050fc:	dc38      	bgt.n	8005170 <_printf_float+0x2e4>
 80050fe:	2301      	movs	r3, #1
 8005100:	4631      	mov	r1, r6
 8005102:	4628      	mov	r0, r5
 8005104:	4a19      	ldr	r2, [pc, #100]	@ (800516c <_printf_float+0x2e0>)
 8005106:	47b8      	blx	r7
 8005108:	3001      	adds	r0, #1
 800510a:	f43f af1b 	beq.w	8004f44 <_printf_float+0xb8>
 800510e:	e9dd 390d 	ldrd	r3, r9, [sp, #52]	@ 0x34
 8005112:	ea59 0303 	orrs.w	r3, r9, r3
 8005116:	d102      	bne.n	800511e <_printf_float+0x292>
 8005118:	6823      	ldr	r3, [r4, #0]
 800511a:	07d9      	lsls	r1, r3, #31
 800511c:	d5d7      	bpl.n	80050ce <_printf_float+0x242>
 800511e:	e9dd 230a 	ldrd	r2, r3, [sp, #40]	@ 0x28
 8005122:	4631      	mov	r1, r6
 8005124:	4628      	mov	r0, r5
 8005126:	47b8      	blx	r7
 8005128:	3001      	adds	r0, #1
 800512a:	f43f af0b 	beq.w	8004f44 <_printf_float+0xb8>
 800512e:	f04f 0a00 	mov.w	sl, #0
 8005132:	f104 0b1a 	add.w	fp, r4, #26
 8005136:	9b0d      	ldr	r3, [sp, #52]	@ 0x34
 8005138:	425b      	negs	r3, r3
 800513a:	4553      	cmp	r3, sl
 800513c:	dc01      	bgt.n	8005142 <_printf_float+0x2b6>
 800513e:	464b      	mov	r3, r9
 8005140:	e793      	b.n	800506a <_printf_float+0x1de>
 8005142:	2301      	movs	r3, #1
 8005144:	465a      	mov	r2, fp
 8005146:	4631      	mov	r1, r6
 8005148:	4628      	mov	r0, r5
 800514a:	47b8      	blx	r7
 800514c:	3001      	adds	r0, #1
 800514e:	f43f aef9 	beq.w	8004f44 <_printf_float+0xb8>
 8005152:	f10a 0a01 	add.w	sl, sl, #1
 8005156:	e7ee      	b.n	8005136 <_printf_float+0x2aa>
 8005158:	7fefffff 	.word	0x7fefffff
 800515c:	08007dfa 	.word	0x08007dfa
 8005160:	08007df6 	.word	0x08007df6
 8005164:	08007e02 	.word	0x08007e02
 8005168:	08007dfe 	.word	0x08007dfe
 800516c:	08007e06 	.word	0x08007e06
 8005170:	6da3      	ldr	r3, [r4, #88]	@ 0x58
 8005172:	f8dd a038 	ldr.w	sl, [sp, #56]	@ 0x38
 8005176:	4553      	cmp	r3, sl
 8005178:	bfa8      	it	ge
 800517a:	4653      	movge	r3, sl
 800517c:	2b00      	cmp	r3, #0
 800517e:	4699      	mov	r9, r3
 8005180:	dc36      	bgt.n	80051f0 <_printf_float+0x364>
 8005182:	f04f 0b00 	mov.w	fp, #0
 8005186:	ea29 79e9 	bic.w	r9, r9, r9, asr #31
 800518a:	f104 021a 	add.w	r2, r4, #26
 800518e:	6da3      	ldr	r3, [r4, #88]	@ 0x58
 8005190:	9308      	str	r3, [sp, #32]
 8005192:	eba3 0309 	sub.w	r3, r3, r9
 8005196:	455b      	cmp	r3, fp
 8005198:	dc31      	bgt.n	80051fe <_printf_float+0x372>
 800519a:	9b0d      	ldr	r3, [sp, #52]	@ 0x34
 800519c:	459a      	cmp	sl, r3
 800519e:	dc3a      	bgt.n	8005216 <_printf_float+0x38a>
 80051a0:	6823      	ldr	r3, [r4, #0]
 80051a2:	07da      	lsls	r2, r3, #31
 80051a4:	d437      	bmi.n	8005216 <_printf_float+0x38a>
 80051a6:	9b0d      	ldr	r3, [sp, #52]	@ 0x34
 80051a8:	ebaa 0903 	sub.w	r9, sl, r3
 80051ac:	9b08      	ldr	r3, [sp, #32]
 80051ae:	ebaa 0303 	sub.w	r3, sl, r3
 80051b2:	4599      	cmp	r9, r3
 80051b4:	bfa8      	it	ge
 80051b6:	4699      	movge	r9, r3
 80051b8:	f1b9 0f00 	cmp.w	r9, #0
 80051bc:	dc33      	bgt.n	8005226 <_printf_float+0x39a>
 80051be:	f04f 0800 	mov.w	r8, #0
 80051c2:	ea29 79e9 	bic.w	r9, r9, r9, asr #31
 80051c6:	f104 0b1a 	add.w	fp, r4, #26
 80051ca:	9b0d      	ldr	r3, [sp, #52]	@ 0x34
 80051cc:	ebaa 0303 	sub.w	r3, sl, r3
 80051d0:	eba3 0309 	sub.w	r3, r3, r9
 80051d4:	4543      	cmp	r3, r8
 80051d6:	f77f af7a 	ble.w	80050ce <_printf_float+0x242>
 80051da:	2301      	movs	r3, #1
 80051dc:	465a      	mov	r2, fp
 80051de:	4631      	mov	r1, r6
 80051e0:	4628      	mov	r0, r5
 80051e2:	47b8      	blx	r7
 80051e4:	3001      	adds	r0, #1
 80051e6:	f43f aead 	beq.w	8004f44 <_printf_float+0xb8>
 80051ea:	f108 0801 	add.w	r8, r8, #1
 80051ee:	e7ec      	b.n	80051ca <_printf_float+0x33e>
 80051f0:	4642      	mov	r2, r8
 80051f2:	4631      	mov	r1, r6
 80051f4:	4628      	mov	r0, r5
 80051f6:	47b8      	blx	r7
 80051f8:	3001      	adds	r0, #1
 80051fa:	d1c2      	bne.n	8005182 <_printf_float+0x2f6>
 80051fc:	e6a2      	b.n	8004f44 <_printf_float+0xb8>
 80051fe:	2301      	movs	r3, #1
 8005200:	4631      	mov	r1, r6
 8005202:	4628      	mov	r0, r5
 8005204:	9208      	str	r2, [sp, #32]
 8005206:	47b8      	blx	r7
 8005208:	3001      	adds	r0, #1
 800520a:	f43f ae9b 	beq.w	8004f44 <_printf_float+0xb8>
 800520e:	9a08      	ldr	r2, [sp, #32]
 8005210:	f10b 0b01 	add.w	fp, fp, #1
 8005214:	e7bb      	b.n	800518e <_printf_float+0x302>
 8005216:	4631      	mov	r1, r6
 8005218:	e9dd 230a 	ldrd	r2, r3, [sp, #40]	@ 0x28
 800521c:	4628      	mov	r0, r5
 800521e:	47b8      	blx	r7
 8005220:	3001      	adds	r0, #1
 8005222:	d1c0      	bne.n	80051a6 <_printf_float+0x31a>
 8005224:	e68e      	b.n	8004f44 <_printf_float+0xb8>
 8005226:	9a08      	ldr	r2, [sp, #32]
 8005228:	464b      	mov	r3, r9
 800522a:	4631      	mov	r1, r6
 800522c:	4628      	mov	r0, r5
 800522e:	4442      	add	r2, r8
 8005230:	47b8      	blx	r7
 8005232:	3001      	adds	r0, #1
 8005234:	d1c3      	bne.n	80051be <_printf_float+0x332>
 8005236:	e685      	b.n	8004f44 <_printf_float+0xb8>
 8005238:	f8dd a038 	ldr.w	sl, [sp, #56]	@ 0x38
 800523c:	f1ba 0f01 	cmp.w	sl, #1
 8005240:	dc01      	bgt.n	8005246 <_printf_float+0x3ba>
 8005242:	07db      	lsls	r3, r3, #31
 8005244:	d536      	bpl.n	80052b4 <_printf_float+0x428>
 8005246:	2301      	movs	r3, #1
 8005248:	4642      	mov	r2, r8
 800524a:	4631      	mov	r1, r6
 800524c:	4628      	mov	r0, r5
 800524e:	47b8      	blx	r7
 8005250:	3001      	adds	r0, #1
 8005252:	f43f ae77 	beq.w	8004f44 <_printf_float+0xb8>
 8005256:	e9dd 230a 	ldrd	r2, r3, [sp, #40]	@ 0x28
 800525a:	4631      	mov	r1, r6
 800525c:	4628      	mov	r0, r5
 800525e:	47b8      	blx	r7
 8005260:	3001      	adds	r0, #1
 8005262:	f43f ae6f 	beq.w	8004f44 <_printf_float+0xb8>
 8005266:	e9d4 0112 	ldrd	r0, r1, [r4, #72]	@ 0x48
 800526a:	2200      	movs	r2, #0
 800526c:	2300      	movs	r3, #0
 800526e:	f10a 3aff 	add.w	sl, sl, #4294967295	@ 0xffffffff
 8005272:	f7fb fb99 	bl	80009a8 <__aeabi_dcmpeq>
 8005276:	b9c0      	cbnz	r0, 80052aa <_printf_float+0x41e>
 8005278:	4653      	mov	r3, sl
 800527a:	f108 0201 	add.w	r2, r8, #1
 800527e:	4631      	mov	r1, r6
 8005280:	4628      	mov	r0, r5
 8005282:	47b8      	blx	r7
 8005284:	3001      	adds	r0, #1
 8005286:	d10c      	bne.n	80052a2 <_printf_float+0x416>
 8005288:	e65c      	b.n	8004f44 <_printf_float+0xb8>
 800528a:	2301      	movs	r3, #1
 800528c:	465a      	mov	r2, fp
 800528e:	4631      	mov	r1, r6
 8005290:	4628      	mov	r0, r5
 8005292:	47b8      	blx	r7
 8005294:	3001      	adds	r0, #1
 8005296:	f43f ae55 	beq.w	8004f44 <_printf_float+0xb8>
 800529a:	f108 0801 	add.w	r8, r8, #1
 800529e:	45d0      	cmp	r8, sl
 80052a0:	dbf3      	blt.n	800528a <_printf_float+0x3fe>
 80052a2:	464b      	mov	r3, r9
 80052a4:	f104 0250 	add.w	r2, r4, #80	@ 0x50
 80052a8:	e6e0      	b.n	800506c <_printf_float+0x1e0>
 80052aa:	f04f 0800 	mov.w	r8, #0
 80052ae:	f104 0b1a 	add.w	fp, r4, #26
 80052b2:	e7f4      	b.n	800529e <_printf_float+0x412>
 80052b4:	2301      	movs	r3, #1
 80052b6:	4642      	mov	r2, r8
 80052b8:	e7e1      	b.n	800527e <_printf_float+0x3f2>
 80052ba:	2301      	movs	r3, #1
 80052bc:	464a      	mov	r2, r9
 80052be:	4631      	mov	r1, r6
 80052c0:	4628      	mov	r0, r5
 80052c2:	47b8      	blx	r7
 80052c4:	3001      	adds	r0, #1
 80052c6:	f43f ae3d 	beq.w	8004f44 <_printf_float+0xb8>
 80052ca:	f108 0801 	add.w	r8, r8, #1
 80052ce:	68e3      	ldr	r3, [r4, #12]
 80052d0:	990f      	ldr	r1, [sp, #60]	@ 0x3c
 80052d2:	1a5b      	subs	r3, r3, r1
 80052d4:	4543      	cmp	r3, r8
 80052d6:	dcf0      	bgt.n	80052ba <_printf_float+0x42e>
 80052d8:	e6fd      	b.n	80050d6 <_printf_float+0x24a>
 80052da:	f04f 0800 	mov.w	r8, #0
 80052de:	f104 0919 	add.w	r9, r4, #25
 80052e2:	e7f4      	b.n	80052ce <_printf_float+0x442>

080052e4 <_printf_common>:
 80052e4:	e92d 47f0 	stmdb	sp!, {r4, r5, r6, r7, r8, r9, sl, lr}
 80052e8:	4616      	mov	r6, r2
 80052ea:	4698      	mov	r8, r3
 80052ec:	688a      	ldr	r2, [r1, #8]
 80052ee:	690b      	ldr	r3, [r1, #16]
 80052f0:	4607      	mov	r7, r0
 80052f2:	4293      	cmp	r3, r2
 80052f4:	bfb8      	it	lt
 80052f6:	4613      	movlt	r3, r2
 80052f8:	6033      	str	r3, [r6, #0]
 80052fa:	f891 2043 	ldrb.w	r2, [r1, #67]	@ 0x43
 80052fe:	460c      	mov	r4, r1
 8005300:	f8dd 9020 	ldr.w	r9, [sp, #32]
 8005304:	b10a      	cbz	r2, 800530a <_printf_common+0x26>
 8005306:	3301      	adds	r3, #1
 8005308:	6033      	str	r3, [r6, #0]
 800530a:	6823      	ldr	r3, [r4, #0]
 800530c:	0699      	lsls	r1, r3, #26
 800530e:	bf42      	ittt	mi
 8005310:	6833      	ldrmi	r3, [r6, #0]
 8005312:	3302      	addmi	r3, #2
 8005314:	6033      	strmi	r3, [r6, #0]
 8005316:	6825      	ldr	r5, [r4, #0]
 8005318:	f015 0506 	ands.w	r5, r5, #6
 800531c:	d106      	bne.n	800532c <_printf_common+0x48>
 800531e:	f104 0a19 	add.w	sl, r4, #25
 8005322:	68e3      	ldr	r3, [r4, #12]
 8005324:	6832      	ldr	r2, [r6, #0]
 8005326:	1a9b      	subs	r3, r3, r2
 8005328:	42ab      	cmp	r3, r5
 800532a:	dc2b      	bgt.n	8005384 <_printf_common+0xa0>
 800532c:	f894 3043 	ldrb.w	r3, [r4, #67]	@ 0x43
 8005330:	6822      	ldr	r2, [r4, #0]
 8005332:	3b00      	subs	r3, #0
 8005334:	bf18      	it	ne
 8005336:	2301      	movne	r3, #1
 8005338:	0692      	lsls	r2, r2, #26
 800533a:	d430      	bmi.n	800539e <_printf_common+0xba>
 800533c:	4641      	mov	r1, r8
 800533e:	4638      	mov	r0, r7
 8005340:	f104 0243 	add.w	r2, r4, #67	@ 0x43
 8005344:	47c8      	blx	r9
 8005346:	3001      	adds	r0, #1
 8005348:	d023      	beq.n	8005392 <_printf_common+0xae>
 800534a:	6823      	ldr	r3, [r4, #0]
 800534c:	6922      	ldr	r2, [r4, #16]
 800534e:	f003 0306 	and.w	r3, r3, #6
 8005352:	2b04      	cmp	r3, #4
 8005354:	bf14      	ite	ne
 8005356:	2500      	movne	r5, #0
 8005358:	6833      	ldreq	r3, [r6, #0]
 800535a:	f04f 0600 	mov.w	r6, #0
 800535e:	bf08      	it	eq
 8005360:	68e5      	ldreq	r5, [r4, #12]
 8005362:	f104 041a 	add.w	r4, r4, #26
 8005366:	bf08      	it	eq
 8005368:	1aed      	subeq	r5, r5, r3
 800536a:	f854 3c12 	ldr.w	r3, [r4, #-18]
 800536e:	bf08      	it	eq
 8005370:	ea25 75e5 	biceq.w	r5, r5, r5, asr #31
 8005374:	4293      	cmp	r3, r2
 8005376:	bfc4      	itt	gt
 8005378:	1a9b      	subgt	r3, r3, r2
 800537a:	18ed      	addgt	r5, r5, r3
 800537c:	42b5      	cmp	r5, r6
 800537e:	d11a      	bne.n	80053b6 <_printf_common+0xd2>
 8005380:	2000      	movs	r0, #0
 8005382:	e008      	b.n	8005396 <_printf_common+0xb2>
 8005384:	2301      	movs	r3, #1
 8005386:	4652      	mov	r2, sl
 8005388:	4641      	mov	r1, r8
 800538a:	4638      	mov	r0, r7
 800538c:	47c8      	blx	r9
 800538e:	3001      	adds	r0, #1
 8005390:	d103      	bne.n	800539a <_printf_common+0xb6>
 8005392:	f04f 30ff 	mov.w	r0, #4294967295	@ 0xffffffff
 8005396:	e8bd 87f0 	ldmia.w	sp!, {r4, r5, r6, r7, r8, r9, sl, pc}
 800539a:	3501      	adds	r5, #1
 800539c:	e7c1      	b.n	8005322 <_printf_common+0x3e>
 800539e:	2030      	movs	r0, #48	@ 0x30
 80053a0:	18e1      	adds	r1, r4, r3
 80053a2:	f881 0043 	strb.w	r0, [r1, #67]	@ 0x43
 80053a6:	1c5a      	adds	r2, r3, #1
 80053a8:	f894 1045 	ldrb.w	r1, [r4, #69]	@ 0x45
 80053ac:	4422      	add	r2, r4
 80053ae:	3302      	adds	r3, #2
 80053b0:	f882 1043 	strb.w	r1, [r2, #67]	@ 0x43
 80053b4:	e7c2      	b.n	800533c <_printf_common+0x58>
 80053b6:	2301      	movs	r3, #1
 80053b8:	4622      	mov	r2, r4
 80053ba:	4641      	mov	r1, r8
 80053bc:	4638      	mov	r0, r7
 80053be:	47c8      	blx	r9
 80053c0:	3001      	adds	r0, #1
 80053c2:	d0e6      	beq.n	8005392 <_printf_common+0xae>
 80053c4:	3601      	adds	r6, #1
 80053c6:	e7d9      	b.n	800537c <_printf_common+0x98>

080053c8 <_printf_i>:
 80053c8:	e92d 43f0 	stmdb	sp!, {r4, r5, r6, r7, r8, r9, lr}
 80053cc:	7e0d      	ldrb	r5, [r1, #24]
 80053ce:	b085      	sub	sp, #20
 80053d0:	2d78      	cmp	r5, #120	@ 0x78
 80053d2:	4690      	mov	r8, r2
 80053d4:	4607      	mov	r7, r0
 80053d6:	460c      	mov	r4, r1
 80053d8:	4699      	mov	r9, r3
 80053da:	9e0c      	ldr	r6, [sp, #48]	@ 0x30
 80053dc:	f101 0243 	add.w	r2, r1, #67	@ 0x43
 80053e0:	d807      	bhi.n	80053f2 <_printf_i+0x2a>
 80053e2:	2d62      	cmp	r5, #98	@ 0x62
 80053e4:	d80a      	bhi.n	80053fc <_printf_i+0x34>
 80053e6:	2d00      	cmp	r5, #0
 80053e8:	f000 80d7 	beq.w	800559a <_printf_i+0x1d2>
 80053ec:	2d58      	cmp	r5, #88	@ 0x58
 80053ee:	f000 80bc 	beq.w	800556a <_printf_i+0x1a2>
 80053f2:	f104 0642 	add.w	r6, r4, #66	@ 0x42
 80053f6:	f884 5042 	strb.w	r5, [r4, #66]	@ 0x42
 80053fa:	e03b      	b.n	8005474 <_printf_i+0xac>
 80053fc:	f1a5 0363 	sub.w	r3, r5, #99	@ 0x63
 8005400:	2b15      	cmp	r3, #21
 8005402:	d8f6      	bhi.n	80053f2 <_printf_i+0x2a>
 8005404:	a101      	add	r1, pc, #4	@ (adr r1, 800540c <_printf_i+0x44>)
 8005406:	f851 f023 	ldr.w	pc, [r1, r3, lsl #2]
 800540a:	bf00      	nop
 800540c:	08005465 	.word	0x08005465
 8005410:	08005479 	.word	0x08005479
 8005414:	080053f3 	.word	0x080053f3
 8005418:	080053f3 	.word	0x080053f3
 800541c:	080053f3 	.word	0x080053f3
 8005420:	080053f3 	.word	0x080053f3
 8005424:	08005479 	.word	0x08005479
 8005428:	080053f3 	.word	0x080053f3
 800542c:	080053f3 	.word	0x080053f3
 8005430:	080053f3 	.word	0x080053f3
 8005434:	080053f3 	.word	0x080053f3
 8005438:	08005581 	.word	0x08005581
 800543c:	080054a3 	.word	0x080054a3
 8005440:	08005533 	.word	0x08005533
 8005444:	080053f3 	.word	0x080053f3
 8005448:	080053f3 	.word	0x080053f3
 800544c:	080055a3 	.word	0x080055a3
 8005450:	080053f3 	.word	0x080053f3
 8005454:	080054a3 	.word	0x080054a3
 8005458:	080053f3 	.word	0x080053f3
 800545c:	080053f3 	.word	0x080053f3
 8005460:	0800553b 	.word	0x0800553b
 8005464:	6833      	ldr	r3, [r6, #0]
 8005466:	1d1a      	adds	r2, r3, #4
 8005468:	681b      	ldr	r3, [r3, #0]
 800546a:	6032      	str	r2, [r6, #0]
 800546c:	f104 0642 	add.w	r6, r4, #66	@ 0x42
 8005470:	f884 3042 	strb.w	r3, [r4, #66]	@ 0x42
 8005474:	2301      	movs	r3, #1
 8005476:	e0a1      	b.n	80055bc <_printf_i+0x1f4>
 8005478:	6833      	ldr	r3, [r6, #0]
 800547a:	6820      	ldr	r0, [r4, #0]
 800547c:	1d19      	adds	r1, r3, #4
 800547e:	6031      	str	r1, [r6, #0]
 8005480:	0606      	lsls	r6, r0, #24
 8005482:	d501      	bpl.n	8005488 <_printf_i+0xc0>
 8005484:	681d      	ldr	r5, [r3, #0]
 8005486:	e003      	b.n	8005490 <_printf_i+0xc8>
 8005488:	0645      	lsls	r5, r0, #25
 800548a:	d5fb      	bpl.n	8005484 <_printf_i+0xbc>
 800548c:	f9b3 5000 	ldrsh.w	r5, [r3]
 8005490:	2d00      	cmp	r5, #0
 8005492:	da03      	bge.n	800549c <_printf_i+0xd4>
 8005494:	232d      	movs	r3, #45	@ 0x2d
 8005496:	426d      	negs	r5, r5
 8005498:	f884 3043 	strb.w	r3, [r4, #67]	@ 0x43
 800549c:	230a      	movs	r3, #10
 800549e:	485b      	ldr	r0, [pc, #364]	@ (800560c <_printf_i+0x244>)
 80054a0:	e011      	b.n	80054c6 <_printf_i+0xfe>
 80054a2:	6821      	ldr	r1, [r4, #0]
 80054a4:	6833      	ldr	r3, [r6, #0]
 80054a6:	0608      	lsls	r0, r1, #24
 80054a8:	f853 5b04 	ldr.w	r5, [r3], #4
 80054ac:	d402      	bmi.n	80054b4 <_printf_i+0xec>
 80054ae:	0649      	lsls	r1, r1, #25
 80054b0:	bf48      	it	mi
 80054b2:	b2ad      	uxthmi	r5, r5
 80054b4:	6033      	str	r3, [r6, #0]
 80054b6:	7e23      	ldrb	r3, [r4, #24]
 80054b8:	4854      	ldr	r0, [pc, #336]	@ (800560c <_printf_i+0x244>)
 80054ba:	2b6f      	cmp	r3, #111	@ 0x6f
 80054bc:	d15c      	bne.n	8005578 <_printf_i+0x1b0>
 80054be:	2308      	movs	r3, #8
 80054c0:	2100      	movs	r1, #0
 80054c2:	f884 1043 	strb.w	r1, [r4, #67]	@ 0x43
 80054c6:	6866      	ldr	r6, [r4, #4]
 80054c8:	2e00      	cmp	r6, #0
 80054ca:	60a6      	str	r6, [r4, #8]
 80054cc:	db05      	blt.n	80054da <_printf_i+0x112>
 80054ce:	6821      	ldr	r1, [r4, #0]
 80054d0:	432e      	orrs	r6, r5
 80054d2:	f021 0104 	bic.w	r1, r1, #4
 80054d6:	6021      	str	r1, [r4, #0]
 80054d8:	d050      	beq.n	800557c <_printf_i+0x1b4>
 80054da:	4616      	mov	r6, r2
 80054dc:	fbb5 f1f3 	udiv	r1, r5, r3
 80054e0:	fb03 5c11 	mls	ip, r3, r1, r5
 80054e4:	f810 c00c 	ldrb.w	ip, [r0, ip]
 80054e8:	f806 cd01 	strb.w	ip, [r6, #-1]!
 80054ec:	46ac      	mov	ip, r5
 80054ee:	4563      	cmp	r3, ip
 80054f0:	460d      	mov	r5, r1
 80054f2:	d9f3      	bls.n	80054dc <_printf_i+0x114>
 80054f4:	2b08      	cmp	r3, #8
 80054f6:	d10b      	bne.n	8005510 <_printf_i+0x148>
 80054f8:	6823      	ldr	r3, [r4, #0]
 80054fa:	07db      	lsls	r3, r3, #31
 80054fc:	d508      	bpl.n	8005510 <_printf_i+0x148>
 80054fe:	6923      	ldr	r3, [r4, #16]
 8005500:	6861      	ldr	r1, [r4, #4]
 8005502:	4299      	cmp	r1, r3
 8005504:	bfde      	ittt	le
 8005506:	2330      	movle	r3, #48	@ 0x30
 8005508:	f806 3c01 	strble.w	r3, [r6, #-1]
 800550c:	f106 36ff 	addle.w	r6, r6, #4294967295	@ 0xffffffff
 8005510:	1b92      	subs	r2, r2, r6
 8005512:	6122      	str	r2, [r4, #16]
 8005514:	4643      	mov	r3, r8
 8005516:	4621      	mov	r1, r4
 8005518:	4638      	mov	r0, r7
 800551a:	f8cd 9000 	str.w	r9, [sp]
 800551e:	aa03      	add	r2, sp, #12
 8005520:	f7ff fee0 	bl	80052e4 <_printf_common>
 8005524:	3001      	adds	r0, #1
 8005526:	d14e      	bne.n	80055c6 <_printf_i+0x1fe>
 8005528:	f04f 30ff 	mov.w	r0, #4294967295	@ 0xffffffff
 800552c:	b005      	add	sp, #20
 800552e:	e8bd 83f0 	ldmia.w	sp!, {r4, r5, r6, r7, r8, r9, pc}
 8005532:	6823      	ldr	r3, [r4, #0]
 8005534:	f043 0320 	orr.w	r3, r3, #32
 8005538:	6023      	str	r3, [r4, #0]
 800553a:	2578      	movs	r5, #120	@ 0x78
 800553c:	4834      	ldr	r0, [pc, #208]	@ (8005610 <_printf_i+0x248>)
 800553e:	f884 5045 	strb.w	r5, [r4, #69]	@ 0x45
 8005542:	6823      	ldr	r3, [r4, #0]
 8005544:	6831      	ldr	r1, [r6, #0]
 8005546:	f013 0f80 	tst.w	r3, #128	@ 0x80
 800554a:	f851 5b04 	ldr.w	r5, [r1], #4
 800554e:	d103      	bne.n	8005558 <_printf_i+0x190>
 8005550:	f013 0f40 	tst.w	r3, #64	@ 0x40
 8005554:	bf18      	it	ne
 8005556:	b2ad      	uxthne	r5, r5
 8005558:	6031      	str	r1, [r6, #0]
 800555a:	07d9      	lsls	r1, r3, #31
 800555c:	bf44      	itt	mi
 800555e:	f043 0320 	orrmi.w	r3, r3, #32
 8005562:	6023      	strmi	r3, [r4, #0]
 8005564:	b11d      	cbz	r5, 800556e <_printf_i+0x1a6>
 8005566:	2310      	movs	r3, #16
 8005568:	e7aa      	b.n	80054c0 <_printf_i+0xf8>
 800556a:	4828      	ldr	r0, [pc, #160]	@ (800560c <_printf_i+0x244>)
 800556c:	e7e7      	b.n	800553e <_printf_i+0x176>
 800556e:	6823      	ldr	r3, [r4, #0]
 8005570:	f023 0320 	bic.w	r3, r3, #32
 8005574:	6023      	str	r3, [r4, #0]
 8005576:	e7f6      	b.n	8005566 <_printf_i+0x19e>
 8005578:	230a      	movs	r3, #10
 800557a:	e7a1      	b.n	80054c0 <_printf_i+0xf8>
 800557c:	4616      	mov	r6, r2
 800557e:	e7b9      	b.n	80054f4 <_printf_i+0x12c>
 8005580:	6833      	ldr	r3, [r6, #0]
 8005582:	6825      	ldr	r5, [r4, #0]
 8005584:	1d18      	adds	r0, r3, #4
 8005586:	6961      	ldr	r1, [r4, #20]
 8005588:	6030      	str	r0, [r6, #0]
 800558a:	062e      	lsls	r6, r5, #24
 800558c:	681b      	ldr	r3, [r3, #0]
 800558e:	d501      	bpl.n	8005594 <_printf_i+0x1cc>
 8005590:	6019      	str	r1, [r3, #0]
 8005592:	e002      	b.n	800559a <_printf_i+0x1d2>
 8005594:	0668      	lsls	r0, r5, #25
 8005596:	d5fb      	bpl.n	8005590 <_printf_i+0x1c8>
 8005598:	8019      	strh	r1, [r3, #0]
 800559a:	2300      	movs	r3, #0
 800559c:	4616      	mov	r6, r2
 800559e:	6123      	str	r3, [r4, #16]
 80055a0:	e7b8      	b.n	8005514 <_printf_i+0x14c>
 80055a2:	6833      	ldr	r3, [r6, #0]
 80055a4:	2100      	movs	r1, #0
 80055a6:	1d1a      	adds	r2, r3, #4
 80055a8:	6032      	str	r2, [r6, #0]
 80055aa:	681e      	ldr	r6, [r3, #0]
 80055ac:	6862      	ldr	r2, [r4, #4]
 80055ae:	4630      	mov	r0, r6
 80055b0:	f000 f940 	bl	8005834 <memchr>
 80055b4:	b108      	cbz	r0, 80055ba <_printf_i+0x1f2>
 80055b6:	1b80      	subs	r0, r0, r6
 80055b8:	6060      	str	r0, [r4, #4]
 80055ba:	6863      	ldr	r3, [r4, #4]
 80055bc:	6123      	str	r3, [r4, #16]
 80055be:	2300      	movs	r3, #0
 80055c0:	f884 3043 	strb.w	r3, [r4, #67]	@ 0x43
 80055c4:	e7a6      	b.n	8005514 <_printf_i+0x14c>
 80055c6:	4632      	mov	r2, r6
 80055c8:	4641      	mov	r1, r8
 80055ca:	4638      	mov	r0, r7
 80055cc:	6923      	ldr	r3, [r4, #16]
 80055ce:	47c8      	blx	r9
 80055d0:	3001      	adds	r0, #1
 80055d2:	d0a9      	beq.n	8005528 <_printf_i+0x160>
 80055d4:	6823      	ldr	r3, [r4, #0]
 80055d6:	079b      	lsls	r3, r3, #30
 80055d8:	d413      	bmi.n	8005602 <_printf_i+0x23a>
 80055da:	68e0      	ldr	r0, [r4, #12]
 80055dc:	9b03      	ldr	r3, [sp, #12]
 80055de:	4298      	cmp	r0, r3
 80055e0:	bfb8      	it	lt
 80055e2:	4618      	movlt	r0, r3
 80055e4:	e7a2      	b.n	800552c <_printf_i+0x164>
 80055e6:	2301      	movs	r3, #1
 80055e8:	4632      	mov	r2, r6
 80055ea:	4641      	mov	r1, r8
 80055ec:	4638      	mov	r0, r7
 80055ee:	47c8      	blx	r9
 80055f0:	3001      	adds	r0, #1
 80055f2:	d099      	beq.n	8005528 <_printf_i+0x160>
 80055f4:	3501      	adds	r5, #1
 80055f6:	68e3      	ldr	r3, [r4, #12]
 80055f8:	9903      	ldr	r1, [sp, #12]
 80055fa:	1a5b      	subs	r3, r3, r1
 80055fc:	42ab      	cmp	r3, r5
 80055fe:	dcf2      	bgt.n	80055e6 <_printf_i+0x21e>
 8005600:	e7eb      	b.n	80055da <_printf_i+0x212>
 8005602:	2500      	movs	r5, #0
 8005604:	f104 0619 	add.w	r6, r4, #25
 8005608:	e7f5      	b.n	80055f6 <_printf_i+0x22e>
 800560a:	bf00      	nop
 800560c:	08007e08 	.word	0x08007e08
 8005610:	08007e19 	.word	0x08007e19

08005614 <std>:
 8005614:	2300      	movs	r3, #0
 8005616:	b510      	push	{r4, lr}
 8005618:	4604      	mov	r4, r0
 800561a:	e9c0 3300 	strd	r3, r3, [r0]
 800561e:	e9c0 3304 	strd	r3, r3, [r0, #16]
 8005622:	6083      	str	r3, [r0, #8]
 8005624:	8181      	strh	r1, [r0, #12]
 8005626:	6643      	str	r3, [r0, #100]	@ 0x64
 8005628:	81c2      	strh	r2, [r0, #14]
 800562a:	6183      	str	r3, [r0, #24]
 800562c:	4619      	mov	r1, r3
 800562e:	2208      	movs	r2, #8
 8005630:	305c      	adds	r0, #92	@ 0x5c
 8005632:	f000 f8c5 	bl	80057c0 <memset>
 8005636:	4b0d      	ldr	r3, [pc, #52]	@ (800566c <std+0x58>)
 8005638:	6224      	str	r4, [r4, #32]
 800563a:	6263      	str	r3, [r4, #36]	@ 0x24
 800563c:	4b0c      	ldr	r3, [pc, #48]	@ (8005670 <std+0x5c>)
 800563e:	62a3      	str	r3, [r4, #40]	@ 0x28
 8005640:	4b0c      	ldr	r3, [pc, #48]	@ (8005674 <std+0x60>)
 8005642:	62e3      	str	r3, [r4, #44]	@ 0x2c
 8005644:	4b0c      	ldr	r3, [pc, #48]	@ (8005678 <std+0x64>)
 8005646:	6323      	str	r3, [r4, #48]	@ 0x30
 8005648:	4b0c      	ldr	r3, [pc, #48]	@ (800567c <std+0x68>)
 800564a:	429c      	cmp	r4, r3
 800564c:	d006      	beq.n	800565c <std+0x48>
 800564e:	f103 0268 	add.w	r2, r3, #104	@ 0x68
 8005652:	4294      	cmp	r4, r2
 8005654:	d002      	beq.n	800565c <std+0x48>
 8005656:	33d0      	adds	r3, #208	@ 0xd0
 8005658:	429c      	cmp	r4, r3
 800565a:	d105      	bne.n	8005668 <std+0x54>
 800565c:	f104 0058 	add.w	r0, r4, #88	@ 0x58
 8005660:	e8bd 4010 	ldmia.w	sp!, {r4, lr}
 8005664:	f000 b8de 	b.w	8005824 <__retarget_lock_init_recursive>
 8005668:	bd10      	pop	{r4, pc}
 800566a:	bf00      	nop
 800566c:	08007165 	.word	0x08007165
 8005670:	08007187 	.word	0x08007187
 8005674:	080071bf 	.word	0x080071bf
 8005678:	080071e5 	.word	0x080071e5
 800567c:	20000364 	.word	0x20000364

08005680 <stdio_exit_handler>:
 8005680:	4a02      	ldr	r2, [pc, #8]	@ (800568c <stdio_exit_handler+0xc>)
 8005682:	4903      	ldr	r1, [pc, #12]	@ (8005690 <stdio_exit_handler+0x10>)
 8005684:	4803      	ldr	r0, [pc, #12]	@ (8005694 <stdio_exit_handler+0x14>)
 8005686:	f000 b86b 	b.w	8005760 <_fwalk_sglue>
 800568a:	bf00      	nop
 800568c:	2000000c 	.word	0x2000000c
 8005690:	080069f5 	.word	0x080069f5
 8005694:	2000001c 	.word	0x2000001c

08005698 <cleanup_stdio>:
 8005698:	6841      	ldr	r1, [r0, #4]
 800569a:	4b0c      	ldr	r3, [pc, #48]	@ (80056cc <cleanup_stdio+0x34>)
 800569c:	b510      	push	{r4, lr}
 800569e:	4299      	cmp	r1, r3
 80056a0:	4604      	mov	r4, r0
 80056a2:	d001      	beq.n	80056a8 <cleanup_stdio+0x10>
 80056a4:	f001 f9a6 	bl	80069f4 <_fflush_r>
 80056a8:	68a1      	ldr	r1, [r4, #8]
 80056aa:	4b09      	ldr	r3, [pc, #36]	@ (80056d0 <cleanup_stdio+0x38>)
 80056ac:	4299      	cmp	r1, r3
 80056ae:	d002      	beq.n	80056b6 <cleanup_stdio+0x1e>
 80056b0:	4620      	mov	r0, r4
 80056b2:	f001 f99f 	bl	80069f4 <_fflush_r>
 80056b6:	68e1      	ldr	r1, [r4, #12]
 80056b8:	4b06      	ldr	r3, [pc, #24]	@ (80056d4 <cleanup_stdio+0x3c>)
 80056ba:	4299      	cmp	r1, r3
 80056bc:	d004      	beq.n	80056c8 <cleanup_stdio+0x30>
 80056be:	4620      	mov	r0, r4
 80056c0:	e8bd 4010 	ldmia.w	sp!, {r4, lr}
 80056c4:	f001 b996 	b.w	80069f4 <_fflush_r>
 80056c8:	bd10      	pop	{r4, pc}
 80056ca:	bf00      	nop
 80056cc:	20000364 	.word	0x20000364
 80056d0:	200003cc 	.word	0x200003cc
 80056d4:	20000434 	.word	0x20000434

080056d8 <global_stdio_init.part.0>:
 80056d8:	4b0c      	ldr	r3, [pc, #48]	@ (800570c <global_stdio_init.part.0+0x34>)
 80056da:	4a0d      	ldr	r2, [pc, #52]	@ (8005710 <global_stdio_init.part.0+0x38>)
 80056dc:	b510      	push	{r4, lr}
 80056de:	2104      	movs	r1, #4
 80056e0:	601a      	str	r2, [r3, #0]
 80056e2:	480c      	ldr	r0, [pc, #48]	@ (8005714 <global_stdio_init.part.0+0x3c>)
 80056e4:	2200      	movs	r2, #0
 80056e6:	f7ff ff95 	bl	8005614 <std>
 80056ea:	4b0a      	ldr	r3, [pc, #40]	@ (8005714 <global_stdio_init.part.0+0x3c>)
 80056ec:	2201      	movs	r2, #1
 80056ee:	461c      	mov	r4, r3
 80056f0:	2109      	movs	r1, #9
 80056f2:	f103 0068 	add.w	r0, r3, #104	@ 0x68
 80056f6:	f7ff ff8d 	bl	8005614 <std>
 80056fa:	f104 00d0 	add.w	r0, r4, #208	@ 0xd0
 80056fe:	2202      	movs	r2, #2
 8005700:	e8bd 4010 	ldmia.w	sp!, {r4, lr}
 8005704:	2112      	movs	r1, #18
 8005706:	f7ff bf85 	b.w	8005614 <std>
 800570a:	bf00      	nop
 800570c:	2000049c 	.word	0x2000049c
 8005710:	08005681 	.word	0x08005681
 8005714:	20000364 	.word	0x20000364

08005718 <__sfp_lock_acquire>:
 8005718:	4801      	ldr	r0, [pc, #4]	@ (8005720 <__sfp_lock_acquire+0x8>)
 800571a:	f000 b884 	b.w	8005826 <__retarget_lock_acquire_recursive>
 800571e:	bf00      	nop
 8005720:	200004a1 	.word	0x200004a1

08005724 <__sfp_lock_release>:
 8005724:	4801      	ldr	r0, [pc, #4]	@ (800572c <__sfp_lock_release+0x8>)
 8005726:	f000 b87f 	b.w	8005828 <__retarget_lock_release_recursive>
 800572a:	bf00      	nop
 800572c:	200004a1 	.word	0x200004a1

08005730 <__sinit>:
 8005730:	b510      	push	{r4, lr}
 8005732:	4604      	mov	r4, r0
 8005734:	f7ff fff0 	bl	8005718 <__sfp_lock_acquire>
 8005738:	6a23      	ldr	r3, [r4, #32]
 800573a:	b11b      	cbz	r3, 8005744 <__sinit+0x14>
 800573c:	e8bd 4010 	ldmia.w	sp!, {r4, lr}
 8005740:	f7ff bff0 	b.w	8005724 <__sfp_lock_release>
 8005744:	4b04      	ldr	r3, [pc, #16]	@ (8005758 <__sinit+0x28>)
 8005746:	6223      	str	r3, [r4, #32]
 8005748:	4b04      	ldr	r3, [pc, #16]	@ (800575c <__sinit+0x2c>)
 800574a:	681b      	ldr	r3, [r3, #0]
 800574c:	2b00      	cmp	r3, #0
 800574e:	d1f5      	bne.n	800573c <__sinit+0xc>
 8005750:	f7ff ffc2 	bl	80056d8 <global_stdio_init.part.0>
 8005754:	e7f2      	b.n	800573c <__sinit+0xc>
 8005756:	bf00      	nop
 8005758:	08005699 	.word	0x08005699
 800575c:	2000049c 	.word	0x2000049c

08005760 <_fwalk_sglue>:
 8005760:	e92d 43f8 	stmdb	sp!, {r3, r4, r5, r6, r7, r8, r9, lr}
 8005764:	4607      	mov	r7, r0
 8005766:	4688      	mov	r8, r1
 8005768:	4614      	mov	r4, r2
 800576a:	2600      	movs	r6, #0
 800576c:	e9d4 9501 	ldrd	r9, r5, [r4, #4]
 8005770:	f1b9 0901 	subs.w	r9, r9, #1
 8005774:	d505      	bpl.n	8005782 <_fwalk_sglue+0x22>
 8005776:	6824      	ldr	r4, [r4, #0]
 8005778:	2c00      	cmp	r4, #0
 800577a:	d1f7      	bne.n	800576c <_fwalk_sglue+0xc>
 800577c:	4630      	mov	r0, r6
 800577e:	e8bd 83f8 	ldmia.w	sp!, {r3, r4, r5, r6, r7, r8, r9, pc}
 8005782:	89ab      	ldrh	r3, [r5, #12]
 8005784:	2b01      	cmp	r3, #1
 8005786:	d907      	bls.n	8005798 <_fwalk_sglue+0x38>
 8005788:	f9b5 300e 	ldrsh.w	r3, [r5, #14]
 800578c:	3301      	adds	r3, #1
 800578e:	d003      	beq.n	8005798 <_fwalk_sglue+0x38>
 8005790:	4629      	mov	r1, r5
 8005792:	4638      	mov	r0, r7
 8005794:	47c0      	blx	r8
 8005796:	4306      	orrs	r6, r0
 8005798:	3568      	adds	r5, #104	@ 0x68
 800579a:	e7e9      	b.n	8005770 <_fwalk_sglue+0x10>

0800579c <iprintf>:
 800579c:	b40f      	push	{r0, r1, r2, r3}
 800579e:	b507      	push	{r0, r1, r2, lr}
 80057a0:	4906      	ldr	r1, [pc, #24]	@ (80057bc <iprintf+0x20>)
 80057a2:	ab04      	add	r3, sp, #16
 80057a4:	6808      	ldr	r0, [r1, #0]
 80057a6:	f853 2b04 	ldr.w	r2, [r3], #4
 80057aa:	6881      	ldr	r1, [r0, #8]
 80057ac:	9301      	str	r3, [sp, #4]
 80057ae:	f000 fee5 	bl	800657c <_vfiprintf_r>
 80057b2:	b003      	add	sp, #12
 80057b4:	f85d eb04 	ldr.w	lr, [sp], #4
 80057b8:	b004      	add	sp, #16
 80057ba:	4770      	bx	lr
 80057bc:	20000018 	.word	0x20000018

080057c0 <memset>:
 80057c0:	4603      	mov	r3, r0
 80057c2:	4402      	add	r2, r0
 80057c4:	4293      	cmp	r3, r2
 80057c6:	d100      	bne.n	80057ca <memset+0xa>
 80057c8:	4770      	bx	lr
 80057ca:	f803 1b01 	strb.w	r1, [r3], #1
 80057ce:	e7f9      	b.n	80057c4 <memset+0x4>

080057d0 <__errno>:
 80057d0:	4b01      	ldr	r3, [pc, #4]	@ (80057d8 <__errno+0x8>)
 80057d2:	6818      	ldr	r0, [r3, #0]
 80057d4:	4770      	bx	lr
 80057d6:	bf00      	nop
 80057d8:	20000018 	.word	0x20000018

080057dc <__libc_init_array>:
 80057dc:	b570      	push	{r4, r5, r6, lr}
 80057de:	2600      	movs	r6, #0
 80057e0:	4d0c      	ldr	r5, [pc, #48]	@ (8005814 <__libc_init_array+0x38>)
 80057e2:	4b0d      	ldr	r3, [pc, #52]	@ (8005818 <__libc_init_array+0x3c>)
 80057e4:	1b5b      	subs	r3, r3, r5
 80057e6:	109c      	asrs	r4, r3, #2
 80057e8:	42a6      	cmp	r6, r4
 80057ea:	d109      	bne.n	8005800 <__libc_init_array+0x24>
 80057ec:	2600      	movs	r6, #0
 80057ee:	f002 fa3b 	bl	8007c68 <_init>
 80057f2:	4d0a      	ldr	r5, [pc, #40]	@ (800581c <__libc_init_array+0x40>)
 80057f4:	4b0a      	ldr	r3, [pc, #40]	@ (8005820 <__libc_init_array+0x44>)
 80057f6:	1b5b      	subs	r3, r3, r5
 80057f8:	109c      	asrs	r4, r3, #2
 80057fa:	42a6      	cmp	r6, r4
 80057fc:	d105      	bne.n	800580a <__libc_init_array+0x2e>
 80057fe:	bd70      	pop	{r4, r5, r6, pc}
 8005800:	f855 3b04 	ldr.w	r3, [r5], #4
 8005804:	4798      	blx	r3
 8005806:	3601      	adds	r6, #1
 8005808:	e7ee      	b.n	80057e8 <__libc_init_array+0xc>
 800580a:	f855 3b04 	ldr.w	r3, [r5], #4
 800580e:	4798      	blx	r3
 8005810:	3601      	adds	r6, #1
 8005812:	e7f2      	b.n	80057fa <__libc_init_array+0x1e>
 8005814:	0800818c 	.word	0x0800818c
 8005818:	0800818c 	.word	0x0800818c
 800581c:	0800818c 	.word	0x0800818c
 8005820:	08008190 	.word	0x08008190

08005824 <__retarget_lock_init_recursive>:
 8005824:	4770      	bx	lr

08005826 <__retarget_lock_acquire_recursive>:
 8005826:	4770      	bx	lr

08005828 <__retarget_lock_release_recursive>:
 8005828:	4770      	bx	lr
	...

0800582c <_localeconv_r>:
 800582c:	4800      	ldr	r0, [pc, #0]	@ (8005830 <_localeconv_r+0x4>)
 800582e:	4770      	bx	lr
 8005830:	20000158 	.word	0x20000158

08005834 <memchr>:
 8005834:	4603      	mov	r3, r0
 8005836:	b510      	push	{r4, lr}
 8005838:	b2c9      	uxtb	r1, r1
 800583a:	4402      	add	r2, r0
 800583c:	4293      	cmp	r3, r2
 800583e:	4618      	mov	r0, r3
 8005840:	d101      	bne.n	8005846 <memchr+0x12>
 8005842:	2000      	movs	r0, #0
 8005844:	e003      	b.n	800584e <memchr+0x1a>
 8005846:	7804      	ldrb	r4, [r0, #0]
 8005848:	3301      	adds	r3, #1
 800584a:	428c      	cmp	r4, r1
 800584c:	d1f6      	bne.n	800583c <memchr+0x8>
 800584e:	bd10      	pop	{r4, pc}

08005850 <quorem>:
 8005850:	e92d 4ff7 	stmdb	sp!, {r0, r1, r2, r4, r5, r6, r7, r8, r9, sl, fp, lr}
 8005854:	6903      	ldr	r3, [r0, #16]
 8005856:	690c      	ldr	r4, [r1, #16]
 8005858:	4607      	mov	r7, r0
 800585a:	42a3      	cmp	r3, r4
 800585c:	db7e      	blt.n	800595c <quorem+0x10c>
 800585e:	3c01      	subs	r4, #1
 8005860:	00a3      	lsls	r3, r4, #2
 8005862:	f100 0514 	add.w	r5, r0, #20
 8005866:	f101 0814 	add.w	r8, r1, #20
 800586a:	9300      	str	r3, [sp, #0]
 800586c:	eb05 0384 	add.w	r3, r5, r4, lsl #2
 8005870:	9301      	str	r3, [sp, #4]
 8005872:	f858 3024 	ldr.w	r3, [r8, r4, lsl #2]
 8005876:	f855 2024 	ldr.w	r2, [r5, r4, lsl #2]
 800587a:	3301      	adds	r3, #1
 800587c:	429a      	cmp	r2, r3
 800587e:	fbb2 f6f3 	udiv	r6, r2, r3
 8005882:	eb08 0984 	add.w	r9, r8, r4, lsl #2
 8005886:	d32e      	bcc.n	80058e6 <quorem+0x96>
 8005888:	f04f 0a00 	mov.w	sl, #0
 800588c:	46c4      	mov	ip, r8
 800588e:	46ae      	mov	lr, r5
 8005890:	46d3      	mov	fp, sl
 8005892:	f85c 3b04 	ldr.w	r3, [ip], #4
 8005896:	b298      	uxth	r0, r3
 8005898:	fb06 a000 	mla	r0, r6, r0, sl
 800589c:	0c1b      	lsrs	r3, r3, #16
 800589e:	0c02      	lsrs	r2, r0, #16
 80058a0:	fb06 2303 	mla	r3, r6, r3, r2
 80058a4:	f8de 2000 	ldr.w	r2, [lr]
 80058a8:	b280      	uxth	r0, r0
 80058aa:	b292      	uxth	r2, r2
 80058ac:	1a12      	subs	r2, r2, r0
 80058ae:	445a      	add	r2, fp
 80058b0:	f8de 0000 	ldr.w	r0, [lr]
 80058b4:	ea4f 4a13 	mov.w	sl, r3, lsr #16
 80058b8:	b29b      	uxth	r3, r3
 80058ba:	ebc3 4322 	rsb	r3, r3, r2, asr #16
 80058be:	eb03 4310 	add.w	r3, r3, r0, lsr #16
 80058c2:	b292      	uxth	r2, r2
 80058c4:	ea42 4203 	orr.w	r2, r2, r3, lsl #16
 80058c8:	45e1      	cmp	r9, ip
 80058ca:	ea4f 4b23 	mov.w	fp, r3, asr #16
 80058ce:	f84e 2b04 	str.w	r2, [lr], #4
 80058d2:	d2de      	bcs.n	8005892 <quorem+0x42>
 80058d4:	9b00      	ldr	r3, [sp, #0]
 80058d6:	58eb      	ldr	r3, [r5, r3]
 80058d8:	b92b      	cbnz	r3, 80058e6 <quorem+0x96>
 80058da:	9b01      	ldr	r3, [sp, #4]
 80058dc:	3b04      	subs	r3, #4
 80058de:	429d      	cmp	r5, r3
 80058e0:	461a      	mov	r2, r3
 80058e2:	d32f      	bcc.n	8005944 <quorem+0xf4>
 80058e4:	613c      	str	r4, [r7, #16]
 80058e6:	4638      	mov	r0, r7
 80058e8:	f001 fb30 	bl	8006f4c <__mcmp>
 80058ec:	2800      	cmp	r0, #0
 80058ee:	db25      	blt.n	800593c <quorem+0xec>
 80058f0:	4629      	mov	r1, r5
 80058f2:	2000      	movs	r0, #0
 80058f4:	f858 2b04 	ldr.w	r2, [r8], #4
 80058f8:	f8d1 c000 	ldr.w	ip, [r1]
 80058fc:	fa1f fe82 	uxth.w	lr, r2
 8005900:	fa1f f38c 	uxth.w	r3, ip
 8005904:	eba3 030e 	sub.w	r3, r3, lr
 8005908:	4403      	add	r3, r0
 800590a:	0c12      	lsrs	r2, r2, #16
 800590c:	ebc2 4223 	rsb	r2, r2, r3, asr #16
 8005910:	eb02 421c 	add.w	r2, r2, ip, lsr #16
 8005914:	b29b      	uxth	r3, r3
 8005916:	ea43 4302 	orr.w	r3, r3, r2, lsl #16
 800591a:	45c1      	cmp	r9, r8
 800591c:	ea4f 4022 	mov.w	r0, r2, asr #16
 8005920:	f841 3b04 	str.w	r3, [r1], #4
 8005924:	d2e6      	bcs.n	80058f4 <quorem+0xa4>
 8005926:	f855 2024 	ldr.w	r2, [r5, r4, lsl #2]
 800592a:	eb05 0384 	add.w	r3, r5, r4, lsl #2
 800592e:	b922      	cbnz	r2, 800593a <quorem+0xea>
 8005930:	3b04      	subs	r3, #4
 8005932:	429d      	cmp	r5, r3
 8005934:	461a      	mov	r2, r3
 8005936:	d30b      	bcc.n	8005950 <quorem+0x100>
 8005938:	613c      	str	r4, [r7, #16]
 800593a:	3601      	adds	r6, #1
 800593c:	4630      	mov	r0, r6
 800593e:	b003      	add	sp, #12
 8005940:	e8bd 8ff0 	ldmia.w	sp!, {r4, r5, r6, r7, r8, r9, sl, fp, pc}
 8005944:	6812      	ldr	r2, [r2, #0]
 8005946:	3b04      	subs	r3, #4
 8005948:	2a00      	cmp	r2, #0
 800594a:	d1cb      	bne.n	80058e4 <quorem+0x94>
 800594c:	3c01      	subs	r4, #1
 800594e:	e7c6      	b.n	80058de <quorem+0x8e>
 8005950:	6812      	ldr	r2, [r2, #0]
 8005952:	3b04      	subs	r3, #4
 8005954:	2a00      	cmp	r2, #0
 8005956:	d1ef      	bne.n	8005938 <quorem+0xe8>
 8005958:	3c01      	subs	r4, #1
 800595a:	e7ea      	b.n	8005932 <quorem+0xe2>
 800595c:	2000      	movs	r0, #0
 800595e:	e7ee      	b.n	800593e <quorem+0xee>

08005960 <_dtoa_r>:
 8005960:	e92d 4ff0 	stmdb	sp!, {r4, r5, r6, r7, r8, r9, sl, fp, lr}
 8005964:	4616      	mov	r6, r2
 8005966:	461f      	mov	r7, r3
 8005968:	69c2      	ldr	r2, [r0, #28]
 800596a:	b099      	sub	sp, #100	@ 0x64
 800596c:	4681      	mov	r9, r0
 800596e:	e9cd 670e 	strd	r6, r7, [sp, #56]	@ 0x38
 8005972:	9c25      	ldr	r4, [sp, #148]	@ 0x94
 8005974:	b982      	cbnz	r2, 8005998 <_dtoa_r+0x38>
 8005976:	2010      	movs	r0, #16
 8005978:	f000 ff14 	bl	80067a4 <malloc>
 800597c:	4602      	mov	r2, r0
 800597e:	f8c9 001c 	str.w	r0, [r9, #28]
 8005982:	b920      	cbnz	r0, 800598e <_dtoa_r+0x2e>
 8005984:	21ef      	movs	r1, #239	@ 0xef
 8005986:	4ba8      	ldr	r3, [pc, #672]	@ (8005c28 <_dtoa_r+0x2c8>)
 8005988:	48a8      	ldr	r0, [pc, #672]	@ (8005c2c <_dtoa_r+0x2cc>)
 800598a:	f001 fda5 	bl	80074d8 <__assert_func>
 800598e:	2300      	movs	r3, #0
 8005990:	e9c0 3301 	strd	r3, r3, [r0, #4]
 8005994:	6003      	str	r3, [r0, #0]
 8005996:	60c3      	str	r3, [r0, #12]
 8005998:	6811      	ldr	r1, [r2, #0]
 800599a:	b159      	cbz	r1, 80059b4 <_dtoa_r+0x54>
 800599c:	2301      	movs	r3, #1
 800599e:	6852      	ldr	r2, [r2, #4]
 80059a0:	4648      	mov	r0, r9
 80059a2:	4093      	lsls	r3, r2
 80059a4:	604a      	str	r2, [r1, #4]
 80059a6:	608b      	str	r3, [r1, #8]
 80059a8:	f001 f896 	bl	8006ad8 <_Bfree>
 80059ac:	2200      	movs	r2, #0
 80059ae:	f8d9 301c 	ldr.w	r3, [r9, #28]
 80059b2:	601a      	str	r2, [r3, #0]
 80059b4:	f1b7 0800 	subs.w	r8, r7, #0
 80059b8:	bfb5      	itete	lt
 80059ba:	2301      	movlt	r3, #1
 80059bc:	2300      	movge	r3, #0
 80059be:	6023      	strlt	r3, [r4, #0]
 80059c0:	6023      	strge	r3, [r4, #0]
 80059c2:	4b9b      	ldr	r3, [pc, #620]	@ (8005c30 <_dtoa_r+0x2d0>)
 80059c4:	bfbc      	itt	lt
 80059c6:	f028 4800 	biclt.w	r8, r8, #2147483648	@ 0x80000000
 80059ca:	f8cd 803c 	strlt.w	r8, [sp, #60]	@ 0x3c
 80059ce:	ea33 0308 	bics.w	r3, r3, r8
 80059d2:	d11a      	bne.n	8005a0a <_dtoa_r+0xaa>
 80059d4:	f242 730f 	movw	r3, #9999	@ 0x270f
 80059d8:	9a24      	ldr	r2, [sp, #144]	@ 0x90
 80059da:	f3c8 0813 	ubfx	r8, r8, #0, #20
 80059de:	ea58 0806 	orrs.w	r8, r8, r6
 80059e2:	6013      	str	r3, [r2, #0]
 80059e4:	f000 8574 	beq.w	80064d0 <_dtoa_r+0xb70>
 80059e8:	9b26      	ldr	r3, [sp, #152]	@ 0x98
 80059ea:	b953      	cbnz	r3, 8005a02 <_dtoa_r+0xa2>
 80059ec:	4b91      	ldr	r3, [pc, #580]	@ (8005c34 <_dtoa_r+0x2d4>)
 80059ee:	e021      	b.n	8005a34 <_dtoa_r+0xd4>
 80059f0:	4b91      	ldr	r3, [pc, #580]	@ (8005c38 <_dtoa_r+0x2d8>)
 80059f2:	9303      	str	r3, [sp, #12]
 80059f4:	3308      	adds	r3, #8
 80059f6:	9a26      	ldr	r2, [sp, #152]	@ 0x98
 80059f8:	6013      	str	r3, [r2, #0]
 80059fa:	9803      	ldr	r0, [sp, #12]
 80059fc:	b019      	add	sp, #100	@ 0x64
 80059fe:	e8bd 8ff0 	ldmia.w	sp!, {r4, r5, r6, r7, r8, r9, sl, fp, pc}
 8005a02:	4b8c      	ldr	r3, [pc, #560]	@ (8005c34 <_dtoa_r+0x2d4>)
 8005a04:	9303      	str	r3, [sp, #12]
 8005a06:	3303      	adds	r3, #3
 8005a08:	e7f5      	b.n	80059f6 <_dtoa_r+0x96>
 8005a0a:	e9dd 340e 	ldrd	r3, r4, [sp, #56]	@ 0x38
 8005a0e:	e9cd 340a 	strd	r3, r4, [sp, #40]	@ 0x28
 8005a12:	e9dd 010a 	ldrd	r0, r1, [sp, #40]	@ 0x28
 8005a16:	2200      	movs	r2, #0
 8005a18:	2300      	movs	r3, #0
 8005a1a:	f7fa ffc5 	bl	80009a8 <__aeabi_dcmpeq>
 8005a1e:	4682      	mov	sl, r0
 8005a20:	b150      	cbz	r0, 8005a38 <_dtoa_r+0xd8>
 8005a22:	2301      	movs	r3, #1
 8005a24:	9a24      	ldr	r2, [sp, #144]	@ 0x90
 8005a26:	6013      	str	r3, [r2, #0]
 8005a28:	9b26      	ldr	r3, [sp, #152]	@ 0x98
 8005a2a:	b113      	cbz	r3, 8005a32 <_dtoa_r+0xd2>
 8005a2c:	4b83      	ldr	r3, [pc, #524]	@ (8005c3c <_dtoa_r+0x2dc>)
 8005a2e:	9a26      	ldr	r2, [sp, #152]	@ 0x98
 8005a30:	6013      	str	r3, [r2, #0]
 8005a32:	4b83      	ldr	r3, [pc, #524]	@ (8005c40 <_dtoa_r+0x2e0>)
 8005a34:	9303      	str	r3, [sp, #12]
 8005a36:	e7e0      	b.n	80059fa <_dtoa_r+0x9a>
 8005a38:	ab16      	add	r3, sp, #88	@ 0x58
 8005a3a:	9301      	str	r3, [sp, #4]
 8005a3c:	ab17      	add	r3, sp, #92	@ 0x5c
 8005a3e:	9300      	str	r3, [sp, #0]
 8005a40:	4648      	mov	r0, r9
 8005a42:	e9dd 230a 	ldrd	r2, r3, [sp, #40]	@ 0x28
 8005a46:	f001 fb35 	bl	80070b4 <__d2b>
 8005a4a:	ea5f 5418 	movs.w	r4, r8, lsr #20
 8005a4e:	9d16      	ldr	r5, [sp, #88]	@ 0x58
 8005a50:	9004      	str	r0, [sp, #16]
 8005a52:	d07b      	beq.n	8005b4c <_dtoa_r+0x1ec>
 8005a54:	e9dd 010a 	ldrd	r0, r1, [sp, #40]	@ 0x28
 8005a58:	9b0b      	ldr	r3, [sp, #44]	@ 0x2c
 8005a5a:	f2a4 34ff 	subw	r4, r4, #1023	@ 0x3ff
 8005a5e:	f3c3 0313 	ubfx	r3, r3, #0, #20
 8005a62:	f043 537f 	orr.w	r3, r3, #1069547520	@ 0x3fc00000
 8005a66:	f443 1340 	orr.w	r3, r3, #3145728	@ 0x300000
 8005a6a:	f8cd a050 	str.w	sl, [sp, #80]	@ 0x50
 8005a6e:	4619      	mov	r1, r3
 8005a70:	2200      	movs	r2, #0
 8005a72:	4b74      	ldr	r3, [pc, #464]	@ (8005c44 <_dtoa_r+0x2e4>)
 8005a74:	f7fa fb78 	bl	8000168 <__aeabi_dsub>
 8005a78:	a365      	add	r3, pc, #404	@ (adr r3, 8005c10 <_dtoa_r+0x2b0>)
 8005a7a:	e9d3 2300 	ldrd	r2, r3, [r3]
 8005a7e:	f7fa fd2b 	bl	80004d8 <__aeabi_dmul>
 8005a82:	a365      	add	r3, pc, #404	@ (adr r3, 8005c18 <_dtoa_r+0x2b8>)
 8005a84:	e9d3 2300 	ldrd	r2, r3, [r3]
 8005a88:	f7fa fb70 	bl	800016c <__adddf3>
 8005a8c:	4606      	mov	r6, r0
 8005a8e:	4620      	mov	r0, r4
 8005a90:	460f      	mov	r7, r1
 8005a92:	f7fa fcb7 	bl	8000404 <__aeabi_i2d>
 8005a96:	a362      	add	r3, pc, #392	@ (adr r3, 8005c20 <_dtoa_r+0x2c0>)
 8005a98:	e9d3 2300 	ldrd	r2, r3, [r3]
 8005a9c:	f7fa fd1c 	bl	80004d8 <__aeabi_dmul>
 8005aa0:	4602      	mov	r2, r0
 8005aa2:	460b      	mov	r3, r1
 8005aa4:	4630      	mov	r0, r6
 8005aa6:	4639      	mov	r1, r7
 8005aa8:	f7fa fb60 	bl	800016c <__adddf3>
 8005aac:	4606      	mov	r6, r0
 8005aae:	460f      	mov	r7, r1
 8005ab0:	f7fa ffc2 	bl	8000a38 <__aeabi_d2iz>
 8005ab4:	2200      	movs	r2, #0
 8005ab6:	4680      	mov	r8, r0
 8005ab8:	2300      	movs	r3, #0
 8005aba:	4630      	mov	r0, r6
 8005abc:	4639      	mov	r1, r7
 8005abe:	f7fa ff7d 	bl	80009bc <__aeabi_dcmplt>
 8005ac2:	b148      	cbz	r0, 8005ad8 <_dtoa_r+0x178>
 8005ac4:	4640      	mov	r0, r8
 8005ac6:	f7fa fc9d 	bl	8000404 <__aeabi_i2d>
 8005aca:	4632      	mov	r2, r6
 8005acc:	463b      	mov	r3, r7
 8005ace:	f7fa ff6b 	bl	80009a8 <__aeabi_dcmpeq>
 8005ad2:	b908      	cbnz	r0, 8005ad8 <_dtoa_r+0x178>
 8005ad4:	f108 38ff 	add.w	r8, r8, #4294967295	@ 0xffffffff
 8005ad8:	f1b8 0f16 	cmp.w	r8, #22
 8005adc:	d853      	bhi.n	8005b86 <_dtoa_r+0x226>
 8005ade:	e9dd 010a 	ldrd	r0, r1, [sp, #40]	@ 0x28
 8005ae2:	4b59      	ldr	r3, [pc, #356]	@ (8005c48 <_dtoa_r+0x2e8>)
 8005ae4:	eb03 03c8 	add.w	r3, r3, r8, lsl #3
 8005ae8:	e9d3 2300 	ldrd	r2, r3, [r3]
 8005aec:	f7fa ff66 	bl	80009bc <__aeabi_dcmplt>
 8005af0:	2800      	cmp	r0, #0
 8005af2:	d04a      	beq.n	8005b8a <_dtoa_r+0x22a>
 8005af4:	2300      	movs	r3, #0
 8005af6:	f108 38ff 	add.w	r8, r8, #4294967295	@ 0xffffffff
 8005afa:	9311      	str	r3, [sp, #68]	@ 0x44
 8005afc:	1b2d      	subs	r5, r5, r4
 8005afe:	1e6b      	subs	r3, r5, #1
 8005b00:	9309      	str	r3, [sp, #36]	@ 0x24
 8005b02:	bf49      	itett	mi
 8005b04:	2300      	movmi	r3, #0
 8005b06:	2700      	movpl	r7, #0
 8005b08:	f1c5 0701 	rsbmi	r7, r5, #1
 8005b0c:	9309      	strmi	r3, [sp, #36]	@ 0x24
 8005b0e:	f1b8 0f00 	cmp.w	r8, #0
 8005b12:	db3c      	blt.n	8005b8e <_dtoa_r+0x22e>
 8005b14:	9b09      	ldr	r3, [sp, #36]	@ 0x24
 8005b16:	f8cd 8040 	str.w	r8, [sp, #64]	@ 0x40
 8005b1a:	4443      	add	r3, r8
 8005b1c:	9309      	str	r3, [sp, #36]	@ 0x24
 8005b1e:	2300      	movs	r3, #0
 8005b20:	930c      	str	r3, [sp, #48]	@ 0x30
 8005b22:	9b22      	ldr	r3, [sp, #136]	@ 0x88
 8005b24:	2b09      	cmp	r3, #9
 8005b26:	d864      	bhi.n	8005bf2 <_dtoa_r+0x292>
 8005b28:	2b05      	cmp	r3, #5
 8005b2a:	bfc4      	itt	gt
 8005b2c:	3b04      	subgt	r3, #4
 8005b2e:	9322      	strgt	r3, [sp, #136]	@ 0x88
 8005b30:	9b22      	ldr	r3, [sp, #136]	@ 0x88
 8005b32:	bfc8      	it	gt
 8005b34:	2400      	movgt	r4, #0
 8005b36:	f1a3 0302 	sub.w	r3, r3, #2
 8005b3a:	bfd8      	it	le
 8005b3c:	2401      	movle	r4, #1
 8005b3e:	2b03      	cmp	r3, #3
 8005b40:	f200 8086 	bhi.w	8005c50 <_dtoa_r+0x2f0>
 8005b44:	e8df f003 	tbb	[pc, r3]
 8005b48:	2b365351 	.word	0x2b365351
 8005b4c:	9c17      	ldr	r4, [sp, #92]	@ 0x5c
 8005b4e:	442c      	add	r4, r5
 8005b50:	f204 4332 	addw	r3, r4, #1074	@ 0x432
 8005b54:	2b20      	cmp	r3, #32
 8005b56:	bfc1      	itttt	gt
 8005b58:	f1c3 0340 	rsbgt	r3, r3, #64	@ 0x40
 8005b5c:	fa08 f803 	lslgt.w	r8, r8, r3
 8005b60:	f204 4312 	addwgt	r3, r4, #1042	@ 0x412
 8005b64:	fa26 f303 	lsrgt.w	r3, r6, r3
 8005b68:	bfd6      	itet	le
 8005b6a:	f1c3 0320 	rsble	r3, r3, #32
 8005b6e:	ea48 0003 	orrgt.w	r0, r8, r3
 8005b72:	fa06 f003 	lslle.w	r0, r6, r3
 8005b76:	f7fa fc35 	bl	80003e4 <__aeabi_ui2d>
 8005b7a:	2201      	movs	r2, #1
 8005b7c:	f1a1 73f8 	sub.w	r3, r1, #32505856	@ 0x1f00000
 8005b80:	3c01      	subs	r4, #1
 8005b82:	9214      	str	r2, [sp, #80]	@ 0x50
 8005b84:	e773      	b.n	8005a6e <_dtoa_r+0x10e>
 8005b86:	2301      	movs	r3, #1
 8005b88:	e7b7      	b.n	8005afa <_dtoa_r+0x19a>
 8005b8a:	9011      	str	r0, [sp, #68]	@ 0x44
 8005b8c:	e7b6      	b.n	8005afc <_dtoa_r+0x19c>
 8005b8e:	f1c8 0300 	rsb	r3, r8, #0
 8005b92:	930c      	str	r3, [sp, #48]	@ 0x30
 8005b94:	2300      	movs	r3, #0
 8005b96:	eba7 0708 	sub.w	r7, r7, r8
 8005b9a:	9310      	str	r3, [sp, #64]	@ 0x40
 8005b9c:	e7c1      	b.n	8005b22 <_dtoa_r+0x1c2>
 8005b9e:	2301      	movs	r3, #1
 8005ba0:	930d      	str	r3, [sp, #52]	@ 0x34
 8005ba2:	9b23      	ldr	r3, [sp, #140]	@ 0x8c
 8005ba4:	4443      	add	r3, r8
 8005ba6:	9308      	str	r3, [sp, #32]
 8005ba8:	3301      	adds	r3, #1
 8005baa:	2b01      	cmp	r3, #1
 8005bac:	9305      	str	r3, [sp, #20]
 8005bae:	bfb8      	it	lt
 8005bb0:	2301      	movlt	r3, #1
 8005bb2:	e006      	b.n	8005bc2 <_dtoa_r+0x262>
 8005bb4:	2301      	movs	r3, #1
 8005bb6:	930d      	str	r3, [sp, #52]	@ 0x34
 8005bb8:	9b23      	ldr	r3, [sp, #140]	@ 0x8c
 8005bba:	2b00      	cmp	r3, #0
 8005bbc:	dd4b      	ble.n	8005c56 <_dtoa_r+0x2f6>
 8005bbe:	9308      	str	r3, [sp, #32]
 8005bc0:	9305      	str	r3, [sp, #20]
 8005bc2:	2100      	movs	r1, #0
 8005bc4:	2204      	movs	r2, #4
 8005bc6:	f8d9 001c 	ldr.w	r0, [r9, #28]
 8005bca:	f102 0514 	add.w	r5, r2, #20
 8005bce:	429d      	cmp	r5, r3
 8005bd0:	d946      	bls.n	8005c60 <_dtoa_r+0x300>
 8005bd2:	6041      	str	r1, [r0, #4]
 8005bd4:	4648      	mov	r0, r9
 8005bd6:	f000 ff41 	bl	8006a5c <_Balloc>
 8005bda:	9003      	str	r0, [sp, #12]
 8005bdc:	2800      	cmp	r0, #0
 8005bde:	d142      	bne.n	8005c66 <_dtoa_r+0x306>
 8005be0:	4602      	mov	r2, r0
 8005be2:	f240 11af 	movw	r1, #431	@ 0x1af
 8005be6:	4b19      	ldr	r3, [pc, #100]	@ (8005c4c <_dtoa_r+0x2ec>)
 8005be8:	e6ce      	b.n	8005988 <_dtoa_r+0x28>
 8005bea:	2300      	movs	r3, #0
 8005bec:	e7e3      	b.n	8005bb6 <_dtoa_r+0x256>
 8005bee:	2300      	movs	r3, #0
 8005bf0:	e7d6      	b.n	8005ba0 <_dtoa_r+0x240>
 8005bf2:	2401      	movs	r4, #1
 8005bf4:	2300      	movs	r3, #0
 8005bf6:	940d      	str	r4, [sp, #52]	@ 0x34
 8005bf8:	9322      	str	r3, [sp, #136]	@ 0x88
 8005bfa:	f04f 33ff 	mov.w	r3, #4294967295	@ 0xffffffff
 8005bfe:	2200      	movs	r2, #0
 8005c00:	9308      	str	r3, [sp, #32]
 8005c02:	9305      	str	r3, [sp, #20]
 8005c04:	2312      	movs	r3, #18
 8005c06:	9223      	str	r2, [sp, #140]	@ 0x8c
 8005c08:	e7db      	b.n	8005bc2 <_dtoa_r+0x262>
 8005c0a:	bf00      	nop
 8005c0c:	f3af 8000 	nop.w
 8005c10:	636f4361 	.word	0x636f4361
 8005c14:	3fd287a7 	.word	0x3fd287a7
 8005c18:	8b60c8b3 	.word	0x8b60c8b3
 8005c1c:	3fc68a28 	.word	0x3fc68a28
 8005c20:	509f79fb 	.word	0x509f79fb
 8005c24:	3fd34413 	.word	0x3fd34413
 8005c28:	08007e37 	.word	0x08007e37
 8005c2c:	08007e4e 	.word	0x08007e4e
 8005c30:	7ff00000 	.word	0x7ff00000
 8005c34:	08007e33 	.word	0x08007e33
 8005c38:	08007e2a 	.word	0x08007e2a
 8005c3c:	08007e07 	.word	0x08007e07
 8005c40:	08007e06 	.word	0x08007e06
 8005c44:	3ff80000 	.word	0x3ff80000
 8005c48:	08007fb8 	.word	0x08007fb8
 8005c4c:	08007ea6 	.word	0x08007ea6
 8005c50:	2301      	movs	r3, #1
 8005c52:	930d      	str	r3, [sp, #52]	@ 0x34
 8005c54:	e7d1      	b.n	8005bfa <_dtoa_r+0x29a>
 8005c56:	2301      	movs	r3, #1
 8005c58:	461a      	mov	r2, r3
 8005c5a:	9308      	str	r3, [sp, #32]
 8005c5c:	9305      	str	r3, [sp, #20]
 8005c5e:	e7d2      	b.n	8005c06 <_dtoa_r+0x2a6>
 8005c60:	3101      	adds	r1, #1
 8005c62:	0052      	lsls	r2, r2, #1
 8005c64:	e7b1      	b.n	8005bca <_dtoa_r+0x26a>
 8005c66:	f8d9 301c 	ldr.w	r3, [r9, #28]
 8005c6a:	9a03      	ldr	r2, [sp, #12]
 8005c6c:	601a      	str	r2, [r3, #0]
 8005c6e:	9b05      	ldr	r3, [sp, #20]
 8005c70:	2b0e      	cmp	r3, #14
 8005c72:	f200 80a1 	bhi.w	8005db8 <_dtoa_r+0x458>
 8005c76:	2c00      	cmp	r4, #0
 8005c78:	f000 809e 	beq.w	8005db8 <_dtoa_r+0x458>
 8005c7c:	f1b8 0f00 	cmp.w	r8, #0
 8005c80:	dd36      	ble.n	8005cf0 <_dtoa_r+0x390>
 8005c82:	4b9f      	ldr	r3, [pc, #636]	@ (8005f00 <_dtoa_r+0x5a0>)
 8005c84:	f008 020f 	and.w	r2, r8, #15
 8005c88:	eb03 03c2 	add.w	r3, r3, r2, lsl #3
 8005c8c:	f418 7f80 	tst.w	r8, #256	@ 0x100
 8005c90:	ea4f 1528 	mov.w	r5, r8, asr #4
 8005c94:	e9d3 ab00 	ldrd	sl, fp, [r3]
 8005c98:	d016      	beq.n	8005cc8 <_dtoa_r+0x368>
 8005c9a:	e9dd 010a 	ldrd	r0, r1, [sp, #40]	@ 0x28
 8005c9e:	4b99      	ldr	r3, [pc, #612]	@ (8005f04 <_dtoa_r+0x5a4>)
 8005ca0:	2403      	movs	r4, #3
 8005ca2:	e9d3 2308 	ldrd	r2, r3, [r3, #32]
 8005ca6:	f7fa fd41 	bl	800072c <__aeabi_ddiv>
 8005caa:	e9cd 0106 	strd	r0, r1, [sp, #24]
 8005cae:	f005 050f 	and.w	r5, r5, #15
 8005cb2:	4e94      	ldr	r6, [pc, #592]	@ (8005f04 <_dtoa_r+0x5a4>)
 8005cb4:	b975      	cbnz	r5, 8005cd4 <_dtoa_r+0x374>
 8005cb6:	e9dd 0106 	ldrd	r0, r1, [sp, #24]
 8005cba:	4652      	mov	r2, sl
 8005cbc:	465b      	mov	r3, fp
 8005cbe:	f7fa fd35 	bl	800072c <__aeabi_ddiv>
 8005cc2:	4682      	mov	sl, r0
 8005cc4:	468b      	mov	fp, r1
 8005cc6:	e02d      	b.n	8005d24 <_dtoa_r+0x3c4>
 8005cc8:	e9dd 340a 	ldrd	r3, r4, [sp, #40]	@ 0x28
 8005ccc:	e9cd 3406 	strd	r3, r4, [sp, #24]
 8005cd0:	2402      	movs	r4, #2
 8005cd2:	e7ee      	b.n	8005cb2 <_dtoa_r+0x352>
 8005cd4:	07e9      	lsls	r1, r5, #31
 8005cd6:	d508      	bpl.n	8005cea <_dtoa_r+0x38a>
 8005cd8:	e9d6 2300 	ldrd	r2, r3, [r6]
 8005cdc:	4650      	mov	r0, sl
 8005cde:	4659      	mov	r1, fp
 8005ce0:	f7fa fbfa 	bl	80004d8 <__aeabi_dmul>
 8005ce4:	4682      	mov	sl, r0
 8005ce6:	468b      	mov	fp, r1
 8005ce8:	3401      	adds	r4, #1
 8005cea:	106d      	asrs	r5, r5, #1
 8005cec:	3608      	adds	r6, #8
 8005cee:	e7e1      	b.n	8005cb4 <_dtoa_r+0x354>
 8005cf0:	f000 80ad 	beq.w	8005e4e <_dtoa_r+0x4ee>
 8005cf4:	e9dd 010a 	ldrd	r0, r1, [sp, #40]	@ 0x28
 8005cf8:	f1c8 0500 	rsb	r5, r8, #0
 8005cfc:	4b80      	ldr	r3, [pc, #512]	@ (8005f00 <_dtoa_r+0x5a0>)
 8005cfe:	f005 020f 	and.w	r2, r5, #15
 8005d02:	eb03 03c2 	add.w	r3, r3, r2, lsl #3
 8005d06:	e9d3 2300 	ldrd	r2, r3, [r3]
 8005d0a:	f7fa fbe5 	bl	80004d8 <__aeabi_dmul>
 8005d0e:	2402      	movs	r4, #2
 8005d10:	4682      	mov	sl, r0
 8005d12:	468b      	mov	fp, r1
 8005d14:	2300      	movs	r3, #0
 8005d16:	4e7b      	ldr	r6, [pc, #492]	@ (8005f04 <_dtoa_r+0x5a4>)
 8005d18:	112d      	asrs	r5, r5, #4
 8005d1a:	2d00      	cmp	r5, #0
 8005d1c:	f040 808c 	bne.w	8005e38 <_dtoa_r+0x4d8>
 8005d20:	2b00      	cmp	r3, #0
 8005d22:	d1ce      	bne.n	8005cc2 <_dtoa_r+0x362>
 8005d24:	9b11      	ldr	r3, [sp, #68]	@ 0x44
 8005d26:	2b00      	cmp	r3, #0
 8005d28:	f000 8095 	beq.w	8005e56 <_dtoa_r+0x4f6>
 8005d2c:	2200      	movs	r2, #0
 8005d2e:	4650      	mov	r0, sl
 8005d30:	4659      	mov	r1, fp
 8005d32:	4b75      	ldr	r3, [pc, #468]	@ (8005f08 <_dtoa_r+0x5a8>)
 8005d34:	f7fa fe42 	bl	80009bc <__aeabi_dcmplt>
 8005d38:	2800      	cmp	r0, #0
 8005d3a:	f000 808c 	beq.w	8005e56 <_dtoa_r+0x4f6>
 8005d3e:	9b05      	ldr	r3, [sp, #20]
 8005d40:	2b00      	cmp	r3, #0
 8005d42:	f000 8088 	beq.w	8005e56 <_dtoa_r+0x4f6>
 8005d46:	9b08      	ldr	r3, [sp, #32]
 8005d48:	2b00      	cmp	r3, #0
 8005d4a:	dd35      	ble.n	8005db8 <_dtoa_r+0x458>
 8005d4c:	f108 33ff 	add.w	r3, r8, #4294967295	@ 0xffffffff
 8005d50:	4650      	mov	r0, sl
 8005d52:	4659      	mov	r1, fp
 8005d54:	9306      	str	r3, [sp, #24]
 8005d56:	2200      	movs	r2, #0
 8005d58:	4b6c      	ldr	r3, [pc, #432]	@ (8005f0c <_dtoa_r+0x5ac>)
 8005d5a:	f7fa fbbd 	bl	80004d8 <__aeabi_dmul>
 8005d5e:	4682      	mov	sl, r0
 8005d60:	468b      	mov	fp, r1
 8005d62:	9e08      	ldr	r6, [sp, #32]
 8005d64:	3401      	adds	r4, #1
 8005d66:	4620      	mov	r0, r4
 8005d68:	f7fa fb4c 	bl	8000404 <__aeabi_i2d>
 8005d6c:	4652      	mov	r2, sl
 8005d6e:	465b      	mov	r3, fp
 8005d70:	f7fa fbb2 	bl	80004d8 <__aeabi_dmul>
 8005d74:	2200      	movs	r2, #0
 8005d76:	4b66      	ldr	r3, [pc, #408]	@ (8005f10 <_dtoa_r+0x5b0>)
 8005d78:	f7fa f9f8 	bl	800016c <__adddf3>
 8005d7c:	4604      	mov	r4, r0
 8005d7e:	f1a1 7550 	sub.w	r5, r1, #54525952	@ 0x3400000
 8005d82:	e9cd 4512 	strd	r4, r5, [sp, #72]	@ 0x48
 8005d86:	2e00      	cmp	r6, #0
 8005d88:	d169      	bne.n	8005e5e <_dtoa_r+0x4fe>
 8005d8a:	2200      	movs	r2, #0
 8005d8c:	4650      	mov	r0, sl
 8005d8e:	4659      	mov	r1, fp
 8005d90:	4b60      	ldr	r3, [pc, #384]	@ (8005f14 <_dtoa_r+0x5b4>)
 8005d92:	f7fa f9e9 	bl	8000168 <__aeabi_dsub>
 8005d96:	4622      	mov	r2, r4
 8005d98:	462b      	mov	r3, r5
 8005d9a:	4682      	mov	sl, r0
 8005d9c:	468b      	mov	fp, r1
 8005d9e:	f7fa fe2b 	bl	80009f8 <__aeabi_dcmpgt>
 8005da2:	2800      	cmp	r0, #0
 8005da4:	f040 8299 	bne.w	80062da <_dtoa_r+0x97a>
 8005da8:	4622      	mov	r2, r4
 8005daa:	4650      	mov	r0, sl
 8005dac:	4659      	mov	r1, fp
 8005dae:	f105 4300 	add.w	r3, r5, #2147483648	@ 0x80000000
 8005db2:	f7fa fe03 	bl	80009bc <__aeabi_dcmplt>
 8005db6:	bb20      	cbnz	r0, 8005e02 <_dtoa_r+0x4a2>
 8005db8:	9b17      	ldr	r3, [sp, #92]	@ 0x5c
 8005dba:	2b00      	cmp	r3, #0
 8005dbc:	f2c0 8165 	blt.w	800608a <_dtoa_r+0x72a>
 8005dc0:	f1b8 0f0e 	cmp.w	r8, #14
 8005dc4:	f300 8161 	bgt.w	800608a <_dtoa_r+0x72a>
 8005dc8:	4b4d      	ldr	r3, [pc, #308]	@ (8005f00 <_dtoa_r+0x5a0>)
 8005dca:	eb03 03c8 	add.w	r3, r3, r8, lsl #3
 8005dce:	e9d3 ab00 	ldrd	sl, fp, [r3]
 8005dd2:	9b23      	ldr	r3, [sp, #140]	@ 0x8c
 8005dd4:	2b00      	cmp	r3, #0
 8005dd6:	f280 80ef 	bge.w	8005fb8 <_dtoa_r+0x658>
 8005dda:	9b05      	ldr	r3, [sp, #20]
 8005ddc:	2b00      	cmp	r3, #0
 8005dde:	f300 80eb 	bgt.w	8005fb8 <_dtoa_r+0x658>
 8005de2:	d10e      	bne.n	8005e02 <_dtoa_r+0x4a2>
 8005de4:	2200      	movs	r2, #0
 8005de6:	4b4b      	ldr	r3, [pc, #300]	@ (8005f14 <_dtoa_r+0x5b4>)
 8005de8:	4650      	mov	r0, sl
 8005dea:	4659      	mov	r1, fp
 8005dec:	f7fa fb74 	bl	80004d8 <__aeabi_dmul>
 8005df0:	4602      	mov	r2, r0
 8005df2:	460b      	mov	r3, r1
 8005df4:	e9dd 010a 	ldrd	r0, r1, [sp, #40]	@ 0x28
 8005df8:	f7fa fdea 	bl	80009d0 <__aeabi_dcmple>
 8005dfc:	2800      	cmp	r0, #0
 8005dfe:	f000 826f 	beq.w	80062e0 <_dtoa_r+0x980>
 8005e02:	2500      	movs	r5, #0
 8005e04:	462c      	mov	r4, r5
 8005e06:	9b23      	ldr	r3, [sp, #140]	@ 0x8c
 8005e08:	9e03      	ldr	r6, [sp, #12]
 8005e0a:	43db      	mvns	r3, r3
 8005e0c:	9306      	str	r3, [sp, #24]
 8005e0e:	4627      	mov	r7, r4
 8005e10:	2400      	movs	r4, #0
 8005e12:	4629      	mov	r1, r5
 8005e14:	4648      	mov	r0, r9
 8005e16:	f000 fe5f 	bl	8006ad8 <_Bfree>
 8005e1a:	2f00      	cmp	r7, #0
 8005e1c:	f000 80c2 	beq.w	8005fa4 <_dtoa_r+0x644>
 8005e20:	b12c      	cbz	r4, 8005e2e <_dtoa_r+0x4ce>
 8005e22:	42bc      	cmp	r4, r7
 8005e24:	d003      	beq.n	8005e2e <_dtoa_r+0x4ce>
 8005e26:	4621      	mov	r1, r4
 8005e28:	4648      	mov	r0, r9
 8005e2a:	f000 fe55 	bl	8006ad8 <_Bfree>
 8005e2e:	4639      	mov	r1, r7
 8005e30:	4648      	mov	r0, r9
 8005e32:	f000 fe51 	bl	8006ad8 <_Bfree>
 8005e36:	e0b5      	b.n	8005fa4 <_dtoa_r+0x644>
 8005e38:	07ea      	lsls	r2, r5, #31
 8005e3a:	d505      	bpl.n	8005e48 <_dtoa_r+0x4e8>
 8005e3c:	e9d6 2300 	ldrd	r2, r3, [r6]
 8005e40:	f7fa fb4a 	bl	80004d8 <__aeabi_dmul>
 8005e44:	2301      	movs	r3, #1
 8005e46:	3401      	adds	r4, #1
 8005e48:	106d      	asrs	r5, r5, #1
 8005e4a:	3608      	adds	r6, #8
 8005e4c:	e765      	b.n	8005d1a <_dtoa_r+0x3ba>
 8005e4e:	2402      	movs	r4, #2
 8005e50:	e9dd ab0a 	ldrd	sl, fp, [sp, #40]	@ 0x28
 8005e54:	e766      	b.n	8005d24 <_dtoa_r+0x3c4>
 8005e56:	9e05      	ldr	r6, [sp, #20]
 8005e58:	f8cd 8018 	str.w	r8, [sp, #24]
 8005e5c:	e783      	b.n	8005d66 <_dtoa_r+0x406>
 8005e5e:	4b28      	ldr	r3, [pc, #160]	@ (8005f00 <_dtoa_r+0x5a0>)
 8005e60:	eb03 03c6 	add.w	r3, r3, r6, lsl #3
 8005e64:	e953 0102 	ldrd	r0, r1, [r3, #-8]
 8005e68:	9b0d      	ldr	r3, [sp, #52]	@ 0x34
 8005e6a:	2b00      	cmp	r3, #0
 8005e6c:	d056      	beq.n	8005f1c <_dtoa_r+0x5bc>
 8005e6e:	4602      	mov	r2, r0
 8005e70:	460b      	mov	r3, r1
 8005e72:	2000      	movs	r0, #0
 8005e74:	4928      	ldr	r1, [pc, #160]	@ (8005f18 <_dtoa_r+0x5b8>)
 8005e76:	f7fa fc59 	bl	800072c <__aeabi_ddiv>
 8005e7a:	e9dd 2312 	ldrd	r2, r3, [sp, #72]	@ 0x48
 8005e7e:	f7fa f973 	bl	8000168 <__aeabi_dsub>
 8005e82:	9b03      	ldr	r3, [sp, #12]
 8005e84:	e9cd 0112 	strd	r0, r1, [sp, #72]	@ 0x48
 8005e88:	199d      	adds	r5, r3, r6
 8005e8a:	461e      	mov	r6, r3
 8005e8c:	4659      	mov	r1, fp
 8005e8e:	4650      	mov	r0, sl
 8005e90:	f7fa fdd2 	bl	8000a38 <__aeabi_d2iz>
 8005e94:	4604      	mov	r4, r0
 8005e96:	f7fa fab5 	bl	8000404 <__aeabi_i2d>
 8005e9a:	4602      	mov	r2, r0
 8005e9c:	460b      	mov	r3, r1
 8005e9e:	4650      	mov	r0, sl
 8005ea0:	4659      	mov	r1, fp
 8005ea2:	f7fa f961 	bl	8000168 <__aeabi_dsub>
 8005ea6:	e9dd 2312 	ldrd	r2, r3, [sp, #72]	@ 0x48
 8005eaa:	3430      	adds	r4, #48	@ 0x30
 8005eac:	f806 4b01 	strb.w	r4, [r6], #1
 8005eb0:	4682      	mov	sl, r0
 8005eb2:	468b      	mov	fp, r1
 8005eb4:	f7fa fd82 	bl	80009bc <__aeabi_dcmplt>
 8005eb8:	2800      	cmp	r0, #0
 8005eba:	d173      	bne.n	8005fa4 <_dtoa_r+0x644>
 8005ebc:	4652      	mov	r2, sl
 8005ebe:	465b      	mov	r3, fp
 8005ec0:	2000      	movs	r0, #0
 8005ec2:	4911      	ldr	r1, [pc, #68]	@ (8005f08 <_dtoa_r+0x5a8>)
 8005ec4:	f7fa f950 	bl	8000168 <__aeabi_dsub>
 8005ec8:	e9dd 2312 	ldrd	r2, r3, [sp, #72]	@ 0x48
 8005ecc:	f7fa fd76 	bl	80009bc <__aeabi_dcmplt>
 8005ed0:	2800      	cmp	r0, #0
 8005ed2:	f040 80bb 	bne.w	800604c <_dtoa_r+0x6ec>
 8005ed6:	42ae      	cmp	r6, r5
 8005ed8:	f43f af6e 	beq.w	8005db8 <_dtoa_r+0x458>
 8005edc:	e9dd 0112 	ldrd	r0, r1, [sp, #72]	@ 0x48
 8005ee0:	2200      	movs	r2, #0
 8005ee2:	4b0a      	ldr	r3, [pc, #40]	@ (8005f0c <_dtoa_r+0x5ac>)
 8005ee4:	f7fa faf8 	bl	80004d8 <__aeabi_dmul>
 8005ee8:	2200      	movs	r2, #0
 8005eea:	e9cd 0112 	strd	r0, r1, [sp, #72]	@ 0x48
 8005eee:	4b07      	ldr	r3, [pc, #28]	@ (8005f0c <_dtoa_r+0x5ac>)
 8005ef0:	4650      	mov	r0, sl
 8005ef2:	4659      	mov	r1, fp
 8005ef4:	f7fa faf0 	bl	80004d8 <__aeabi_dmul>
 8005ef8:	4682      	mov	sl, r0
 8005efa:	468b      	mov	fp, r1
 8005efc:	e7c6      	b.n	8005e8c <_dtoa_r+0x52c>
 8005efe:	bf00      	nop
 8005f00:	08007fb8 	.word	0x08007fb8
 8005f04:	08007f90 	.word	0x08007f90
 8005f08:	3ff00000 	.word	0x3ff00000
 8005f0c:	40240000 	.word	0x40240000
 8005f10:	401c0000 	.word	0x401c0000
 8005f14:	40140000 	.word	0x40140000
 8005f18:	3fe00000 	.word	0x3fe00000
 8005f1c:	e9dd 2312 	ldrd	r2, r3, [sp, #72]	@ 0x48
 8005f20:	f7fa fada 	bl	80004d8 <__aeabi_dmul>
 8005f24:	9b03      	ldr	r3, [sp, #12]
 8005f26:	e9cd 0112 	strd	r0, r1, [sp, #72]	@ 0x48
 8005f2a:	4433      	add	r3, r6
 8005f2c:	9d03      	ldr	r5, [sp, #12]
 8005f2e:	9315      	str	r3, [sp, #84]	@ 0x54
 8005f30:	4659      	mov	r1, fp
 8005f32:	4650      	mov	r0, sl
 8005f34:	f7fa fd80 	bl	8000a38 <__aeabi_d2iz>
 8005f38:	4604      	mov	r4, r0
 8005f3a:	f7fa fa63 	bl	8000404 <__aeabi_i2d>
 8005f3e:	460b      	mov	r3, r1
 8005f40:	4602      	mov	r2, r0
 8005f42:	4659      	mov	r1, fp
 8005f44:	4650      	mov	r0, sl
 8005f46:	f7fa f90f 	bl	8000168 <__aeabi_dsub>
 8005f4a:	3430      	adds	r4, #48	@ 0x30
 8005f4c:	9b15      	ldr	r3, [sp, #84]	@ 0x54
 8005f4e:	f805 4b01 	strb.w	r4, [r5], #1
 8005f52:	429d      	cmp	r5, r3
 8005f54:	4682      	mov	sl, r0
 8005f56:	468b      	mov	fp, r1
 8005f58:	d127      	bne.n	8005faa <_dtoa_r+0x64a>
 8005f5a:	e9dd 0112 	ldrd	r0, r1, [sp, #72]	@ 0x48
 8005f5e:	9b03      	ldr	r3, [sp, #12]
 8005f60:	2200      	movs	r2, #0
 8005f62:	441e      	add	r6, r3
 8005f64:	4bb5      	ldr	r3, [pc, #724]	@ (800623c <_dtoa_r+0x8dc>)
 8005f66:	f7fa f901 	bl	800016c <__adddf3>
 8005f6a:	4602      	mov	r2, r0
 8005f6c:	460b      	mov	r3, r1
 8005f6e:	4650      	mov	r0, sl
 8005f70:	4659      	mov	r1, fp
 8005f72:	f7fa fd41 	bl	80009f8 <__aeabi_dcmpgt>
 8005f76:	2800      	cmp	r0, #0
 8005f78:	d168      	bne.n	800604c <_dtoa_r+0x6ec>
 8005f7a:	e9dd 2312 	ldrd	r2, r3, [sp, #72]	@ 0x48
 8005f7e:	2000      	movs	r0, #0
 8005f80:	49ae      	ldr	r1, [pc, #696]	@ (800623c <_dtoa_r+0x8dc>)
 8005f82:	f7fa f8f1 	bl	8000168 <__aeabi_dsub>
 8005f86:	4602      	mov	r2, r0
 8005f88:	460b      	mov	r3, r1
 8005f8a:	4650      	mov	r0, sl
 8005f8c:	4659      	mov	r1, fp
 8005f8e:	f7fa fd15 	bl	80009bc <__aeabi_dcmplt>
 8005f92:	2800      	cmp	r0, #0
 8005f94:	f43f af10 	beq.w	8005db8 <_dtoa_r+0x458>
 8005f98:	4633      	mov	r3, r6
 8005f9a:	f816 2d01 	ldrb.w	r2, [r6, #-1]!
 8005f9e:	2a30      	cmp	r2, #48	@ 0x30
 8005fa0:	d0fa      	beq.n	8005f98 <_dtoa_r+0x638>
 8005fa2:	461e      	mov	r6, r3
 8005fa4:	f8dd 8018 	ldr.w	r8, [sp, #24]
 8005fa8:	e03e      	b.n	8006028 <_dtoa_r+0x6c8>
 8005faa:	2200      	movs	r2, #0
 8005fac:	4ba4      	ldr	r3, [pc, #656]	@ (8006240 <_dtoa_r+0x8e0>)
 8005fae:	f7fa fa93 	bl	80004d8 <__aeabi_dmul>
 8005fb2:	4682      	mov	sl, r0
 8005fb4:	468b      	mov	fp, r1
 8005fb6:	e7bb      	b.n	8005f30 <_dtoa_r+0x5d0>
 8005fb8:	2400      	movs	r4, #0
 8005fba:	9e03      	ldr	r6, [sp, #12]
 8005fbc:	4da0      	ldr	r5, [pc, #640]	@ (8006240 <_dtoa_r+0x8e0>)
 8005fbe:	4652      	mov	r2, sl
 8005fc0:	e9dd 010a 	ldrd	r0, r1, [sp, #40]	@ 0x28
 8005fc4:	465b      	mov	r3, fp
 8005fc6:	f7fa fbb1 	bl	800072c <__aeabi_ddiv>
 8005fca:	f7fa fd35 	bl	8000a38 <__aeabi_d2iz>
 8005fce:	4607      	mov	r7, r0
 8005fd0:	f7fa fa18 	bl	8000404 <__aeabi_i2d>
 8005fd4:	4652      	mov	r2, sl
 8005fd6:	465b      	mov	r3, fp
 8005fd8:	f7fa fa7e 	bl	80004d8 <__aeabi_dmul>
 8005fdc:	4602      	mov	r2, r0
 8005fde:	460b      	mov	r3, r1
 8005fe0:	e9dd 010a 	ldrd	r0, r1, [sp, #40]	@ 0x28
 8005fe4:	f7fa f8c0 	bl	8000168 <__aeabi_dsub>
 8005fe8:	f107 0c30 	add.w	ip, r7, #48	@ 0x30
 8005fec:	f806 cb01 	strb.w	ip, [r6], #1
 8005ff0:	f8dd c00c 	ldr.w	ip, [sp, #12]
 8005ff4:	f8dd e014 	ldr.w	lr, [sp, #20]
 8005ff8:	eba6 0c0c 	sub.w	ip, r6, ip
 8005ffc:	45e6      	cmp	lr, ip
 8005ffe:	4602      	mov	r2, r0
 8006000:	460b      	mov	r3, r1
 8006002:	d133      	bne.n	800606c <_dtoa_r+0x70c>
 8006004:	f7fa f8b2 	bl	800016c <__adddf3>
 8006008:	4652      	mov	r2, sl
 800600a:	465b      	mov	r3, fp
 800600c:	4604      	mov	r4, r0
 800600e:	460d      	mov	r5, r1
 8006010:	f7fa fcf2 	bl	80009f8 <__aeabi_dcmpgt>
 8006014:	b9c0      	cbnz	r0, 8006048 <_dtoa_r+0x6e8>
 8006016:	4652      	mov	r2, sl
 8006018:	465b      	mov	r3, fp
 800601a:	4620      	mov	r0, r4
 800601c:	4629      	mov	r1, r5
 800601e:	f7fa fcc3 	bl	80009a8 <__aeabi_dcmpeq>
 8006022:	b108      	cbz	r0, 8006028 <_dtoa_r+0x6c8>
 8006024:	07fb      	lsls	r3, r7, #31
 8006026:	d40f      	bmi.n	8006048 <_dtoa_r+0x6e8>
 8006028:	4648      	mov	r0, r9
 800602a:	9904      	ldr	r1, [sp, #16]
 800602c:	f000 fd54 	bl	8006ad8 <_Bfree>
 8006030:	2300      	movs	r3, #0
 8006032:	9a24      	ldr	r2, [sp, #144]	@ 0x90
 8006034:	7033      	strb	r3, [r6, #0]
 8006036:	f108 0301 	add.w	r3, r8, #1
 800603a:	6013      	str	r3, [r2, #0]
 800603c:	9b26      	ldr	r3, [sp, #152]	@ 0x98
 800603e:	2b00      	cmp	r3, #0
 8006040:	f43f acdb 	beq.w	80059fa <_dtoa_r+0x9a>
 8006044:	601e      	str	r6, [r3, #0]
 8006046:	e4d8      	b.n	80059fa <_dtoa_r+0x9a>
 8006048:	f8cd 8018 	str.w	r8, [sp, #24]
 800604c:	4633      	mov	r3, r6
 800604e:	461e      	mov	r6, r3
 8006050:	f813 2d01 	ldrb.w	r2, [r3, #-1]!
 8006054:	2a39      	cmp	r2, #57	@ 0x39
 8006056:	d106      	bne.n	8006066 <_dtoa_r+0x706>
 8006058:	9a03      	ldr	r2, [sp, #12]
 800605a:	429a      	cmp	r2, r3
 800605c:	d1f7      	bne.n	800604e <_dtoa_r+0x6ee>
 800605e:	9a06      	ldr	r2, [sp, #24]
 8006060:	3201      	adds	r2, #1
 8006062:	9206      	str	r2, [sp, #24]
 8006064:	2230      	movs	r2, #48	@ 0x30
 8006066:	3201      	adds	r2, #1
 8006068:	701a      	strb	r2, [r3, #0]
 800606a:	e79b      	b.n	8005fa4 <_dtoa_r+0x644>
 800606c:	4622      	mov	r2, r4
 800606e:	462b      	mov	r3, r5
 8006070:	f7fa fa32 	bl	80004d8 <__aeabi_dmul>
 8006074:	4602      	mov	r2, r0
 8006076:	460b      	mov	r3, r1
 8006078:	e9cd 230a 	strd	r2, r3, [sp, #40]	@ 0x28
 800607c:	2200      	movs	r2, #0
 800607e:	2300      	movs	r3, #0
 8006080:	f7fa fc92 	bl	80009a8 <__aeabi_dcmpeq>
 8006084:	2800      	cmp	r0, #0
 8006086:	d09a      	beq.n	8005fbe <_dtoa_r+0x65e>
 8006088:	e7ce      	b.n	8006028 <_dtoa_r+0x6c8>
 800608a:	9a0d      	ldr	r2, [sp, #52]	@ 0x34
 800608c:	2a00      	cmp	r2, #0
 800608e:	f000 80e3 	beq.w	8006258 <_dtoa_r+0x8f8>
 8006092:	9a22      	ldr	r2, [sp, #136]	@ 0x88
 8006094:	2a01      	cmp	r2, #1
 8006096:	f300 80c2 	bgt.w	800621e <_dtoa_r+0x8be>
 800609a:	9a14      	ldr	r2, [sp, #80]	@ 0x50
 800609c:	2a00      	cmp	r2, #0
 800609e:	f000 80ba 	beq.w	8006216 <_dtoa_r+0x8b6>
 80060a2:	f203 4333 	addw	r3, r3, #1075	@ 0x433
 80060a6:	9d0c      	ldr	r5, [sp, #48]	@ 0x30
 80060a8:	463e      	mov	r6, r7
 80060aa:	9a09      	ldr	r2, [sp, #36]	@ 0x24
 80060ac:	2101      	movs	r1, #1
 80060ae:	441a      	add	r2, r3
 80060b0:	4648      	mov	r0, r9
 80060b2:	441f      	add	r7, r3
 80060b4:	9209      	str	r2, [sp, #36]	@ 0x24
 80060b6:	f000 fdc3 	bl	8006c40 <__i2b>
 80060ba:	4604      	mov	r4, r0
 80060bc:	b156      	cbz	r6, 80060d4 <_dtoa_r+0x774>
 80060be:	9b09      	ldr	r3, [sp, #36]	@ 0x24
 80060c0:	2b00      	cmp	r3, #0
 80060c2:	dd07      	ble.n	80060d4 <_dtoa_r+0x774>
 80060c4:	42b3      	cmp	r3, r6
 80060c6:	bfa8      	it	ge
 80060c8:	4633      	movge	r3, r6
 80060ca:	9a09      	ldr	r2, [sp, #36]	@ 0x24
 80060cc:	1aff      	subs	r7, r7, r3
 80060ce:	1af6      	subs	r6, r6, r3
 80060d0:	1ad3      	subs	r3, r2, r3
 80060d2:	9309      	str	r3, [sp, #36]	@ 0x24
 80060d4:	9b0c      	ldr	r3, [sp, #48]	@ 0x30
 80060d6:	b30b      	cbz	r3, 800611c <_dtoa_r+0x7bc>
 80060d8:	9b0d      	ldr	r3, [sp, #52]	@ 0x34
 80060da:	2b00      	cmp	r3, #0
 80060dc:	f000 80c3 	beq.w	8006266 <_dtoa_r+0x906>
 80060e0:	2d00      	cmp	r5, #0
 80060e2:	f000 80bd 	beq.w	8006260 <_dtoa_r+0x900>
 80060e6:	4621      	mov	r1, r4
 80060e8:	462a      	mov	r2, r5
 80060ea:	4648      	mov	r0, r9
 80060ec:	f000 fe66 	bl	8006dbc <__pow5mult>
 80060f0:	9a04      	ldr	r2, [sp, #16]
 80060f2:	4601      	mov	r1, r0
 80060f4:	4604      	mov	r4, r0
 80060f6:	4648      	mov	r0, r9
 80060f8:	f000 fdb8 	bl	8006c6c <__multiply>
 80060fc:	9904      	ldr	r1, [sp, #16]
 80060fe:	4682      	mov	sl, r0
 8006100:	4648      	mov	r0, r9
 8006102:	f000 fce9 	bl	8006ad8 <_Bfree>
 8006106:	9b0c      	ldr	r3, [sp, #48]	@ 0x30
 8006108:	1b5b      	subs	r3, r3, r5
 800610a:	930c      	str	r3, [sp, #48]	@ 0x30
 800610c:	f000 80ae 	beq.w	800626c <_dtoa_r+0x90c>
 8006110:	4651      	mov	r1, sl
 8006112:	9a0c      	ldr	r2, [sp, #48]	@ 0x30
 8006114:	4648      	mov	r0, r9
 8006116:	f000 fe51 	bl	8006dbc <__pow5mult>
 800611a:	9004      	str	r0, [sp, #16]
 800611c:	2101      	movs	r1, #1
 800611e:	4648      	mov	r0, r9
 8006120:	f000 fd8e 	bl	8006c40 <__i2b>
 8006124:	9b10      	ldr	r3, [sp, #64]	@ 0x40
 8006126:	4605      	mov	r5, r0
 8006128:	2b00      	cmp	r3, #0
 800612a:	f000 81d8 	beq.w	80064de <_dtoa_r+0xb7e>
 800612e:	461a      	mov	r2, r3
 8006130:	4601      	mov	r1, r0
 8006132:	4648      	mov	r0, r9
 8006134:	f000 fe42 	bl	8006dbc <__pow5mult>
 8006138:	9b22      	ldr	r3, [sp, #136]	@ 0x88
 800613a:	4605      	mov	r5, r0
 800613c:	2b01      	cmp	r3, #1
 800613e:	f300 809d 	bgt.w	800627c <_dtoa_r+0x91c>
 8006142:	9b0e      	ldr	r3, [sp, #56]	@ 0x38
 8006144:	2b00      	cmp	r3, #0
 8006146:	f040 8094 	bne.w	8006272 <_dtoa_r+0x912>
 800614a:	9b0f      	ldr	r3, [sp, #60]	@ 0x3c
 800614c:	f3c3 0313 	ubfx	r3, r3, #0, #20
 8006150:	2b00      	cmp	r3, #0
 8006152:	f040 808e 	bne.w	8006272 <_dtoa_r+0x912>
 8006156:	9b0f      	ldr	r3, [sp, #60]	@ 0x3c
 8006158:	f023 4300 	bic.w	r3, r3, #2147483648	@ 0x80000000
 800615c:	0d1b      	lsrs	r3, r3, #20
 800615e:	051b      	lsls	r3, r3, #20
 8006160:	2b00      	cmp	r3, #0
 8006162:	f000 8089 	beq.w	8006278 <_dtoa_r+0x918>
 8006166:	f04f 0a01 	mov.w	sl, #1
 800616a:	9b09      	ldr	r3, [sp, #36]	@ 0x24
 800616c:	3701      	adds	r7, #1
 800616e:	3301      	adds	r3, #1
 8006170:	9309      	str	r3, [sp, #36]	@ 0x24
 8006172:	9b10      	ldr	r3, [sp, #64]	@ 0x40
 8006174:	2b00      	cmp	r3, #0
 8006176:	f000 81b8 	beq.w	80064ea <_dtoa_r+0xb8a>
 800617a:	692b      	ldr	r3, [r5, #16]
 800617c:	eb05 0383 	add.w	r3, r5, r3, lsl #2
 8006180:	6918      	ldr	r0, [r3, #16]
 8006182:	f000 fd11 	bl	8006ba8 <__hi0bits>
 8006186:	f1c0 0020 	rsb	r0, r0, #32
 800618a:	9b09      	ldr	r3, [sp, #36]	@ 0x24
 800618c:	4418      	add	r0, r3
 800618e:	f010 001f 	ands.w	r0, r0, #31
 8006192:	d07e      	beq.n	8006292 <_dtoa_r+0x932>
 8006194:	f1c0 0320 	rsb	r3, r0, #32
 8006198:	2b04      	cmp	r3, #4
 800619a:	dd72      	ble.n	8006282 <_dtoa_r+0x922>
 800619c:	9b09      	ldr	r3, [sp, #36]	@ 0x24
 800619e:	f1c0 001c 	rsb	r0, r0, #28
 80061a2:	4403      	add	r3, r0
 80061a4:	4407      	add	r7, r0
 80061a6:	4406      	add	r6, r0
 80061a8:	9309      	str	r3, [sp, #36]	@ 0x24
 80061aa:	2f00      	cmp	r7, #0
 80061ac:	dd05      	ble.n	80061ba <_dtoa_r+0x85a>
 80061ae:	463a      	mov	r2, r7
 80061b0:	4648      	mov	r0, r9
 80061b2:	9904      	ldr	r1, [sp, #16]
 80061b4:	f000 fe5e 	bl	8006e74 <__lshift>
 80061b8:	9004      	str	r0, [sp, #16]
 80061ba:	9b09      	ldr	r3, [sp, #36]	@ 0x24
 80061bc:	2b00      	cmp	r3, #0
 80061be:	dd05      	ble.n	80061cc <_dtoa_r+0x86c>
 80061c0:	4629      	mov	r1, r5
 80061c2:	461a      	mov	r2, r3
 80061c4:	4648      	mov	r0, r9
 80061c6:	f000 fe55 	bl	8006e74 <__lshift>
 80061ca:	4605      	mov	r5, r0
 80061cc:	9b11      	ldr	r3, [sp, #68]	@ 0x44
 80061ce:	2b00      	cmp	r3, #0
 80061d0:	d061      	beq.n	8006296 <_dtoa_r+0x936>
 80061d2:	4629      	mov	r1, r5
 80061d4:	9804      	ldr	r0, [sp, #16]
 80061d6:	f000 feb9 	bl	8006f4c <__mcmp>
 80061da:	2800      	cmp	r0, #0
 80061dc:	da5b      	bge.n	8006296 <_dtoa_r+0x936>
 80061de:	f108 33ff 	add.w	r3, r8, #4294967295	@ 0xffffffff
 80061e2:	9306      	str	r3, [sp, #24]
 80061e4:	220a      	movs	r2, #10
 80061e6:	2300      	movs	r3, #0
 80061e8:	4648      	mov	r0, r9
 80061ea:	9904      	ldr	r1, [sp, #16]
 80061ec:	f000 fc96 	bl	8006b1c <__multadd>
 80061f0:	9b0d      	ldr	r3, [sp, #52]	@ 0x34
 80061f2:	9004      	str	r0, [sp, #16]
 80061f4:	2b00      	cmp	r3, #0
 80061f6:	f000 817a 	beq.w	80064ee <_dtoa_r+0xb8e>
 80061fa:	2300      	movs	r3, #0
 80061fc:	4621      	mov	r1, r4
 80061fe:	220a      	movs	r2, #10
 8006200:	4648      	mov	r0, r9
 8006202:	f000 fc8b 	bl	8006b1c <__multadd>
 8006206:	9b08      	ldr	r3, [sp, #32]
 8006208:	4604      	mov	r4, r0
 800620a:	2b00      	cmp	r3, #0
 800620c:	dc72      	bgt.n	80062f4 <_dtoa_r+0x994>
 800620e:	9b22      	ldr	r3, [sp, #136]	@ 0x88
 8006210:	2b02      	cmp	r3, #2
 8006212:	dc49      	bgt.n	80062a8 <_dtoa_r+0x948>
 8006214:	e06e      	b.n	80062f4 <_dtoa_r+0x994>
 8006216:	9b16      	ldr	r3, [sp, #88]	@ 0x58
 8006218:	f1c3 0336 	rsb	r3, r3, #54	@ 0x36
 800621c:	e743      	b.n	80060a6 <_dtoa_r+0x746>
 800621e:	9b05      	ldr	r3, [sp, #20]
 8006220:	1e5d      	subs	r5, r3, #1
 8006222:	9b0c      	ldr	r3, [sp, #48]	@ 0x30
 8006224:	42ab      	cmp	r3, r5
 8006226:	db0d      	blt.n	8006244 <_dtoa_r+0x8e4>
 8006228:	1b5d      	subs	r5, r3, r5
 800622a:	9b05      	ldr	r3, [sp, #20]
 800622c:	2b00      	cmp	r3, #0
 800622e:	f6bf af3b 	bge.w	80060a8 <_dtoa_r+0x748>
 8006232:	9b05      	ldr	r3, [sp, #20]
 8006234:	1afe      	subs	r6, r7, r3
 8006236:	2300      	movs	r3, #0
 8006238:	e737      	b.n	80060aa <_dtoa_r+0x74a>
 800623a:	bf00      	nop
 800623c:	3fe00000 	.word	0x3fe00000
 8006240:	40240000 	.word	0x40240000
 8006244:	9b0c      	ldr	r3, [sp, #48]	@ 0x30
 8006246:	9a10      	ldr	r2, [sp, #64]	@ 0x40
 8006248:	1aeb      	subs	r3, r5, r3
 800624a:	441a      	add	r2, r3
 800624c:	950c      	str	r5, [sp, #48]	@ 0x30
 800624e:	463e      	mov	r6, r7
 8006250:	2500      	movs	r5, #0
 8006252:	9b05      	ldr	r3, [sp, #20]
 8006254:	9210      	str	r2, [sp, #64]	@ 0x40
 8006256:	e728      	b.n	80060aa <_dtoa_r+0x74a>
 8006258:	463e      	mov	r6, r7
 800625a:	9d0c      	ldr	r5, [sp, #48]	@ 0x30
 800625c:	9c0d      	ldr	r4, [sp, #52]	@ 0x34
 800625e:	e72d      	b.n	80060bc <_dtoa_r+0x75c>
 8006260:	f8dd a010 	ldr.w	sl, [sp, #16]
 8006264:	e754      	b.n	8006110 <_dtoa_r+0x7b0>
 8006266:	9a0c      	ldr	r2, [sp, #48]	@ 0x30
 8006268:	9904      	ldr	r1, [sp, #16]
 800626a:	e753      	b.n	8006114 <_dtoa_r+0x7b4>
 800626c:	f8cd a010 	str.w	sl, [sp, #16]
 8006270:	e754      	b.n	800611c <_dtoa_r+0x7bc>
 8006272:	f04f 0a00 	mov.w	sl, #0
 8006276:	e77c      	b.n	8006172 <_dtoa_r+0x812>
 8006278:	469a      	mov	sl, r3
 800627a:	e77a      	b.n	8006172 <_dtoa_r+0x812>
 800627c:	f04f 0a00 	mov.w	sl, #0
 8006280:	e77b      	b.n	800617a <_dtoa_r+0x81a>
 8006282:	d092      	beq.n	80061aa <_dtoa_r+0x84a>
 8006284:	9a09      	ldr	r2, [sp, #36]	@ 0x24
 8006286:	331c      	adds	r3, #28
 8006288:	441a      	add	r2, r3
 800628a:	441f      	add	r7, r3
 800628c:	441e      	add	r6, r3
 800628e:	9209      	str	r2, [sp, #36]	@ 0x24
 8006290:	e78b      	b.n	80061aa <_dtoa_r+0x84a>
 8006292:	4603      	mov	r3, r0
 8006294:	e7f6      	b.n	8006284 <_dtoa_r+0x924>
 8006296:	9b05      	ldr	r3, [sp, #20]
 8006298:	f8cd 8018 	str.w	r8, [sp, #24]
 800629c:	2b00      	cmp	r3, #0
 800629e:	dc23      	bgt.n	80062e8 <_dtoa_r+0x988>
 80062a0:	9308      	str	r3, [sp, #32]
 80062a2:	9b22      	ldr	r3, [sp, #136]	@ 0x88
 80062a4:	2b02      	cmp	r3, #2
 80062a6:	dd21      	ble.n	80062ec <_dtoa_r+0x98c>
 80062a8:	9b08      	ldr	r3, [sp, #32]
 80062aa:	2b00      	cmp	r3, #0
 80062ac:	f47f adab 	bne.w	8005e06 <_dtoa_r+0x4a6>
 80062b0:	4629      	mov	r1, r5
 80062b2:	2205      	movs	r2, #5
 80062b4:	4648      	mov	r0, r9
 80062b6:	f000 fc31 	bl	8006b1c <__multadd>
 80062ba:	4601      	mov	r1, r0
 80062bc:	4605      	mov	r5, r0
 80062be:	9804      	ldr	r0, [sp, #16]
 80062c0:	f000 fe44 	bl	8006f4c <__mcmp>
 80062c4:	2800      	cmp	r0, #0
 80062c6:	f77f ad9e 	ble.w	8005e06 <_dtoa_r+0x4a6>
 80062ca:	2331      	movs	r3, #49	@ 0x31
 80062cc:	9e03      	ldr	r6, [sp, #12]
 80062ce:	f806 3b01 	strb.w	r3, [r6], #1
 80062d2:	9b06      	ldr	r3, [sp, #24]
 80062d4:	3301      	adds	r3, #1
 80062d6:	9306      	str	r3, [sp, #24]
 80062d8:	e599      	b.n	8005e0e <_dtoa_r+0x4ae>
 80062da:	4635      	mov	r5, r6
 80062dc:	462c      	mov	r4, r5
 80062de:	e7f4      	b.n	80062ca <_dtoa_r+0x96a>
 80062e0:	9d05      	ldr	r5, [sp, #20]
 80062e2:	f8cd 8018 	str.w	r8, [sp, #24]
 80062e6:	e7f9      	b.n	80062dc <_dtoa_r+0x97c>
 80062e8:	9b05      	ldr	r3, [sp, #20]
 80062ea:	9308      	str	r3, [sp, #32]
 80062ec:	9b0d      	ldr	r3, [sp, #52]	@ 0x34
 80062ee:	2b00      	cmp	r3, #0
 80062f0:	f000 8101 	beq.w	80064f6 <_dtoa_r+0xb96>
 80062f4:	2e00      	cmp	r6, #0
 80062f6:	dd05      	ble.n	8006304 <_dtoa_r+0x9a4>
 80062f8:	4621      	mov	r1, r4
 80062fa:	4632      	mov	r2, r6
 80062fc:	4648      	mov	r0, r9
 80062fe:	f000 fdb9 	bl	8006e74 <__lshift>
 8006302:	4604      	mov	r4, r0
 8006304:	f1ba 0f00 	cmp.w	sl, #0
 8006308:	d05a      	beq.n	80063c0 <_dtoa_r+0xa60>
 800630a:	4648      	mov	r0, r9
 800630c:	6861      	ldr	r1, [r4, #4]
 800630e:	f000 fba5 	bl	8006a5c <_Balloc>
 8006312:	4606      	mov	r6, r0
 8006314:	b928      	cbnz	r0, 8006322 <_dtoa_r+0x9c2>
 8006316:	4602      	mov	r2, r0
 8006318:	f240 21ef 	movw	r1, #751	@ 0x2ef
 800631c:	4b81      	ldr	r3, [pc, #516]	@ (8006524 <_dtoa_r+0xbc4>)
 800631e:	f7ff bb33 	b.w	8005988 <_dtoa_r+0x28>
 8006322:	6922      	ldr	r2, [r4, #16]
 8006324:	f104 010c 	add.w	r1, r4, #12
 8006328:	3202      	adds	r2, #2
 800632a:	0092      	lsls	r2, r2, #2
 800632c:	300c      	adds	r0, #12
 800632e:	f001 f8c5 	bl	80074bc <memcpy>
 8006332:	2201      	movs	r2, #1
 8006334:	4631      	mov	r1, r6
 8006336:	4648      	mov	r0, r9
 8006338:	f000 fd9c 	bl	8006e74 <__lshift>
 800633c:	4607      	mov	r7, r0
 800633e:	9b03      	ldr	r3, [sp, #12]
 8006340:	9a03      	ldr	r2, [sp, #12]
 8006342:	f103 0b01 	add.w	fp, r3, #1
 8006346:	9b08      	ldr	r3, [sp, #32]
 8006348:	4413      	add	r3, r2
 800634a:	930a      	str	r3, [sp, #40]	@ 0x28
 800634c:	9b0e      	ldr	r3, [sp, #56]	@ 0x38
 800634e:	f003 0301 	and.w	r3, r3, #1
 8006352:	9309      	str	r3, [sp, #36]	@ 0x24
 8006354:	f10b 33ff 	add.w	r3, fp, #4294967295	@ 0xffffffff
 8006358:	4629      	mov	r1, r5
 800635a:	9804      	ldr	r0, [sp, #16]
 800635c:	9305      	str	r3, [sp, #20]
 800635e:	f7ff fa77 	bl	8005850 <quorem>
 8006362:	4621      	mov	r1, r4
 8006364:	9008      	str	r0, [sp, #32]
 8006366:	f100 0a30 	add.w	sl, r0, #48	@ 0x30
 800636a:	9804      	ldr	r0, [sp, #16]
 800636c:	f000 fdee 	bl	8006f4c <__mcmp>
 8006370:	463a      	mov	r2, r7
 8006372:	4680      	mov	r8, r0
 8006374:	4629      	mov	r1, r5
 8006376:	4648      	mov	r0, r9
 8006378:	f000 fe04 	bl	8006f84 <__mdiff>
 800637c:	68c2      	ldr	r2, [r0, #12]
 800637e:	4606      	mov	r6, r0
 8006380:	bb02      	cbnz	r2, 80063c4 <_dtoa_r+0xa64>
 8006382:	4601      	mov	r1, r0
 8006384:	9804      	ldr	r0, [sp, #16]
 8006386:	f000 fde1 	bl	8006f4c <__mcmp>
 800638a:	4602      	mov	r2, r0
 800638c:	4631      	mov	r1, r6
 800638e:	4648      	mov	r0, r9
 8006390:	920c      	str	r2, [sp, #48]	@ 0x30
 8006392:	f000 fba1 	bl	8006ad8 <_Bfree>
 8006396:	9b22      	ldr	r3, [sp, #136]	@ 0x88
 8006398:	9a0c      	ldr	r2, [sp, #48]	@ 0x30
 800639a:	465e      	mov	r6, fp
 800639c:	ea42 0103 	orr.w	r1, r2, r3
 80063a0:	9b09      	ldr	r3, [sp, #36]	@ 0x24
 80063a2:	4319      	orrs	r1, r3
 80063a4:	d110      	bne.n	80063c8 <_dtoa_r+0xa68>
 80063a6:	f1ba 0f39 	cmp.w	sl, #57	@ 0x39
 80063aa:	d02b      	beq.n	8006404 <_dtoa_r+0xaa4>
 80063ac:	f1b8 0f00 	cmp.w	r8, #0
 80063b0:	dd02      	ble.n	80063b8 <_dtoa_r+0xa58>
 80063b2:	9b08      	ldr	r3, [sp, #32]
 80063b4:	f103 0a31 	add.w	sl, r3, #49	@ 0x31
 80063b8:	9b05      	ldr	r3, [sp, #20]
 80063ba:	f883 a000 	strb.w	sl, [r3]
 80063be:	e528      	b.n	8005e12 <_dtoa_r+0x4b2>
 80063c0:	4627      	mov	r7, r4
 80063c2:	e7bc      	b.n	800633e <_dtoa_r+0x9de>
 80063c4:	2201      	movs	r2, #1
 80063c6:	e7e1      	b.n	800638c <_dtoa_r+0xa2c>
 80063c8:	f1b8 0f00 	cmp.w	r8, #0
 80063cc:	db06      	blt.n	80063dc <_dtoa_r+0xa7c>
 80063ce:	9b22      	ldr	r3, [sp, #136]	@ 0x88
 80063d0:	ea48 0803 	orr.w	r8, r8, r3
 80063d4:	9b09      	ldr	r3, [sp, #36]	@ 0x24
 80063d6:	ea58 0803 	orrs.w	r8, r8, r3
 80063da:	d120      	bne.n	800641e <_dtoa_r+0xabe>
 80063dc:	2a00      	cmp	r2, #0
 80063de:	ddeb      	ble.n	80063b8 <_dtoa_r+0xa58>
 80063e0:	2201      	movs	r2, #1
 80063e2:	9904      	ldr	r1, [sp, #16]
 80063e4:	4648      	mov	r0, r9
 80063e6:	f000 fd45 	bl	8006e74 <__lshift>
 80063ea:	4629      	mov	r1, r5
 80063ec:	9004      	str	r0, [sp, #16]
 80063ee:	f000 fdad 	bl	8006f4c <__mcmp>
 80063f2:	2800      	cmp	r0, #0
 80063f4:	dc03      	bgt.n	80063fe <_dtoa_r+0xa9e>
 80063f6:	d1df      	bne.n	80063b8 <_dtoa_r+0xa58>
 80063f8:	f01a 0f01 	tst.w	sl, #1
 80063fc:	d0dc      	beq.n	80063b8 <_dtoa_r+0xa58>
 80063fe:	f1ba 0f39 	cmp.w	sl, #57	@ 0x39
 8006402:	d1d6      	bne.n	80063b2 <_dtoa_r+0xa52>
 8006404:	2339      	movs	r3, #57	@ 0x39
 8006406:	9a05      	ldr	r2, [sp, #20]
 8006408:	7013      	strb	r3, [r2, #0]
 800640a:	4633      	mov	r3, r6
 800640c:	461e      	mov	r6, r3
 800640e:	f816 2c01 	ldrb.w	r2, [r6, #-1]
 8006412:	3b01      	subs	r3, #1
 8006414:	2a39      	cmp	r2, #57	@ 0x39
 8006416:	d053      	beq.n	80064c0 <_dtoa_r+0xb60>
 8006418:	3201      	adds	r2, #1
 800641a:	701a      	strb	r2, [r3, #0]
 800641c:	e4f9      	b.n	8005e12 <_dtoa_r+0x4b2>
 800641e:	2a00      	cmp	r2, #0
 8006420:	dd07      	ble.n	8006432 <_dtoa_r+0xad2>
 8006422:	f1ba 0f39 	cmp.w	sl, #57	@ 0x39
 8006426:	d0ed      	beq.n	8006404 <_dtoa_r+0xaa4>
 8006428:	9a05      	ldr	r2, [sp, #20]
 800642a:	f10a 0301 	add.w	r3, sl, #1
 800642e:	7013      	strb	r3, [r2, #0]
 8006430:	e4ef      	b.n	8005e12 <_dtoa_r+0x4b2>
 8006432:	9b0a      	ldr	r3, [sp, #40]	@ 0x28
 8006434:	f80b ac01 	strb.w	sl, [fp, #-1]
 8006438:	455b      	cmp	r3, fp
 800643a:	d02b      	beq.n	8006494 <_dtoa_r+0xb34>
 800643c:	2300      	movs	r3, #0
 800643e:	220a      	movs	r2, #10
 8006440:	9904      	ldr	r1, [sp, #16]
 8006442:	4648      	mov	r0, r9
 8006444:	f000 fb6a 	bl	8006b1c <__multadd>
 8006448:	42bc      	cmp	r4, r7
 800644a:	9004      	str	r0, [sp, #16]
 800644c:	f04f 0300 	mov.w	r3, #0
 8006450:	f04f 020a 	mov.w	r2, #10
 8006454:	4621      	mov	r1, r4
 8006456:	4648      	mov	r0, r9
 8006458:	d106      	bne.n	8006468 <_dtoa_r+0xb08>
 800645a:	f000 fb5f 	bl	8006b1c <__multadd>
 800645e:	4604      	mov	r4, r0
 8006460:	4607      	mov	r7, r0
 8006462:	f10b 0b01 	add.w	fp, fp, #1
 8006466:	e775      	b.n	8006354 <_dtoa_r+0x9f4>
 8006468:	f000 fb58 	bl	8006b1c <__multadd>
 800646c:	4639      	mov	r1, r7
 800646e:	4604      	mov	r4, r0
 8006470:	2300      	movs	r3, #0
 8006472:	220a      	movs	r2, #10
 8006474:	4648      	mov	r0, r9
 8006476:	f000 fb51 	bl	8006b1c <__multadd>
 800647a:	4607      	mov	r7, r0
 800647c:	e7f1      	b.n	8006462 <_dtoa_r+0xb02>
 800647e:	9b08      	ldr	r3, [sp, #32]
 8006480:	4627      	mov	r7, r4
 8006482:	2b00      	cmp	r3, #0
 8006484:	f103 36ff 	add.w	r6, r3, #4294967295	@ 0xffffffff
 8006488:	bfd8      	it	le
 800648a:	2600      	movle	r6, #0
 800648c:	2400      	movs	r4, #0
 800648e:	9b03      	ldr	r3, [sp, #12]
 8006490:	1c5a      	adds	r2, r3, #1
 8006492:	4416      	add	r6, r2
 8006494:	2201      	movs	r2, #1
 8006496:	9904      	ldr	r1, [sp, #16]
 8006498:	4648      	mov	r0, r9
 800649a:	f000 fceb 	bl	8006e74 <__lshift>
 800649e:	4629      	mov	r1, r5
 80064a0:	9004      	str	r0, [sp, #16]
 80064a2:	f000 fd53 	bl	8006f4c <__mcmp>
 80064a6:	2800      	cmp	r0, #0
 80064a8:	dcaf      	bgt.n	800640a <_dtoa_r+0xaaa>
 80064aa:	d102      	bne.n	80064b2 <_dtoa_r+0xb52>
 80064ac:	f01a 0f01 	tst.w	sl, #1
 80064b0:	d1ab      	bne.n	800640a <_dtoa_r+0xaaa>
 80064b2:	4633      	mov	r3, r6
 80064b4:	461e      	mov	r6, r3
 80064b6:	f813 2d01 	ldrb.w	r2, [r3, #-1]!
 80064ba:	2a30      	cmp	r2, #48	@ 0x30
 80064bc:	d0fa      	beq.n	80064b4 <_dtoa_r+0xb54>
 80064be:	e4a8      	b.n	8005e12 <_dtoa_r+0x4b2>
 80064c0:	9a03      	ldr	r2, [sp, #12]
 80064c2:	429a      	cmp	r2, r3
 80064c4:	d1a2      	bne.n	800640c <_dtoa_r+0xaac>
 80064c6:	9b06      	ldr	r3, [sp, #24]
 80064c8:	3301      	adds	r3, #1
 80064ca:	9306      	str	r3, [sp, #24]
 80064cc:	2331      	movs	r3, #49	@ 0x31
 80064ce:	e7ae      	b.n	800642e <_dtoa_r+0xace>
 80064d0:	9b26      	ldr	r3, [sp, #152]	@ 0x98
 80064d2:	2b00      	cmp	r3, #0
 80064d4:	f47f aa8c 	bne.w	80059f0 <_dtoa_r+0x90>
 80064d8:	4b13      	ldr	r3, [pc, #76]	@ (8006528 <_dtoa_r+0xbc8>)
 80064da:	f7ff baab 	b.w	8005a34 <_dtoa_r+0xd4>
 80064de:	9b22      	ldr	r3, [sp, #136]	@ 0x88
 80064e0:	2b01      	cmp	r3, #1
 80064e2:	f77f ae2e 	ble.w	8006142 <_dtoa_r+0x7e2>
 80064e6:	f8dd a040 	ldr.w	sl, [sp, #64]	@ 0x40
 80064ea:	2001      	movs	r0, #1
 80064ec:	e64d      	b.n	800618a <_dtoa_r+0x82a>
 80064ee:	9b08      	ldr	r3, [sp, #32]
 80064f0:	2b00      	cmp	r3, #0
 80064f2:	f77f aed6 	ble.w	80062a2 <_dtoa_r+0x942>
 80064f6:	9e03      	ldr	r6, [sp, #12]
 80064f8:	4629      	mov	r1, r5
 80064fa:	9804      	ldr	r0, [sp, #16]
 80064fc:	f7ff f9a8 	bl	8005850 <quorem>
 8006500:	9b03      	ldr	r3, [sp, #12]
 8006502:	f100 0a30 	add.w	sl, r0, #48	@ 0x30
 8006506:	f806 ab01 	strb.w	sl, [r6], #1
 800650a:	1af2      	subs	r2, r6, r3
 800650c:	9b08      	ldr	r3, [sp, #32]
 800650e:	4293      	cmp	r3, r2
 8006510:	ddb5      	ble.n	800647e <_dtoa_r+0xb1e>
 8006512:	2300      	movs	r3, #0
 8006514:	220a      	movs	r2, #10
 8006516:	4648      	mov	r0, r9
 8006518:	9904      	ldr	r1, [sp, #16]
 800651a:	f000 faff 	bl	8006b1c <__multadd>
 800651e:	9004      	str	r0, [sp, #16]
 8006520:	e7ea      	b.n	80064f8 <_dtoa_r+0xb98>
 8006522:	bf00      	nop
 8006524:	08007ea6 	.word	0x08007ea6
 8006528:	08007e2a 	.word	0x08007e2a

0800652c <__sfputc_r>:
 800652c:	6893      	ldr	r3, [r2, #8]
 800652e:	b410      	push	{r4}
 8006530:	3b01      	subs	r3, #1
 8006532:	2b00      	cmp	r3, #0
 8006534:	6093      	str	r3, [r2, #8]
 8006536:	da07      	bge.n	8006548 <__sfputc_r+0x1c>
 8006538:	6994      	ldr	r4, [r2, #24]
 800653a:	42a3      	cmp	r3, r4
 800653c:	db01      	blt.n	8006542 <__sfputc_r+0x16>
 800653e:	290a      	cmp	r1, #10
 8006540:	d102      	bne.n	8006548 <__sfputc_r+0x1c>
 8006542:	bc10      	pop	{r4}
 8006544:	f000 be52 	b.w	80071ec <__swbuf_r>
 8006548:	6813      	ldr	r3, [r2, #0]
 800654a:	1c58      	adds	r0, r3, #1
 800654c:	6010      	str	r0, [r2, #0]
 800654e:	7019      	strb	r1, [r3, #0]
 8006550:	4608      	mov	r0, r1
 8006552:	bc10      	pop	{r4}
 8006554:	4770      	bx	lr

08006556 <__sfputs_r>:
 8006556:	b5f8      	push	{r3, r4, r5, r6, r7, lr}
 8006558:	4606      	mov	r6, r0
 800655a:	460f      	mov	r7, r1
 800655c:	4614      	mov	r4, r2
 800655e:	18d5      	adds	r5, r2, r3
 8006560:	42ac      	cmp	r4, r5
 8006562:	d101      	bne.n	8006568 <__sfputs_r+0x12>
 8006564:	2000      	movs	r0, #0
 8006566:	e007      	b.n	8006578 <__sfputs_r+0x22>
 8006568:	463a      	mov	r2, r7
 800656a:	4630      	mov	r0, r6
 800656c:	f814 1b01 	ldrb.w	r1, [r4], #1
 8006570:	f7ff ffdc 	bl	800652c <__sfputc_r>
 8006574:	1c43      	adds	r3, r0, #1
 8006576:	d1f3      	bne.n	8006560 <__sfputs_r+0xa>
 8006578:	bdf8      	pop	{r3, r4, r5, r6, r7, pc}
	...

0800657c <_vfiprintf_r>:
 800657c:	e92d 47f0 	stmdb	sp!, {r4, r5, r6, r7, r8, r9, sl, lr}
 8006580:	460d      	mov	r5, r1
 8006582:	4614      	mov	r4, r2
 8006584:	461f      	mov	r7, r3
 8006586:	4606      	mov	r6, r0
 8006588:	b09c      	sub	sp, #112	@ 0x70
 800658a:	b118      	cbz	r0, 8006594 <_vfiprintf_r+0x18>
 800658c:	6a03      	ldr	r3, [r0, #32]
 800658e:	b90b      	cbnz	r3, 8006594 <_vfiprintf_r+0x18>
 8006590:	f7ff f8ce 	bl	8005730 <__sinit>
 8006594:	6e6b      	ldr	r3, [r5, #100]	@ 0x64
 8006596:	07d9      	lsls	r1, r3, #31
 8006598:	d405      	bmi.n	80065a6 <_vfiprintf_r+0x2a>
 800659a:	89ab      	ldrh	r3, [r5, #12]
 800659c:	059a      	lsls	r2, r3, #22
 800659e:	d402      	bmi.n	80065a6 <_vfiprintf_r+0x2a>
 80065a0:	6da8      	ldr	r0, [r5, #88]	@ 0x58
 80065a2:	f7ff f940 	bl	8005826 <__retarget_lock_acquire_recursive>
 80065a6:	89ab      	ldrh	r3, [r5, #12]
 80065a8:	071b      	lsls	r3, r3, #28
 80065aa:	d501      	bpl.n	80065b0 <_vfiprintf_r+0x34>
 80065ac:	692b      	ldr	r3, [r5, #16]
 80065ae:	b99b      	cbnz	r3, 80065d8 <_vfiprintf_r+0x5c>
 80065b0:	4629      	mov	r1, r5
 80065b2:	4630      	mov	r0, r6
 80065b4:	f000 fe58 	bl	8007268 <__swsetup_r>
 80065b8:	b170      	cbz	r0, 80065d8 <_vfiprintf_r+0x5c>
 80065ba:	6e6b      	ldr	r3, [r5, #100]	@ 0x64
 80065bc:	07dc      	lsls	r4, r3, #31
 80065be:	d504      	bpl.n	80065ca <_vfiprintf_r+0x4e>
 80065c0:	f04f 30ff 	mov.w	r0, #4294967295	@ 0xffffffff
 80065c4:	b01c      	add	sp, #112	@ 0x70
 80065c6:	e8bd 87f0 	ldmia.w	sp!, {r4, r5, r6, r7, r8, r9, sl, pc}
 80065ca:	89ab      	ldrh	r3, [r5, #12]
 80065cc:	0598      	lsls	r0, r3, #22
 80065ce:	d4f7      	bmi.n	80065c0 <_vfiprintf_r+0x44>
 80065d0:	6da8      	ldr	r0, [r5, #88]	@ 0x58
 80065d2:	f7ff f929 	bl	8005828 <__retarget_lock_release_recursive>
 80065d6:	e7f3      	b.n	80065c0 <_vfiprintf_r+0x44>
 80065d8:	2300      	movs	r3, #0
 80065da:	9309      	str	r3, [sp, #36]	@ 0x24
 80065dc:	2320      	movs	r3, #32
 80065de:	f88d 3029 	strb.w	r3, [sp, #41]	@ 0x29
 80065e2:	2330      	movs	r3, #48	@ 0x30
 80065e4:	f04f 0801 	mov.w	r8, #1
 80065e8:	9703      	str	r7, [sp, #12]
 80065ea:	4f69      	ldr	r7, [pc, #420]	@ (8006790 <_vfiprintf_r+0x214>)
 80065ec:	f88d 302a 	strb.w	r3, [sp, #42]	@ 0x2a
 80065f0:	4623      	mov	r3, r4
 80065f2:	4699      	mov	r9, r3
 80065f4:	f813 2b01 	ldrb.w	r2, [r3], #1
 80065f8:	b10a      	cbz	r2, 80065fe <_vfiprintf_r+0x82>
 80065fa:	2a25      	cmp	r2, #37	@ 0x25
 80065fc:	d1f9      	bne.n	80065f2 <_vfiprintf_r+0x76>
 80065fe:	ebb9 0a04 	subs.w	sl, r9, r4
 8006602:	d00b      	beq.n	800661c <_vfiprintf_r+0xa0>
 8006604:	4653      	mov	r3, sl
 8006606:	4622      	mov	r2, r4
 8006608:	4629      	mov	r1, r5
 800660a:	4630      	mov	r0, r6
 800660c:	f7ff ffa3 	bl	8006556 <__sfputs_r>
 8006610:	3001      	adds	r0, #1
 8006612:	f000 80a4 	beq.w	800675e <_vfiprintf_r+0x1e2>
 8006616:	9a09      	ldr	r2, [sp, #36]	@ 0x24
 8006618:	4452      	add	r2, sl
 800661a:	9209      	str	r2, [sp, #36]	@ 0x24
 800661c:	f899 3000 	ldrb.w	r3, [r9]
 8006620:	2b00      	cmp	r3, #0
 8006622:	f000 809c 	beq.w	800675e <_vfiprintf_r+0x1e2>
 8006626:	2300      	movs	r3, #0
 8006628:	f04f 32ff 	mov.w	r2, #4294967295	@ 0xffffffff
 800662c:	e9cd 2305 	strd	r2, r3, [sp, #20]
 8006630:	f109 0901 	add.w	r9, r9, #1
 8006634:	9304      	str	r3, [sp, #16]
 8006636:	9307      	str	r3, [sp, #28]
 8006638:	f88d 3053 	strb.w	r3, [sp, #83]	@ 0x53
 800663c:	931a      	str	r3, [sp, #104]	@ 0x68
 800663e:	464c      	mov	r4, r9
 8006640:	2205      	movs	r2, #5
 8006642:	f814 1b01 	ldrb.w	r1, [r4], #1
 8006646:	4852      	ldr	r0, [pc, #328]	@ (8006790 <_vfiprintf_r+0x214>)
 8006648:	f7ff f8f4 	bl	8005834 <memchr>
 800664c:	9b04      	ldr	r3, [sp, #16]
 800664e:	b9d0      	cbnz	r0, 8006686 <_vfiprintf_r+0x10a>
 8006650:	06d9      	lsls	r1, r3, #27
 8006652:	bf44      	itt	mi
 8006654:	2220      	movmi	r2, #32
 8006656:	f88d 2053 	strbmi.w	r2, [sp, #83]	@ 0x53
 800665a:	071a      	lsls	r2, r3, #28
 800665c:	bf44      	itt	mi
 800665e:	222b      	movmi	r2, #43	@ 0x2b
 8006660:	f88d 2053 	strbmi.w	r2, [sp, #83]	@ 0x53
 8006664:	f899 2000 	ldrb.w	r2, [r9]
 8006668:	2a2a      	cmp	r2, #42	@ 0x2a
 800666a:	d013      	beq.n	8006694 <_vfiprintf_r+0x118>
 800666c:	464c      	mov	r4, r9
 800666e:	2000      	movs	r0, #0
 8006670:	f04f 0c0a 	mov.w	ip, #10
 8006674:	9a07      	ldr	r2, [sp, #28]
 8006676:	4621      	mov	r1, r4
 8006678:	f811 3b01 	ldrb.w	r3, [r1], #1
 800667c:	3b30      	subs	r3, #48	@ 0x30
 800667e:	2b09      	cmp	r3, #9
 8006680:	d949      	bls.n	8006716 <_vfiprintf_r+0x19a>
 8006682:	b968      	cbnz	r0, 80066a0 <_vfiprintf_r+0x124>
 8006684:	e013      	b.n	80066ae <_vfiprintf_r+0x132>
 8006686:	1bc0      	subs	r0, r0, r7
 8006688:	fa08 f000 	lsl.w	r0, r8, r0
 800668c:	4318      	orrs	r0, r3
 800668e:	46a1      	mov	r9, r4
 8006690:	9004      	str	r0, [sp, #16]
 8006692:	e7d4      	b.n	800663e <_vfiprintf_r+0xc2>
 8006694:	9a03      	ldr	r2, [sp, #12]
 8006696:	1d11      	adds	r1, r2, #4
 8006698:	6812      	ldr	r2, [r2, #0]
 800669a:	9103      	str	r1, [sp, #12]
 800669c:	2a00      	cmp	r2, #0
 800669e:	db01      	blt.n	80066a4 <_vfiprintf_r+0x128>
 80066a0:	9207      	str	r2, [sp, #28]
 80066a2:	e004      	b.n	80066ae <_vfiprintf_r+0x132>
 80066a4:	4252      	negs	r2, r2
 80066a6:	f043 0302 	orr.w	r3, r3, #2
 80066aa:	9207      	str	r2, [sp, #28]
 80066ac:	9304      	str	r3, [sp, #16]
 80066ae:	7823      	ldrb	r3, [r4, #0]
 80066b0:	2b2e      	cmp	r3, #46	@ 0x2e
 80066b2:	d10a      	bne.n	80066ca <_vfiprintf_r+0x14e>
 80066b4:	7863      	ldrb	r3, [r4, #1]
 80066b6:	2b2a      	cmp	r3, #42	@ 0x2a
 80066b8:	d132      	bne.n	8006720 <_vfiprintf_r+0x1a4>
 80066ba:	9b03      	ldr	r3, [sp, #12]
 80066bc:	3402      	adds	r4, #2
 80066be:	1d1a      	adds	r2, r3, #4
 80066c0:	681b      	ldr	r3, [r3, #0]
 80066c2:	9203      	str	r2, [sp, #12]
 80066c4:	ea43 73e3 	orr.w	r3, r3, r3, asr #31
 80066c8:	9305      	str	r3, [sp, #20]
 80066ca:	f8df 90c8 	ldr.w	r9, [pc, #200]	@ 8006794 <_vfiprintf_r+0x218>
 80066ce:	2203      	movs	r2, #3
 80066d0:	4648      	mov	r0, r9
 80066d2:	7821      	ldrb	r1, [r4, #0]
 80066d4:	f7ff f8ae 	bl	8005834 <memchr>
 80066d8:	b138      	cbz	r0, 80066ea <_vfiprintf_r+0x16e>
 80066da:	2240      	movs	r2, #64	@ 0x40
 80066dc:	9b04      	ldr	r3, [sp, #16]
 80066de:	eba0 0009 	sub.w	r0, r0, r9
 80066e2:	4082      	lsls	r2, r0
 80066e4:	4313      	orrs	r3, r2
 80066e6:	3401      	adds	r4, #1
 80066e8:	9304      	str	r3, [sp, #16]
 80066ea:	f814 1b01 	ldrb.w	r1, [r4], #1
 80066ee:	2206      	movs	r2, #6
 80066f0:	4829      	ldr	r0, [pc, #164]	@ (8006798 <_vfiprintf_r+0x21c>)
 80066f2:	f88d 1028 	strb.w	r1, [sp, #40]	@ 0x28
 80066f6:	f7ff f89d 	bl	8005834 <memchr>
 80066fa:	2800      	cmp	r0, #0
 80066fc:	d03e      	beq.n	800677c <_vfiprintf_r+0x200>
 80066fe:	4827      	ldr	r0, [pc, #156]	@ (800679c <_vfiprintf_r+0x220>)
 8006700:	bb18      	cbnz	r0, 800674a <_vfiprintf_r+0x1ce>
 8006702:	9b03      	ldr	r3, [sp, #12]
 8006704:	3307      	adds	r3, #7
 8006706:	f023 0307 	bic.w	r3, r3, #7
 800670a:	3308      	adds	r3, #8
 800670c:	9303      	str	r3, [sp, #12]
 800670e:	9b09      	ldr	r3, [sp, #36]	@ 0x24
 8006710:	4403      	add	r3, r0
 8006712:	9309      	str	r3, [sp, #36]	@ 0x24
 8006714:	e76c      	b.n	80065f0 <_vfiprintf_r+0x74>
 8006716:	460c      	mov	r4, r1
 8006718:	2001      	movs	r0, #1
 800671a:	fb0c 3202 	mla	r2, ip, r2, r3
 800671e:	e7aa      	b.n	8006676 <_vfiprintf_r+0xfa>
 8006720:	2300      	movs	r3, #0
 8006722:	f04f 0c0a 	mov.w	ip, #10
 8006726:	4619      	mov	r1, r3
 8006728:	3401      	adds	r4, #1
 800672a:	9305      	str	r3, [sp, #20]
 800672c:	4620      	mov	r0, r4
 800672e:	f810 2b01 	ldrb.w	r2, [r0], #1
 8006732:	3a30      	subs	r2, #48	@ 0x30
 8006734:	2a09      	cmp	r2, #9
 8006736:	d903      	bls.n	8006740 <_vfiprintf_r+0x1c4>
 8006738:	2b00      	cmp	r3, #0
 800673a:	d0c6      	beq.n	80066ca <_vfiprintf_r+0x14e>
 800673c:	9105      	str	r1, [sp, #20]
 800673e:	e7c4      	b.n	80066ca <_vfiprintf_r+0x14e>
 8006740:	4604      	mov	r4, r0
 8006742:	2301      	movs	r3, #1
 8006744:	fb0c 2101 	mla	r1, ip, r1, r2
 8006748:	e7f0      	b.n	800672c <_vfiprintf_r+0x1b0>
 800674a:	ab03      	add	r3, sp, #12
 800674c:	9300      	str	r3, [sp, #0]
 800674e:	462a      	mov	r2, r5
 8006750:	4630      	mov	r0, r6
 8006752:	4b13      	ldr	r3, [pc, #76]	@ (80067a0 <_vfiprintf_r+0x224>)
 8006754:	a904      	add	r1, sp, #16
 8006756:	f7fe fb99 	bl	8004e8c <_printf_float>
 800675a:	1c43      	adds	r3, r0, #1
 800675c:	d1d7      	bne.n	800670e <_vfiprintf_r+0x192>
 800675e:	6e6b      	ldr	r3, [r5, #100]	@ 0x64
 8006760:	07d9      	lsls	r1, r3, #31
 8006762:	d405      	bmi.n	8006770 <_vfiprintf_r+0x1f4>
 8006764:	89ab      	ldrh	r3, [r5, #12]
 8006766:	059a      	lsls	r2, r3, #22
 8006768:	d402      	bmi.n	8006770 <_vfiprintf_r+0x1f4>
 800676a:	6da8      	ldr	r0, [r5, #88]	@ 0x58
 800676c:	f7ff f85c 	bl	8005828 <__retarget_lock_release_recursive>
 8006770:	89ab      	ldrh	r3, [r5, #12]
 8006772:	065b      	lsls	r3, r3, #25
 8006774:	f53f af24 	bmi.w	80065c0 <_vfiprintf_r+0x44>
 8006778:	9809      	ldr	r0, [sp, #36]	@ 0x24
 800677a:	e723      	b.n	80065c4 <_vfiprintf_r+0x48>
 800677c:	ab03      	add	r3, sp, #12
 800677e:	9300      	str	r3, [sp, #0]
 8006780:	462a      	mov	r2, r5
 8006782:	4630      	mov	r0, r6
 8006784:	4b06      	ldr	r3, [pc, #24]	@ (80067a0 <_vfiprintf_r+0x224>)
 8006786:	a904      	add	r1, sp, #16
 8006788:	f7fe fe1e 	bl	80053c8 <_printf_i>
 800678c:	e7e5      	b.n	800675a <_vfiprintf_r+0x1de>
 800678e:	bf00      	nop
 8006790:	08007eb7 	.word	0x08007eb7
 8006794:	08007ebd 	.word	0x08007ebd
 8006798:	08007ec1 	.word	0x08007ec1
 800679c:	08004e8d 	.word	0x08004e8d
 80067a0:	08006557 	.word	0x08006557

080067a4 <malloc>:
 80067a4:	4b02      	ldr	r3, [pc, #8]	@ (80067b0 <malloc+0xc>)
 80067a6:	4601      	mov	r1, r0
 80067a8:	6818      	ldr	r0, [r3, #0]
 80067aa:	f000 b825 	b.w	80067f8 <_malloc_r>
 80067ae:	bf00      	nop
 80067b0:	20000018 	.word	0x20000018

080067b4 <sbrk_aligned>:
 80067b4:	b570      	push	{r4, r5, r6, lr}
 80067b6:	4e0f      	ldr	r6, [pc, #60]	@ (80067f4 <sbrk_aligned+0x40>)
 80067b8:	460c      	mov	r4, r1
 80067ba:	6831      	ldr	r1, [r6, #0]
 80067bc:	4605      	mov	r5, r0
 80067be:	b911      	cbnz	r1, 80067c6 <sbrk_aligned+0x12>
 80067c0:	f000 fe38 	bl	8007434 <_sbrk_r>
 80067c4:	6030      	str	r0, [r6, #0]
 80067c6:	4621      	mov	r1, r4
 80067c8:	4628      	mov	r0, r5
 80067ca:	f000 fe33 	bl	8007434 <_sbrk_r>
 80067ce:	1c43      	adds	r3, r0, #1
 80067d0:	d103      	bne.n	80067da <sbrk_aligned+0x26>
 80067d2:	f04f 34ff 	mov.w	r4, #4294967295	@ 0xffffffff
 80067d6:	4620      	mov	r0, r4
 80067d8:	bd70      	pop	{r4, r5, r6, pc}
 80067da:	1cc4      	adds	r4, r0, #3
 80067dc:	f024 0403 	bic.w	r4, r4, #3
 80067e0:	42a0      	cmp	r0, r4
 80067e2:	d0f8      	beq.n	80067d6 <sbrk_aligned+0x22>
 80067e4:	1a21      	subs	r1, r4, r0
 80067e6:	4628      	mov	r0, r5
 80067e8:	f000 fe24 	bl	8007434 <_sbrk_r>
 80067ec:	3001      	adds	r0, #1
 80067ee:	d1f2      	bne.n	80067d6 <sbrk_aligned+0x22>
 80067f0:	e7ef      	b.n	80067d2 <sbrk_aligned+0x1e>
 80067f2:	bf00      	nop
 80067f4:	200004a4 	.word	0x200004a4

080067f8 <_malloc_r>:
 80067f8:	e92d 43f8 	stmdb	sp!, {r3, r4, r5, r6, r7, r8, r9, lr}
 80067fc:	1ccd      	adds	r5, r1, #3
 80067fe:	f025 0503 	bic.w	r5, r5, #3
 8006802:	3508      	adds	r5, #8
 8006804:	2d0c      	cmp	r5, #12
 8006806:	bf38      	it	cc
 8006808:	250c      	movcc	r5, #12
 800680a:	2d00      	cmp	r5, #0
 800680c:	4606      	mov	r6, r0
 800680e:	db01      	blt.n	8006814 <_malloc_r+0x1c>
 8006810:	42a9      	cmp	r1, r5
 8006812:	d904      	bls.n	800681e <_malloc_r+0x26>
 8006814:	230c      	movs	r3, #12
 8006816:	6033      	str	r3, [r6, #0]
 8006818:	2000      	movs	r0, #0
 800681a:	e8bd 83f8 	ldmia.w	sp!, {r3, r4, r5, r6, r7, r8, r9, pc}
 800681e:	f8df 80d4 	ldr.w	r8, [pc, #212]	@ 80068f4 <_malloc_r+0xfc>
 8006822:	f000 f90f 	bl	8006a44 <__malloc_lock>
 8006826:	f8d8 3000 	ldr.w	r3, [r8]
 800682a:	461c      	mov	r4, r3
 800682c:	bb44      	cbnz	r4, 8006880 <_malloc_r+0x88>
 800682e:	4629      	mov	r1, r5
 8006830:	4630      	mov	r0, r6
 8006832:	f7ff ffbf 	bl	80067b4 <sbrk_aligned>
 8006836:	1c43      	adds	r3, r0, #1
 8006838:	4604      	mov	r4, r0
 800683a:	d158      	bne.n	80068ee <_malloc_r+0xf6>
 800683c:	f8d8 4000 	ldr.w	r4, [r8]
 8006840:	4627      	mov	r7, r4
 8006842:	2f00      	cmp	r7, #0
 8006844:	d143      	bne.n	80068ce <_malloc_r+0xd6>
 8006846:	2c00      	cmp	r4, #0
 8006848:	d04b      	beq.n	80068e2 <_malloc_r+0xea>
 800684a:	6823      	ldr	r3, [r4, #0]
 800684c:	4639      	mov	r1, r7
 800684e:	4630      	mov	r0, r6
 8006850:	eb04 0903 	add.w	r9, r4, r3
 8006854:	f000 fdee 	bl	8007434 <_sbrk_r>
 8006858:	4581      	cmp	r9, r0
 800685a:	d142      	bne.n	80068e2 <_malloc_r+0xea>
 800685c:	6821      	ldr	r1, [r4, #0]
 800685e:	4630      	mov	r0, r6
 8006860:	1a6d      	subs	r5, r5, r1
 8006862:	4629      	mov	r1, r5
 8006864:	f7ff ffa6 	bl	80067b4 <sbrk_aligned>
 8006868:	3001      	adds	r0, #1
 800686a:	d03a      	beq.n	80068e2 <_malloc_r+0xea>
 800686c:	6823      	ldr	r3, [r4, #0]
 800686e:	442b      	add	r3, r5
 8006870:	6023      	str	r3, [r4, #0]
 8006872:	f8d8 3000 	ldr.w	r3, [r8]
 8006876:	685a      	ldr	r2, [r3, #4]
 8006878:	bb62      	cbnz	r2, 80068d4 <_malloc_r+0xdc>
 800687a:	f8c8 7000 	str.w	r7, [r8]
 800687e:	e00f      	b.n	80068a0 <_malloc_r+0xa8>
 8006880:	6822      	ldr	r2, [r4, #0]
 8006882:	1b52      	subs	r2, r2, r5
 8006884:	d420      	bmi.n	80068c8 <_malloc_r+0xd0>
 8006886:	2a0b      	cmp	r2, #11
 8006888:	d917      	bls.n	80068ba <_malloc_r+0xc2>
 800688a:	1961      	adds	r1, r4, r5
 800688c:	42a3      	cmp	r3, r4
 800688e:	6025      	str	r5, [r4, #0]
 8006890:	bf18      	it	ne
 8006892:	6059      	strne	r1, [r3, #4]
 8006894:	6863      	ldr	r3, [r4, #4]
 8006896:	bf08      	it	eq
 8006898:	f8c8 1000 	streq.w	r1, [r8]
 800689c:	5162      	str	r2, [r4, r5]
 800689e:	604b      	str	r3, [r1, #4]
 80068a0:	4630      	mov	r0, r6
 80068a2:	f000 f8d5 	bl	8006a50 <__malloc_unlock>
 80068a6:	f104 000b 	add.w	r0, r4, #11
 80068aa:	1d23      	adds	r3, r4, #4
 80068ac:	f020 0007 	bic.w	r0, r0, #7
 80068b0:	1ac2      	subs	r2, r0, r3
 80068b2:	bf1c      	itt	ne
 80068b4:	1a1b      	subne	r3, r3, r0
 80068b6:	50a3      	strne	r3, [r4, r2]
 80068b8:	e7af      	b.n	800681a <_malloc_r+0x22>
 80068ba:	6862      	ldr	r2, [r4, #4]
 80068bc:	42a3      	cmp	r3, r4
 80068be:	bf0c      	ite	eq
 80068c0:	f8c8 2000 	streq.w	r2, [r8]
 80068c4:	605a      	strne	r2, [r3, #4]
 80068c6:	e7eb      	b.n	80068a0 <_malloc_r+0xa8>
 80068c8:	4623      	mov	r3, r4
 80068ca:	6864      	ldr	r4, [r4, #4]
 80068cc:	e7ae      	b.n	800682c <_malloc_r+0x34>
 80068ce:	463c      	mov	r4, r7
 80068d0:	687f      	ldr	r7, [r7, #4]
 80068d2:	e7b6      	b.n	8006842 <_malloc_r+0x4a>
 80068d4:	461a      	mov	r2, r3
 80068d6:	685b      	ldr	r3, [r3, #4]
 80068d8:	42a3      	cmp	r3, r4
 80068da:	d1fb      	bne.n	80068d4 <_malloc_r+0xdc>
 80068dc:	2300      	movs	r3, #0
 80068de:	6053      	str	r3, [r2, #4]
 80068e0:	e7de      	b.n	80068a0 <_malloc_r+0xa8>
 80068e2:	230c      	movs	r3, #12
 80068e4:	4630      	mov	r0, r6
 80068e6:	6033      	str	r3, [r6, #0]
 80068e8:	f000 f8b2 	bl	8006a50 <__malloc_unlock>
 80068ec:	e794      	b.n	8006818 <_malloc_r+0x20>
 80068ee:	6005      	str	r5, [r0, #0]
 80068f0:	e7d6      	b.n	80068a0 <_malloc_r+0xa8>
 80068f2:	bf00      	nop
 80068f4:	200004a8 	.word	0x200004a8

080068f8 <__sflush_r>:
 80068f8:	f9b1 200c 	ldrsh.w	r2, [r1, #12]
 80068fc:	b5f8      	push	{r3, r4, r5, r6, r7, lr}
 80068fe:	0716      	lsls	r6, r2, #28
 8006900:	4605      	mov	r5, r0
 8006902:	460c      	mov	r4, r1
 8006904:	d451      	bmi.n	80069aa <__sflush_r+0xb2>
 8006906:	684b      	ldr	r3, [r1, #4]
 8006908:	2b00      	cmp	r3, #0
 800690a:	dc02      	bgt.n	8006912 <__sflush_r+0x1a>
 800690c:	6c0b      	ldr	r3, [r1, #64]	@ 0x40
 800690e:	2b00      	cmp	r3, #0
 8006910:	dd49      	ble.n	80069a6 <__sflush_r+0xae>
 8006912:	6ae6      	ldr	r6, [r4, #44]	@ 0x2c
 8006914:	2e00      	cmp	r6, #0
 8006916:	d046      	beq.n	80069a6 <__sflush_r+0xae>
 8006918:	2300      	movs	r3, #0
 800691a:	f412 5280 	ands.w	r2, r2, #4096	@ 0x1000
 800691e:	682f      	ldr	r7, [r5, #0]
 8006920:	602b      	str	r3, [r5, #0]
 8006922:	d031      	beq.n	8006988 <__sflush_r+0x90>
 8006924:	6d62      	ldr	r2, [r4, #84]	@ 0x54
 8006926:	89a3      	ldrh	r3, [r4, #12]
 8006928:	0759      	lsls	r1, r3, #29
 800692a:	d505      	bpl.n	8006938 <__sflush_r+0x40>
 800692c:	6863      	ldr	r3, [r4, #4]
 800692e:	1ad2      	subs	r2, r2, r3
 8006930:	6b63      	ldr	r3, [r4, #52]	@ 0x34
 8006932:	b10b      	cbz	r3, 8006938 <__sflush_r+0x40>
 8006934:	6c23      	ldr	r3, [r4, #64]	@ 0x40
 8006936:	1ad2      	subs	r2, r2, r3
 8006938:	2300      	movs	r3, #0
 800693a:	4628      	mov	r0, r5
 800693c:	6ae6      	ldr	r6, [r4, #44]	@ 0x2c
 800693e:	6a21      	ldr	r1, [r4, #32]
 8006940:	47b0      	blx	r6
 8006942:	1c42      	adds	r2, r0, #1
 8006944:	f9b4 300c 	ldrsh.w	r3, [r4, #12]
 8006948:	d106      	bne.n	8006958 <__sflush_r+0x60>
 800694a:	6829      	ldr	r1, [r5, #0]
 800694c:	291d      	cmp	r1, #29
 800694e:	d845      	bhi.n	80069dc <__sflush_r+0xe4>
 8006950:	4a27      	ldr	r2, [pc, #156]	@ (80069f0 <__sflush_r+0xf8>)
 8006952:	40ca      	lsrs	r2, r1
 8006954:	07d6      	lsls	r6, r2, #31
 8006956:	d541      	bpl.n	80069dc <__sflush_r+0xe4>
 8006958:	2200      	movs	r2, #0
 800695a:	6062      	str	r2, [r4, #4]
 800695c:	6922      	ldr	r2, [r4, #16]
 800695e:	04d9      	lsls	r1, r3, #19
 8006960:	6022      	str	r2, [r4, #0]
 8006962:	d504      	bpl.n	800696e <__sflush_r+0x76>
 8006964:	1c42      	adds	r2, r0, #1
 8006966:	d101      	bne.n	800696c <__sflush_r+0x74>
 8006968:	682b      	ldr	r3, [r5, #0]
 800696a:	b903      	cbnz	r3, 800696e <__sflush_r+0x76>
 800696c:	6560      	str	r0, [r4, #84]	@ 0x54
 800696e:	6b61      	ldr	r1, [r4, #52]	@ 0x34
 8006970:	602f      	str	r7, [r5, #0]
 8006972:	b1c1      	cbz	r1, 80069a6 <__sflush_r+0xae>
 8006974:	f104 0344 	add.w	r3, r4, #68	@ 0x44
 8006978:	4299      	cmp	r1, r3
 800697a:	d002      	beq.n	8006982 <__sflush_r+0x8a>
 800697c:	4628      	mov	r0, r5
 800697e:	f000 fddd 	bl	800753c <_free_r>
 8006982:	2300      	movs	r3, #0
 8006984:	6363      	str	r3, [r4, #52]	@ 0x34
 8006986:	e00e      	b.n	80069a6 <__sflush_r+0xae>
 8006988:	2301      	movs	r3, #1
 800698a:	4628      	mov	r0, r5
 800698c:	6a21      	ldr	r1, [r4, #32]
 800698e:	47b0      	blx	r6
 8006990:	4602      	mov	r2, r0
 8006992:	1c50      	adds	r0, r2, #1
 8006994:	d1c7      	bne.n	8006926 <__sflush_r+0x2e>
 8006996:	682b      	ldr	r3, [r5, #0]
 8006998:	2b00      	cmp	r3, #0
 800699a:	d0c4      	beq.n	8006926 <__sflush_r+0x2e>
 800699c:	2b1d      	cmp	r3, #29
 800699e:	d001      	beq.n	80069a4 <__sflush_r+0xac>
 80069a0:	2b16      	cmp	r3, #22
 80069a2:	d119      	bne.n	80069d8 <__sflush_r+0xe0>
 80069a4:	602f      	str	r7, [r5, #0]
 80069a6:	2000      	movs	r0, #0
 80069a8:	e01d      	b.n	80069e6 <__sflush_r+0xee>
 80069aa:	690f      	ldr	r7, [r1, #16]
 80069ac:	2f00      	cmp	r7, #0
 80069ae:	d0fa      	beq.n	80069a6 <__sflush_r+0xae>
 80069b0:	0793      	lsls	r3, r2, #30
 80069b2:	bf18      	it	ne
 80069b4:	2300      	movne	r3, #0
 80069b6:	680e      	ldr	r6, [r1, #0]
 80069b8:	bf08      	it	eq
 80069ba:	694b      	ldreq	r3, [r1, #20]
 80069bc:	1bf6      	subs	r6, r6, r7
 80069be:	600f      	str	r7, [r1, #0]
 80069c0:	608b      	str	r3, [r1, #8]
 80069c2:	2e00      	cmp	r6, #0
 80069c4:	ddef      	ble.n	80069a6 <__sflush_r+0xae>
 80069c6:	4633      	mov	r3, r6
 80069c8:	463a      	mov	r2, r7
 80069ca:	4628      	mov	r0, r5
 80069cc:	6a21      	ldr	r1, [r4, #32]
 80069ce:	f8d4 c028 	ldr.w	ip, [r4, #40]	@ 0x28
 80069d2:	47e0      	blx	ip
 80069d4:	2800      	cmp	r0, #0
 80069d6:	dc07      	bgt.n	80069e8 <__sflush_r+0xf0>
 80069d8:	f9b4 300c 	ldrsh.w	r3, [r4, #12]
 80069dc:	f04f 30ff 	mov.w	r0, #4294967295	@ 0xffffffff
 80069e0:	f043 0340 	orr.w	r3, r3, #64	@ 0x40
 80069e4:	81a3      	strh	r3, [r4, #12]
 80069e6:	bdf8      	pop	{r3, r4, r5, r6, r7, pc}
 80069e8:	4407      	add	r7, r0
 80069ea:	1a36      	subs	r6, r6, r0
 80069ec:	e7e9      	b.n	80069c2 <__sflush_r+0xca>
 80069ee:	bf00      	nop
 80069f0:	20400001 	.word	0x20400001

080069f4 <_fflush_r>:
 80069f4:	b538      	push	{r3, r4, r5, lr}
 80069f6:	690b      	ldr	r3, [r1, #16]
 80069f8:	4605      	mov	r5, r0
 80069fa:	460c      	mov	r4, r1
 80069fc:	b913      	cbnz	r3, 8006a04 <_fflush_r+0x10>
 80069fe:	2500      	movs	r5, #0
 8006a00:	4628      	mov	r0, r5
 8006a02:	bd38      	pop	{r3, r4, r5, pc}
 8006a04:	b118      	cbz	r0, 8006a0e <_fflush_r+0x1a>
 8006a06:	6a03      	ldr	r3, [r0, #32]
 8006a08:	b90b      	cbnz	r3, 8006a0e <_fflush_r+0x1a>
 8006a0a:	f7fe fe91 	bl	8005730 <__sinit>
 8006a0e:	f9b4 300c 	ldrsh.w	r3, [r4, #12]
 8006a12:	2b00      	cmp	r3, #0
 8006a14:	d0f3      	beq.n	80069fe <_fflush_r+0xa>
 8006a16:	6e62      	ldr	r2, [r4, #100]	@ 0x64
 8006a18:	07d0      	lsls	r0, r2, #31
 8006a1a:	d404      	bmi.n	8006a26 <_fflush_r+0x32>
 8006a1c:	0599      	lsls	r1, r3, #22
 8006a1e:	d402      	bmi.n	8006a26 <_fflush_r+0x32>
 8006a20:	6da0      	ldr	r0, [r4, #88]	@ 0x58
 8006a22:	f7fe ff00 	bl	8005826 <__retarget_lock_acquire_recursive>
 8006a26:	4628      	mov	r0, r5
 8006a28:	4621      	mov	r1, r4
 8006a2a:	f7ff ff65 	bl	80068f8 <__sflush_r>
 8006a2e:	6e63      	ldr	r3, [r4, #100]	@ 0x64
 8006a30:	4605      	mov	r5, r0
 8006a32:	07da      	lsls	r2, r3, #31
 8006a34:	d4e4      	bmi.n	8006a00 <_fflush_r+0xc>
 8006a36:	89a3      	ldrh	r3, [r4, #12]
 8006a38:	059b      	lsls	r3, r3, #22
 8006a3a:	d4e1      	bmi.n	8006a00 <_fflush_r+0xc>
 8006a3c:	6da0      	ldr	r0, [r4, #88]	@ 0x58
 8006a3e:	f7fe fef3 	bl	8005828 <__retarget_lock_release_recursive>
 8006a42:	e7dd      	b.n	8006a00 <_fflush_r+0xc>

08006a44 <__malloc_lock>:
 8006a44:	4801      	ldr	r0, [pc, #4]	@ (8006a4c <__malloc_lock+0x8>)
 8006a46:	f7fe beee 	b.w	8005826 <__retarget_lock_acquire_recursive>
 8006a4a:	bf00      	nop
 8006a4c:	200004a0 	.word	0x200004a0

08006a50 <__malloc_unlock>:
 8006a50:	4801      	ldr	r0, [pc, #4]	@ (8006a58 <__malloc_unlock+0x8>)
 8006a52:	f7fe bee9 	b.w	8005828 <__retarget_lock_release_recursive>
 8006a56:	bf00      	nop
 8006a58:	200004a0 	.word	0x200004a0

08006a5c <_Balloc>:
 8006a5c:	b570      	push	{r4, r5, r6, lr}
 8006a5e:	69c4      	ldr	r4, [r0, #28]
 8006a60:	4605      	mov	r5, r0
 8006a62:	460e      	mov	r6, r1
 8006a64:	b984      	cbnz	r4, 8006a88 <_Balloc+0x2c>
 8006a66:	2010      	movs	r0, #16
 8006a68:	f7ff fe9c 	bl	80067a4 <malloc>
 8006a6c:	4604      	mov	r4, r0
 8006a6e:	61e8      	str	r0, [r5, #28]
 8006a70:	b928      	cbnz	r0, 8006a7e <_Balloc+0x22>
 8006a72:	4602      	mov	r2, r0
 8006a74:	216b      	movs	r1, #107	@ 0x6b
 8006a76:	4b16      	ldr	r3, [pc, #88]	@ (8006ad0 <_Balloc+0x74>)
 8006a78:	4816      	ldr	r0, [pc, #88]	@ (8006ad4 <_Balloc+0x78>)
 8006a7a:	f000 fd2d 	bl	80074d8 <__assert_func>
 8006a7e:	2300      	movs	r3, #0
 8006a80:	e9c0 3301 	strd	r3, r3, [r0, #4]
 8006a84:	6003      	str	r3, [r0, #0]
 8006a86:	60c3      	str	r3, [r0, #12]
 8006a88:	68e3      	ldr	r3, [r4, #12]
 8006a8a:	b953      	cbnz	r3, 8006aa2 <_Balloc+0x46>
 8006a8c:	2221      	movs	r2, #33	@ 0x21
 8006a8e:	2104      	movs	r1, #4
 8006a90:	4628      	mov	r0, r5
 8006a92:	f000 fd3f 	bl	8007514 <_calloc_r>
 8006a96:	69eb      	ldr	r3, [r5, #28]
 8006a98:	60e0      	str	r0, [r4, #12]
 8006a9a:	68db      	ldr	r3, [r3, #12]
 8006a9c:	b90b      	cbnz	r3, 8006aa2 <_Balloc+0x46>
 8006a9e:	2000      	movs	r0, #0
 8006aa0:	bd70      	pop	{r4, r5, r6, pc}
 8006aa2:	f853 0026 	ldr.w	r0, [r3, r6, lsl #2]
 8006aa6:	b130      	cbz	r0, 8006ab6 <_Balloc+0x5a>
 8006aa8:	6802      	ldr	r2, [r0, #0]
 8006aaa:	f843 2026 	str.w	r2, [r3, r6, lsl #2]
 8006aae:	2300      	movs	r3, #0
 8006ab0:	e9c0 3303 	strd	r3, r3, [r0, #12]
 8006ab4:	e7f4      	b.n	8006aa0 <_Balloc+0x44>
 8006ab6:	2101      	movs	r1, #1
 8006ab8:	fa01 f406 	lsl.w	r4, r1, r6
 8006abc:	1d62      	adds	r2, r4, #5
 8006abe:	4628      	mov	r0, r5
 8006ac0:	0092      	lsls	r2, r2, #2
 8006ac2:	f000 fd27 	bl	8007514 <_calloc_r>
 8006ac6:	2800      	cmp	r0, #0
 8006ac8:	d0e9      	beq.n	8006a9e <_Balloc+0x42>
 8006aca:	e9c0 6401 	strd	r6, r4, [r0, #4]
 8006ace:	e7ee      	b.n	8006aae <_Balloc+0x52>
 8006ad0:	08007e37 	.word	0x08007e37
 8006ad4:	08007ec8 	.word	0x08007ec8

08006ad8 <_Bfree>:
 8006ad8:	b570      	push	{r4, r5, r6, lr}
 8006ada:	69c6      	ldr	r6, [r0, #28]
 8006adc:	4605      	mov	r5, r0
 8006ade:	460c      	mov	r4, r1
 8006ae0:	b976      	cbnz	r6, 8006b00 <_Bfree+0x28>
 8006ae2:	2010      	movs	r0, #16
 8006ae4:	f7ff fe5e 	bl	80067a4 <malloc>
 8006ae8:	4602      	mov	r2, r0
 8006aea:	61e8      	str	r0, [r5, #28]
 8006aec:	b920      	cbnz	r0, 8006af8 <_Bfree+0x20>
 8006aee:	218f      	movs	r1, #143	@ 0x8f
 8006af0:	4b08      	ldr	r3, [pc, #32]	@ (8006b14 <_Bfree+0x3c>)
 8006af2:	4809      	ldr	r0, [pc, #36]	@ (8006b18 <_Bfree+0x40>)
 8006af4:	f000 fcf0 	bl	80074d8 <__assert_func>
 8006af8:	e9c0 6601 	strd	r6, r6, [r0, #4]
 8006afc:	6006      	str	r6, [r0, #0]
 8006afe:	60c6      	str	r6, [r0, #12]
 8006b00:	b13c      	cbz	r4, 8006b12 <_Bfree+0x3a>
 8006b02:	69eb      	ldr	r3, [r5, #28]
 8006b04:	6862      	ldr	r2, [r4, #4]
 8006b06:	68db      	ldr	r3, [r3, #12]
 8006b08:	f853 1022 	ldr.w	r1, [r3, r2, lsl #2]
 8006b0c:	6021      	str	r1, [r4, #0]
 8006b0e:	f843 4022 	str.w	r4, [r3, r2, lsl #2]
 8006b12:	bd70      	pop	{r4, r5, r6, pc}
 8006b14:	08007e37 	.word	0x08007e37
 8006b18:	08007ec8 	.word	0x08007ec8

08006b1c <__multadd>:
 8006b1c:	e92d 41f0 	stmdb	sp!, {r4, r5, r6, r7, r8, lr}
 8006b20:	4607      	mov	r7, r0
 8006b22:	460c      	mov	r4, r1
 8006b24:	461e      	mov	r6, r3
 8006b26:	2000      	movs	r0, #0
 8006b28:	690d      	ldr	r5, [r1, #16]
 8006b2a:	f101 0c14 	add.w	ip, r1, #20
 8006b2e:	f8dc 3000 	ldr.w	r3, [ip]
 8006b32:	3001      	adds	r0, #1
 8006b34:	b299      	uxth	r1, r3
 8006b36:	fb02 6101 	mla	r1, r2, r1, r6
 8006b3a:	0c1e      	lsrs	r6, r3, #16
 8006b3c:	0c0b      	lsrs	r3, r1, #16
 8006b3e:	fb02 3306 	mla	r3, r2, r6, r3
 8006b42:	b289      	uxth	r1, r1
 8006b44:	eb01 4103 	add.w	r1, r1, r3, lsl #16
 8006b48:	4285      	cmp	r5, r0
 8006b4a:	ea4f 4613 	mov.w	r6, r3, lsr #16
 8006b4e:	f84c 1b04 	str.w	r1, [ip], #4
 8006b52:	dcec      	bgt.n	8006b2e <__multadd+0x12>
 8006b54:	b30e      	cbz	r6, 8006b9a <__multadd+0x7e>
 8006b56:	68a3      	ldr	r3, [r4, #8]
 8006b58:	42ab      	cmp	r3, r5
 8006b5a:	dc19      	bgt.n	8006b90 <__multadd+0x74>
 8006b5c:	6861      	ldr	r1, [r4, #4]
 8006b5e:	4638      	mov	r0, r7
 8006b60:	3101      	adds	r1, #1
 8006b62:	f7ff ff7b 	bl	8006a5c <_Balloc>
 8006b66:	4680      	mov	r8, r0
 8006b68:	b928      	cbnz	r0, 8006b76 <__multadd+0x5a>
 8006b6a:	4602      	mov	r2, r0
 8006b6c:	21ba      	movs	r1, #186	@ 0xba
 8006b6e:	4b0c      	ldr	r3, [pc, #48]	@ (8006ba0 <__multadd+0x84>)
 8006b70:	480c      	ldr	r0, [pc, #48]	@ (8006ba4 <__multadd+0x88>)
 8006b72:	f000 fcb1 	bl	80074d8 <__assert_func>
 8006b76:	6922      	ldr	r2, [r4, #16]
 8006b78:	f104 010c 	add.w	r1, r4, #12
 8006b7c:	3202      	adds	r2, #2
 8006b7e:	0092      	lsls	r2, r2, #2
 8006b80:	300c      	adds	r0, #12
 8006b82:	f000 fc9b 	bl	80074bc <memcpy>
 8006b86:	4621      	mov	r1, r4
 8006b88:	4638      	mov	r0, r7
 8006b8a:	f7ff ffa5 	bl	8006ad8 <_Bfree>
 8006b8e:	4644      	mov	r4, r8
 8006b90:	eb04 0385 	add.w	r3, r4, r5, lsl #2
 8006b94:	3501      	adds	r5, #1
 8006b96:	615e      	str	r6, [r3, #20]
 8006b98:	6125      	str	r5, [r4, #16]
 8006b9a:	4620      	mov	r0, r4
 8006b9c:	e8bd 81f0 	ldmia.w	sp!, {r4, r5, r6, r7, r8, pc}
 8006ba0:	08007ea6 	.word	0x08007ea6
 8006ba4:	08007ec8 	.word	0x08007ec8

08006ba8 <__hi0bits>:
 8006ba8:	4603      	mov	r3, r0
 8006baa:	f5b0 3f80 	cmp.w	r0, #65536	@ 0x10000
 8006bae:	bf3a      	itte	cc
 8006bb0:	0403      	lslcc	r3, r0, #16
 8006bb2:	2010      	movcc	r0, #16
 8006bb4:	2000      	movcs	r0, #0
 8006bb6:	f1b3 7f80 	cmp.w	r3, #16777216	@ 0x1000000
 8006bba:	bf3c      	itt	cc
 8006bbc:	021b      	lslcc	r3, r3, #8
 8006bbe:	3008      	addcc	r0, #8
 8006bc0:	f1b3 5f80 	cmp.w	r3, #268435456	@ 0x10000000
 8006bc4:	bf3c      	itt	cc
 8006bc6:	011b      	lslcc	r3, r3, #4
 8006bc8:	3004      	addcc	r0, #4
 8006bca:	f1b3 4f80 	cmp.w	r3, #1073741824	@ 0x40000000
 8006bce:	bf3c      	itt	cc
 8006bd0:	009b      	lslcc	r3, r3, #2
 8006bd2:	3002      	addcc	r0, #2
 8006bd4:	2b00      	cmp	r3, #0
 8006bd6:	db05      	blt.n	8006be4 <__hi0bits+0x3c>
 8006bd8:	f013 4f80 	tst.w	r3, #1073741824	@ 0x40000000
 8006bdc:	f100 0001 	add.w	r0, r0, #1
 8006be0:	bf08      	it	eq
 8006be2:	2020      	moveq	r0, #32
 8006be4:	4770      	bx	lr

08006be6 <__lo0bits>:
 8006be6:	6803      	ldr	r3, [r0, #0]
 8006be8:	4602      	mov	r2, r0
 8006bea:	f013 0007 	ands.w	r0, r3, #7
 8006bee:	d00b      	beq.n	8006c08 <__lo0bits+0x22>
 8006bf0:	07d9      	lsls	r1, r3, #31
 8006bf2:	d421      	bmi.n	8006c38 <__lo0bits+0x52>
 8006bf4:	0798      	lsls	r0, r3, #30
 8006bf6:	bf49      	itett	mi
 8006bf8:	085b      	lsrmi	r3, r3, #1
 8006bfa:	089b      	lsrpl	r3, r3, #2
 8006bfc:	2001      	movmi	r0, #1
 8006bfe:	6013      	strmi	r3, [r2, #0]
 8006c00:	bf5c      	itt	pl
 8006c02:	2002      	movpl	r0, #2
 8006c04:	6013      	strpl	r3, [r2, #0]
 8006c06:	4770      	bx	lr
 8006c08:	b299      	uxth	r1, r3
 8006c0a:	b909      	cbnz	r1, 8006c10 <__lo0bits+0x2a>
 8006c0c:	2010      	movs	r0, #16
 8006c0e:	0c1b      	lsrs	r3, r3, #16
 8006c10:	b2d9      	uxtb	r1, r3
 8006c12:	b909      	cbnz	r1, 8006c18 <__lo0bits+0x32>
 8006c14:	3008      	adds	r0, #8
 8006c16:	0a1b      	lsrs	r3, r3, #8
 8006c18:	0719      	lsls	r1, r3, #28
 8006c1a:	bf04      	itt	eq
 8006c1c:	091b      	lsreq	r3, r3, #4
 8006c1e:	3004      	addeq	r0, #4
 8006c20:	0799      	lsls	r1, r3, #30
 8006c22:	bf04      	itt	eq
 8006c24:	089b      	lsreq	r3, r3, #2
 8006c26:	3002      	addeq	r0, #2
 8006c28:	07d9      	lsls	r1, r3, #31
 8006c2a:	d403      	bmi.n	8006c34 <__lo0bits+0x4e>
 8006c2c:	085b      	lsrs	r3, r3, #1
 8006c2e:	f100 0001 	add.w	r0, r0, #1
 8006c32:	d003      	beq.n	8006c3c <__lo0bits+0x56>
 8006c34:	6013      	str	r3, [r2, #0]
 8006c36:	4770      	bx	lr
 8006c38:	2000      	movs	r0, #0
 8006c3a:	4770      	bx	lr
 8006c3c:	2020      	movs	r0, #32
 8006c3e:	4770      	bx	lr

08006c40 <__i2b>:
 8006c40:	b510      	push	{r4, lr}
 8006c42:	460c      	mov	r4, r1
 8006c44:	2101      	movs	r1, #1
 8006c46:	f7ff ff09 	bl	8006a5c <_Balloc>
 8006c4a:	4602      	mov	r2, r0
 8006c4c:	b928      	cbnz	r0, 8006c5a <__i2b+0x1a>
 8006c4e:	f240 1145 	movw	r1, #325	@ 0x145
 8006c52:	4b04      	ldr	r3, [pc, #16]	@ (8006c64 <__i2b+0x24>)
 8006c54:	4804      	ldr	r0, [pc, #16]	@ (8006c68 <__i2b+0x28>)
 8006c56:	f000 fc3f 	bl	80074d8 <__assert_func>
 8006c5a:	2301      	movs	r3, #1
 8006c5c:	6144      	str	r4, [r0, #20]
 8006c5e:	6103      	str	r3, [r0, #16]
 8006c60:	bd10      	pop	{r4, pc}
 8006c62:	bf00      	nop
 8006c64:	08007ea6 	.word	0x08007ea6
 8006c68:	08007ec8 	.word	0x08007ec8

08006c6c <__multiply>:
 8006c6c:	e92d 4ff0 	stmdb	sp!, {r4, r5, r6, r7, r8, r9, sl, fp, lr}
 8006c70:	f8d1 9010 	ldr.w	r9, [r1, #16]
 8006c74:	f8d2 a010 	ldr.w	sl, [r2, #16]
 8006c78:	4688      	mov	r8, r1
 8006c7a:	45d1      	cmp	r9, sl
 8006c7c:	4614      	mov	r4, r2
 8006c7e:	b085      	sub	sp, #20
 8006c80:	db04      	blt.n	8006c8c <__multiply+0x20>
 8006c82:	4653      	mov	r3, sl
 8006c84:	460c      	mov	r4, r1
 8006c86:	46ca      	mov	sl, r9
 8006c88:	4690      	mov	r8, r2
 8006c8a:	4699      	mov	r9, r3
 8006c8c:	68a3      	ldr	r3, [r4, #8]
 8006c8e:	6861      	ldr	r1, [r4, #4]
 8006c90:	eb0a 0609 	add.w	r6, sl, r9
 8006c94:	42b3      	cmp	r3, r6
 8006c96:	bfb8      	it	lt
 8006c98:	3101      	addlt	r1, #1
 8006c9a:	f7ff fedf 	bl	8006a5c <_Balloc>
 8006c9e:	b930      	cbnz	r0, 8006cae <__multiply+0x42>
 8006ca0:	4602      	mov	r2, r0
 8006ca2:	f44f 71b1 	mov.w	r1, #354	@ 0x162
 8006ca6:	4b43      	ldr	r3, [pc, #268]	@ (8006db4 <__multiply+0x148>)
 8006ca8:	4843      	ldr	r0, [pc, #268]	@ (8006db8 <__multiply+0x14c>)
 8006caa:	f000 fc15 	bl	80074d8 <__assert_func>
 8006cae:	f100 0514 	add.w	r5, r0, #20
 8006cb2:	462b      	mov	r3, r5
 8006cb4:	2200      	movs	r2, #0
 8006cb6:	eb05 0786 	add.w	r7, r5, r6, lsl #2
 8006cba:	42bb      	cmp	r3, r7
 8006cbc:	d31f      	bcc.n	8006cfe <__multiply+0x92>
 8006cbe:	f104 0c14 	add.w	ip, r4, #20
 8006cc2:	f108 0114 	add.w	r1, r8, #20
 8006cc6:	eb0c 038a 	add.w	r3, ip, sl, lsl #2
 8006cca:	eb01 0289 	add.w	r2, r1, r9, lsl #2
 8006cce:	9202      	str	r2, [sp, #8]
 8006cd0:	1b1a      	subs	r2, r3, r4
 8006cd2:	3a15      	subs	r2, #21
 8006cd4:	f022 0203 	bic.w	r2, r2, #3
 8006cd8:	3415      	adds	r4, #21
 8006cda:	429c      	cmp	r4, r3
 8006cdc:	bf88      	it	hi
 8006cde:	2200      	movhi	r2, #0
 8006ce0:	9201      	str	r2, [sp, #4]
 8006ce2:	9a02      	ldr	r2, [sp, #8]
 8006ce4:	9103      	str	r1, [sp, #12]
 8006ce6:	428a      	cmp	r2, r1
 8006ce8:	d80c      	bhi.n	8006d04 <__multiply+0x98>
 8006cea:	2e00      	cmp	r6, #0
 8006cec:	dd03      	ble.n	8006cf6 <__multiply+0x8a>
 8006cee:	f857 3d04 	ldr.w	r3, [r7, #-4]!
 8006cf2:	2b00      	cmp	r3, #0
 8006cf4:	d05c      	beq.n	8006db0 <__multiply+0x144>
 8006cf6:	6106      	str	r6, [r0, #16]
 8006cf8:	b005      	add	sp, #20
 8006cfa:	e8bd 8ff0 	ldmia.w	sp!, {r4, r5, r6, r7, r8, r9, sl, fp, pc}
 8006cfe:	f843 2b04 	str.w	r2, [r3], #4
 8006d02:	e7da      	b.n	8006cba <__multiply+0x4e>
 8006d04:	f8b1 a000 	ldrh.w	sl, [r1]
 8006d08:	f1ba 0f00 	cmp.w	sl, #0
 8006d0c:	d023      	beq.n	8006d56 <__multiply+0xea>
 8006d0e:	46e0      	mov	r8, ip
 8006d10:	46a9      	mov	r9, r5
 8006d12:	f04f 0e00 	mov.w	lr, #0
 8006d16:	f858 2b04 	ldr.w	r2, [r8], #4
 8006d1a:	f8d9 4000 	ldr.w	r4, [r9]
 8006d1e:	fa1f fb82 	uxth.w	fp, r2
 8006d22:	b2a4      	uxth	r4, r4
 8006d24:	fb0a 440b 	mla	r4, sl, fp, r4
 8006d28:	4474      	add	r4, lr
 8006d2a:	f8d9 e000 	ldr.w	lr, [r9]
 8006d2e:	0c12      	lsrs	r2, r2, #16
 8006d30:	ea4f 4e1e 	mov.w	lr, lr, lsr #16
 8006d34:	fb0a e202 	mla	r2, sl, r2, lr
 8006d38:	eb02 4214 	add.w	r2, r2, r4, lsr #16
 8006d3c:	b2a4      	uxth	r4, r4
 8006d3e:	ea44 4402 	orr.w	r4, r4, r2, lsl #16
 8006d42:	4543      	cmp	r3, r8
 8006d44:	ea4f 4e12 	mov.w	lr, r2, lsr #16
 8006d48:	f849 4b04 	str.w	r4, [r9], #4
 8006d4c:	d8e3      	bhi.n	8006d16 <__multiply+0xaa>
 8006d4e:	9a01      	ldr	r2, [sp, #4]
 8006d50:	18aa      	adds	r2, r5, r2
 8006d52:	f8c2 e004 	str.w	lr, [r2, #4]
 8006d56:	9a03      	ldr	r2, [sp, #12]
 8006d58:	3104      	adds	r1, #4
 8006d5a:	f8b2 8002 	ldrh.w	r8, [r2, #2]
 8006d5e:	f1b8 0f00 	cmp.w	r8, #0
 8006d62:	d023      	beq.n	8006dac <__multiply+0x140>
 8006d64:	682a      	ldr	r2, [r5, #0]
 8006d66:	46e6      	mov	lr, ip
 8006d68:	4691      	mov	r9, r2
 8006d6a:	46aa      	mov	sl, r5
 8006d6c:	f04f 0b00 	mov.w	fp, #0
 8006d70:	f8be 4000 	ldrh.w	r4, [lr]
 8006d74:	b292      	uxth	r2, r2
 8006d76:	fb08 b404 	mla	r4, r8, r4, fp
 8006d7a:	eb04 4419 	add.w	r4, r4, r9, lsr #16
 8006d7e:	ea42 4204 	orr.w	r2, r2, r4, lsl #16
 8006d82:	f84a 2b04 	str.w	r2, [sl], #4
 8006d86:	f85e 2b04 	ldr.w	r2, [lr], #4
 8006d8a:	f8da 9000 	ldr.w	r9, [sl]
 8006d8e:	ea4f 4b12 	mov.w	fp, r2, lsr #16
 8006d92:	fa1f f289 	uxth.w	r2, r9
 8006d96:	fb08 220b 	mla	r2, r8, fp, r2
 8006d9a:	4573      	cmp	r3, lr
 8006d9c:	eb02 4214 	add.w	r2, r2, r4, lsr #16
 8006da0:	ea4f 4b12 	mov.w	fp, r2, lsr #16
 8006da4:	d8e4      	bhi.n	8006d70 <__multiply+0x104>
 8006da6:	9c01      	ldr	r4, [sp, #4]
 8006da8:	192c      	adds	r4, r5, r4
 8006daa:	6062      	str	r2, [r4, #4]
 8006dac:	3504      	adds	r5, #4
 8006dae:	e798      	b.n	8006ce2 <__multiply+0x76>
 8006db0:	3e01      	subs	r6, #1
 8006db2:	e79a      	b.n	8006cea <__multiply+0x7e>
 8006db4:	08007ea6 	.word	0x08007ea6
 8006db8:	08007ec8 	.word	0x08007ec8

08006dbc <__pow5mult>:
 8006dbc:	e92d 43f8 	stmdb	sp!, {r3, r4, r5, r6, r7, r8, r9, lr}
 8006dc0:	4617      	mov	r7, r2
 8006dc2:	f012 0203 	ands.w	r2, r2, #3
 8006dc6:	4680      	mov	r8, r0
 8006dc8:	460d      	mov	r5, r1
 8006dca:	d007      	beq.n	8006ddc <__pow5mult+0x20>
 8006dcc:	4c26      	ldr	r4, [pc, #152]	@ (8006e68 <__pow5mult+0xac>)
 8006dce:	3a01      	subs	r2, #1
 8006dd0:	2300      	movs	r3, #0
 8006dd2:	f854 2022 	ldr.w	r2, [r4, r2, lsl #2]
 8006dd6:	f7ff fea1 	bl	8006b1c <__multadd>
 8006dda:	4605      	mov	r5, r0
 8006ddc:	10bf      	asrs	r7, r7, #2
 8006dde:	d03f      	beq.n	8006e60 <__pow5mult+0xa4>
 8006de0:	f8d8 401c 	ldr.w	r4, [r8, #28]
 8006de4:	b994      	cbnz	r4, 8006e0c <__pow5mult+0x50>
 8006de6:	2010      	movs	r0, #16
 8006de8:	f7ff fcdc 	bl	80067a4 <malloc>
 8006dec:	4604      	mov	r4, r0
 8006dee:	f8c8 001c 	str.w	r0, [r8, #28]
 8006df2:	b930      	cbnz	r0, 8006e02 <__pow5mult+0x46>
 8006df4:	4602      	mov	r2, r0
 8006df6:	f240 11b3 	movw	r1, #435	@ 0x1b3
 8006dfa:	4b1c      	ldr	r3, [pc, #112]	@ (8006e6c <__pow5mult+0xb0>)
 8006dfc:	481c      	ldr	r0, [pc, #112]	@ (8006e70 <__pow5mult+0xb4>)
 8006dfe:	f000 fb6b 	bl	80074d8 <__assert_func>
 8006e02:	2300      	movs	r3, #0
 8006e04:	e9c0 3301 	strd	r3, r3, [r0, #4]
 8006e08:	6003      	str	r3, [r0, #0]
 8006e0a:	60c3      	str	r3, [r0, #12]
 8006e0c:	68a6      	ldr	r6, [r4, #8]
 8006e0e:	b946      	cbnz	r6, 8006e22 <__pow5mult+0x66>
 8006e10:	f240 2171 	movw	r1, #625	@ 0x271
 8006e14:	4640      	mov	r0, r8
 8006e16:	f7ff ff13 	bl	8006c40 <__i2b>
 8006e1a:	2300      	movs	r3, #0
 8006e1c:	4606      	mov	r6, r0
 8006e1e:	60a0      	str	r0, [r4, #8]
 8006e20:	6003      	str	r3, [r0, #0]
 8006e22:	462c      	mov	r4, r5
 8006e24:	f04f 0900 	mov.w	r9, #0
 8006e28:	f007 0301 	and.w	r3, r7, #1
 8006e2c:	107f      	asrs	r7, r7, #1
 8006e2e:	b153      	cbz	r3, 8006e46 <__pow5mult+0x8a>
 8006e30:	4629      	mov	r1, r5
 8006e32:	4632      	mov	r2, r6
 8006e34:	4640      	mov	r0, r8
 8006e36:	f7ff ff19 	bl	8006c6c <__multiply>
 8006e3a:	4621      	mov	r1, r4
 8006e3c:	4605      	mov	r5, r0
 8006e3e:	4640      	mov	r0, r8
 8006e40:	f7ff fe4a 	bl	8006ad8 <_Bfree>
 8006e44:	b167      	cbz	r7, 8006e60 <__pow5mult+0xa4>
 8006e46:	6830      	ldr	r0, [r6, #0]
 8006e48:	b938      	cbnz	r0, 8006e5a <__pow5mult+0x9e>
 8006e4a:	4632      	mov	r2, r6
 8006e4c:	4631      	mov	r1, r6
 8006e4e:	4640      	mov	r0, r8
 8006e50:	f7ff ff0c 	bl	8006c6c <__multiply>
 8006e54:	6030      	str	r0, [r6, #0]
 8006e56:	f8c0 9000 	str.w	r9, [r0]
 8006e5a:	4606      	mov	r6, r0
 8006e5c:	462c      	mov	r4, r5
 8006e5e:	e7e3      	b.n	8006e28 <__pow5mult+0x6c>
 8006e60:	4628      	mov	r0, r5
 8006e62:	e8bd 83f8 	ldmia.w	sp!, {r3, r4, r5, r6, r7, r8, r9, pc}
 8006e66:	bf00      	nop
 8006e68:	08007f84 	.word	0x08007f84
 8006e6c:	08007e37 	.word	0x08007e37
 8006e70:	08007ec8 	.word	0x08007ec8

08006e74 <__lshift>:
 8006e74:	e92d 4ff8 	stmdb	sp!, {r3, r4, r5, r6, r7, r8, r9, sl, fp, lr}
 8006e78:	460c      	mov	r4, r1
 8006e7a:	4607      	mov	r7, r0
 8006e7c:	4615      	mov	r5, r2
 8006e7e:	6923      	ldr	r3, [r4, #16]
 8006e80:	6849      	ldr	r1, [r1, #4]
 8006e82:	eb03 1862 	add.w	r8, r3, r2, asr #5
 8006e86:	68a3      	ldr	r3, [r4, #8]
 8006e88:	ea4f 1a62 	mov.w	sl, r2, asr #5
 8006e8c:	f108 0901 	add.w	r9, r8, #1
 8006e90:	454b      	cmp	r3, r9
 8006e92:	db0b      	blt.n	8006eac <__lshift+0x38>
 8006e94:	4638      	mov	r0, r7
 8006e96:	f7ff fde1 	bl	8006a5c <_Balloc>
 8006e9a:	4606      	mov	r6, r0
 8006e9c:	b948      	cbnz	r0, 8006eb2 <__lshift+0x3e>
 8006e9e:	4602      	mov	r2, r0
 8006ea0:	f44f 71ef 	mov.w	r1, #478	@ 0x1de
 8006ea4:	4b27      	ldr	r3, [pc, #156]	@ (8006f44 <__lshift+0xd0>)
 8006ea6:	4828      	ldr	r0, [pc, #160]	@ (8006f48 <__lshift+0xd4>)
 8006ea8:	f000 fb16 	bl	80074d8 <__assert_func>
 8006eac:	3101      	adds	r1, #1
 8006eae:	005b      	lsls	r3, r3, #1
 8006eb0:	e7ee      	b.n	8006e90 <__lshift+0x1c>
 8006eb2:	2300      	movs	r3, #0
 8006eb4:	4619      	mov	r1, r3
 8006eb6:	f100 0c14 	add.w	ip, r0, #20
 8006eba:	f100 0210 	add.w	r2, r0, #16
 8006ebe:	4553      	cmp	r3, sl
 8006ec0:	db34      	blt.n	8006f2c <__lshift+0xb8>
 8006ec2:	6922      	ldr	r2, [r4, #16]
 8006ec4:	ea2a 7aea 	bic.w	sl, sl, sl, asr #31
 8006ec8:	eb0c 0c8a 	add.w	ip, ip, sl, lsl #2
 8006ecc:	f104 0314 	add.w	r3, r4, #20
 8006ed0:	f015 0e1f 	ands.w	lr, r5, #31
 8006ed4:	4661      	mov	r1, ip
 8006ed6:	eb03 0282 	add.w	r2, r3, r2, lsl #2
 8006eda:	d02b      	beq.n	8006f34 <__lshift+0xc0>
 8006edc:	2500      	movs	r5, #0
 8006ede:	f1ce 0a20 	rsb	sl, lr, #32
 8006ee2:	468b      	mov	fp, r1
 8006ee4:	6818      	ldr	r0, [r3, #0]
 8006ee6:	3104      	adds	r1, #4
 8006ee8:	fa00 f00e 	lsl.w	r0, r0, lr
 8006eec:	4328      	orrs	r0, r5
 8006eee:	f8cb 0000 	str.w	r0, [fp]
 8006ef2:	f853 5b04 	ldr.w	r5, [r3], #4
 8006ef6:	429a      	cmp	r2, r3
 8006ef8:	fa25 f50a 	lsr.w	r5, r5, sl
 8006efc:	d8f1      	bhi.n	8006ee2 <__lshift+0x6e>
 8006efe:	1b13      	subs	r3, r2, r4
 8006f00:	3b15      	subs	r3, #21
 8006f02:	f023 0303 	bic.w	r3, r3, #3
 8006f06:	f104 0115 	add.w	r1, r4, #21
 8006f0a:	428a      	cmp	r2, r1
 8006f0c:	bf38      	it	cc
 8006f0e:	2300      	movcc	r3, #0
 8006f10:	449c      	add	ip, r3
 8006f12:	f8cc 5004 	str.w	r5, [ip, #4]
 8006f16:	b905      	cbnz	r5, 8006f1a <__lshift+0xa6>
 8006f18:	46c1      	mov	r9, r8
 8006f1a:	4638      	mov	r0, r7
 8006f1c:	4621      	mov	r1, r4
 8006f1e:	f8c6 9010 	str.w	r9, [r6, #16]
 8006f22:	f7ff fdd9 	bl	8006ad8 <_Bfree>
 8006f26:	4630      	mov	r0, r6
 8006f28:	e8bd 8ff8 	ldmia.w	sp!, {r3, r4, r5, r6, r7, r8, r9, sl, fp, pc}
 8006f2c:	f842 1f04 	str.w	r1, [r2, #4]!
 8006f30:	3301      	adds	r3, #1
 8006f32:	e7c4      	b.n	8006ebe <__lshift+0x4a>
 8006f34:	f853 5b04 	ldr.w	r5, [r3], #4
 8006f38:	3104      	adds	r1, #4
 8006f3a:	429a      	cmp	r2, r3
 8006f3c:	f841 5c04 	str.w	r5, [r1, #-4]
 8006f40:	d8f8      	bhi.n	8006f34 <__lshift+0xc0>
 8006f42:	e7e9      	b.n	8006f18 <__lshift+0xa4>
 8006f44:	08007ea6 	.word	0x08007ea6
 8006f48:	08007ec8 	.word	0x08007ec8

08006f4c <__mcmp>:
 8006f4c:	4603      	mov	r3, r0
 8006f4e:	690a      	ldr	r2, [r1, #16]
 8006f50:	6900      	ldr	r0, [r0, #16]
 8006f52:	b530      	push	{r4, r5, lr}
 8006f54:	1a80      	subs	r0, r0, r2
 8006f56:	d10e      	bne.n	8006f76 <__mcmp+0x2a>
 8006f58:	3314      	adds	r3, #20
 8006f5a:	3114      	adds	r1, #20
 8006f5c:	eb03 0482 	add.w	r4, r3, r2, lsl #2
 8006f60:	eb01 0182 	add.w	r1, r1, r2, lsl #2
 8006f64:	f854 5d04 	ldr.w	r5, [r4, #-4]!
 8006f68:	f851 2d04 	ldr.w	r2, [r1, #-4]!
 8006f6c:	4295      	cmp	r5, r2
 8006f6e:	d003      	beq.n	8006f78 <__mcmp+0x2c>
 8006f70:	d205      	bcs.n	8006f7e <__mcmp+0x32>
 8006f72:	f04f 30ff 	mov.w	r0, #4294967295	@ 0xffffffff
 8006f76:	bd30      	pop	{r4, r5, pc}
 8006f78:	42a3      	cmp	r3, r4
 8006f7a:	d3f3      	bcc.n	8006f64 <__mcmp+0x18>
 8006f7c:	e7fb      	b.n	8006f76 <__mcmp+0x2a>
 8006f7e:	2001      	movs	r0, #1
 8006f80:	e7f9      	b.n	8006f76 <__mcmp+0x2a>
	...

08006f84 <__mdiff>:
 8006f84:	e92d 4ff7 	stmdb	sp!, {r0, r1, r2, r4, r5, r6, r7, r8, r9, sl, fp, lr}
 8006f88:	468a      	mov	sl, r1
 8006f8a:	4606      	mov	r6, r0
 8006f8c:	4611      	mov	r1, r2
 8006f8e:	4650      	mov	r0, sl
 8006f90:	4614      	mov	r4, r2
 8006f92:	f7ff ffdb 	bl	8006f4c <__mcmp>
 8006f96:	1e05      	subs	r5, r0, #0
 8006f98:	d112      	bne.n	8006fc0 <__mdiff+0x3c>
 8006f9a:	4629      	mov	r1, r5
 8006f9c:	4630      	mov	r0, r6
 8006f9e:	f7ff fd5d 	bl	8006a5c <_Balloc>
 8006fa2:	4602      	mov	r2, r0
 8006fa4:	b928      	cbnz	r0, 8006fb2 <__mdiff+0x2e>
 8006fa6:	f240 2137 	movw	r1, #567	@ 0x237
 8006faa:	4b40      	ldr	r3, [pc, #256]	@ (80070ac <__mdiff+0x128>)
 8006fac:	4840      	ldr	r0, [pc, #256]	@ (80070b0 <__mdiff+0x12c>)
 8006fae:	f000 fa93 	bl	80074d8 <__assert_func>
 8006fb2:	2301      	movs	r3, #1
 8006fb4:	e9c0 3504 	strd	r3, r5, [r0, #16]
 8006fb8:	4610      	mov	r0, r2
 8006fba:	b003      	add	sp, #12
 8006fbc:	e8bd 8ff0 	ldmia.w	sp!, {r4, r5, r6, r7, r8, r9, sl, fp, pc}
 8006fc0:	bfbc      	itt	lt
 8006fc2:	4653      	movlt	r3, sl
 8006fc4:	46a2      	movlt	sl, r4
 8006fc6:	4630      	mov	r0, r6
 8006fc8:	f8da 1004 	ldr.w	r1, [sl, #4]
 8006fcc:	bfba      	itte	lt
 8006fce:	461c      	movlt	r4, r3
 8006fd0:	2501      	movlt	r5, #1
 8006fd2:	2500      	movge	r5, #0
 8006fd4:	f7ff fd42 	bl	8006a5c <_Balloc>
 8006fd8:	4602      	mov	r2, r0
 8006fda:	b918      	cbnz	r0, 8006fe4 <__mdiff+0x60>
 8006fdc:	f240 2145 	movw	r1, #581	@ 0x245
 8006fe0:	4b32      	ldr	r3, [pc, #200]	@ (80070ac <__mdiff+0x128>)
 8006fe2:	e7e3      	b.n	8006fac <__mdiff+0x28>
 8006fe4:	60c5      	str	r5, [r0, #12]
 8006fe6:	f100 0514 	add.w	r5, r0, #20
 8006fea:	46ab      	mov	fp, r5
 8006fec:	f04f 0c00 	mov.w	ip, #0
 8006ff0:	f8da 7010 	ldr.w	r7, [sl, #16]
 8006ff4:	6926      	ldr	r6, [r4, #16]
 8006ff6:	f10a 0914 	add.w	r9, sl, #20
 8006ffa:	f104 0e14 	add.w	lr, r4, #20
 8006ffe:	f10a 0310 	add.w	r3, sl, #16
 8007002:	eb09 0887 	add.w	r8, r9, r7, lsl #2
 8007006:	eb0e 0686 	add.w	r6, lr, r6, lsl #2
 800700a:	9301      	str	r3, [sp, #4]
 800700c:	9b01      	ldr	r3, [sp, #4]
 800700e:	f85e 0b04 	ldr.w	r0, [lr], #4
 8007012:	f853 af04 	ldr.w	sl, [r3, #4]!
 8007016:	b281      	uxth	r1, r0
 8007018:	9301      	str	r3, [sp, #4]
 800701a:	fa1f f38a 	uxth.w	r3, sl
 800701e:	1a5b      	subs	r3, r3, r1
 8007020:	0c00      	lsrs	r0, r0, #16
 8007022:	4463      	add	r3, ip
 8007024:	ebc0 401a 	rsb	r0, r0, sl, lsr #16
 8007028:	eb00 4023 	add.w	r0, r0, r3, asr #16
 800702c:	b29b      	uxth	r3, r3
 800702e:	ea43 4300 	orr.w	r3, r3, r0, lsl #16
 8007032:	4576      	cmp	r6, lr
 8007034:	ea4f 4c20 	mov.w	ip, r0, asr #16
 8007038:	f84b 3b04 	str.w	r3, [fp], #4
 800703c:	d8e6      	bhi.n	800700c <__mdiff+0x88>
 800703e:	1b33      	subs	r3, r6, r4
 8007040:	3b15      	subs	r3, #21
 8007042:	3415      	adds	r4, #21
 8007044:	f023 0303 	bic.w	r3, r3, #3
 8007048:	42a6      	cmp	r6, r4
 800704a:	bf38      	it	cc
 800704c:	2300      	movcc	r3, #0
 800704e:	18e8      	adds	r0, r5, r3
 8007050:	444b      	add	r3, r9
 8007052:	1d1c      	adds	r4, r3, #4
 8007054:	4626      	mov	r6, r4
 8007056:	3004      	adds	r0, #4
 8007058:	eba5 0509 	sub.w	r5, r5, r9
 800705c:	4546      	cmp	r6, r8
 800705e:	eb06 0e05 	add.w	lr, r6, r5
 8007062:	d30e      	bcc.n	8007082 <__mdiff+0xfe>
 8007064:	f108 0103 	add.w	r1, r8, #3
 8007068:	1b09      	subs	r1, r1, r4
 800706a:	f021 0103 	bic.w	r1, r1, #3
 800706e:	3301      	adds	r3, #1
 8007070:	4598      	cmp	r8, r3
 8007072:	bf38      	it	cc
 8007074:	2100      	movcc	r1, #0
 8007076:	4401      	add	r1, r0
 8007078:	f851 3d04 	ldr.w	r3, [r1, #-4]!
 800707c:	b1a3      	cbz	r3, 80070a8 <__mdiff+0x124>
 800707e:	6117      	str	r7, [r2, #16]
 8007080:	e79a      	b.n	8006fb8 <__mdiff+0x34>
 8007082:	46e2      	mov	sl, ip
 8007084:	f856 1b04 	ldr.w	r1, [r6], #4
 8007088:	fa1f fc81 	uxth.w	ip, r1
 800708c:	44d4      	add	ip, sl
 800708e:	ea4f 4911 	mov.w	r9, r1, lsr #16
 8007092:	4451      	add	r1, sl
 8007094:	eb09 492c 	add.w	r9, r9, ip, asr #16
 8007098:	b289      	uxth	r1, r1
 800709a:	ea41 4109 	orr.w	r1, r1, r9, lsl #16
 800709e:	ea4f 4c29 	mov.w	ip, r9, asr #16
 80070a2:	f8ce 1000 	str.w	r1, [lr]
 80070a6:	e7d9      	b.n	800705c <__mdiff+0xd8>
 80070a8:	3f01      	subs	r7, #1
 80070aa:	e7e5      	b.n	8007078 <__mdiff+0xf4>
 80070ac:	08007ea6 	.word	0x08007ea6
 80070b0:	08007ec8 	.word	0x08007ec8

080070b4 <__d2b>:
 80070b4:	e92d 4373 	stmdb	sp!, {r0, r1, r4, r5, r6, r8, r9, lr}
 80070b8:	2101      	movs	r1, #1
 80070ba:	4690      	mov	r8, r2
 80070bc:	4699      	mov	r9, r3
 80070be:	9e08      	ldr	r6, [sp, #32]
 80070c0:	f7ff fccc 	bl	8006a5c <_Balloc>
 80070c4:	4604      	mov	r4, r0
 80070c6:	b930      	cbnz	r0, 80070d6 <__d2b+0x22>
 80070c8:	4602      	mov	r2, r0
 80070ca:	f240 310f 	movw	r1, #783	@ 0x30f
 80070ce:	4b23      	ldr	r3, [pc, #140]	@ (800715c <__d2b+0xa8>)
 80070d0:	4823      	ldr	r0, [pc, #140]	@ (8007160 <__d2b+0xac>)
 80070d2:	f000 fa01 	bl	80074d8 <__assert_func>
 80070d6:	f3c9 550a 	ubfx	r5, r9, #20, #11
 80070da:	f3c9 0313 	ubfx	r3, r9, #0, #20
 80070de:	b10d      	cbz	r5, 80070e4 <__d2b+0x30>
 80070e0:	f443 1380 	orr.w	r3, r3, #1048576	@ 0x100000
 80070e4:	9301      	str	r3, [sp, #4]
 80070e6:	f1b8 0300 	subs.w	r3, r8, #0
 80070ea:	d024      	beq.n	8007136 <__d2b+0x82>
 80070ec:	4668      	mov	r0, sp
 80070ee:	9300      	str	r3, [sp, #0]
 80070f0:	f7ff fd79 	bl	8006be6 <__lo0bits>
 80070f4:	9900      	ldr	r1, [sp, #0]
 80070f6:	b1e0      	cbz	r0, 8007132 <__d2b+0x7e>
 80070f8:	9a01      	ldr	r2, [sp, #4]
 80070fa:	f1c0 0320 	rsb	r3, r0, #32
 80070fe:	fa02 f303 	lsl.w	r3, r2, r3
 8007102:	430b      	orrs	r3, r1
 8007104:	40c2      	lsrs	r2, r0
 8007106:	6163      	str	r3, [r4, #20]
 8007108:	9201      	str	r2, [sp, #4]
 800710a:	9b01      	ldr	r3, [sp, #4]
 800710c:	2b00      	cmp	r3, #0
 800710e:	bf0c      	ite	eq
 8007110:	2201      	moveq	r2, #1
 8007112:	2202      	movne	r2, #2
 8007114:	61a3      	str	r3, [r4, #24]
 8007116:	6122      	str	r2, [r4, #16]
 8007118:	b1ad      	cbz	r5, 8007146 <__d2b+0x92>
 800711a:	f2a5 4533 	subw	r5, r5, #1075	@ 0x433
 800711e:	4405      	add	r5, r0
 8007120:	6035      	str	r5, [r6, #0]
 8007122:	f1c0 0035 	rsb	r0, r0, #53	@ 0x35
 8007126:	9b09      	ldr	r3, [sp, #36]	@ 0x24
 8007128:	6018      	str	r0, [r3, #0]
 800712a:	4620      	mov	r0, r4
 800712c:	b002      	add	sp, #8
 800712e:	e8bd 8370 	ldmia.w	sp!, {r4, r5, r6, r8, r9, pc}
 8007132:	6161      	str	r1, [r4, #20]
 8007134:	e7e9      	b.n	800710a <__d2b+0x56>
 8007136:	a801      	add	r0, sp, #4
 8007138:	f7ff fd55 	bl	8006be6 <__lo0bits>
 800713c:	9b01      	ldr	r3, [sp, #4]
 800713e:	2201      	movs	r2, #1
 8007140:	6163      	str	r3, [r4, #20]
 8007142:	3020      	adds	r0, #32
 8007144:	e7e7      	b.n	8007116 <__d2b+0x62>
 8007146:	f2a0 4032 	subw	r0, r0, #1074	@ 0x432
 800714a:	eb04 0382 	add.w	r3, r4, r2, lsl #2
 800714e:	6030      	str	r0, [r6, #0]
 8007150:	6918      	ldr	r0, [r3, #16]
 8007152:	f7ff fd29 	bl	8006ba8 <__hi0bits>
 8007156:	ebc0 1042 	rsb	r0, r0, r2, lsl #5
 800715a:	e7e4      	b.n	8007126 <__d2b+0x72>
 800715c:	08007ea6 	.word	0x08007ea6
 8007160:	08007ec8 	.word	0x08007ec8

08007164 <__sread>:
 8007164:	b510      	push	{r4, lr}
 8007166:	460c      	mov	r4, r1
 8007168:	f9b1 100e 	ldrsh.w	r1, [r1, #14]
 800716c:	f000 f950 	bl	8007410 <_read_r>
 8007170:	2800      	cmp	r0, #0
 8007172:	bfab      	itete	ge
 8007174:	6d63      	ldrge	r3, [r4, #84]	@ 0x54
 8007176:	89a3      	ldrhlt	r3, [r4, #12]
 8007178:	181b      	addge	r3, r3, r0
 800717a:	f423 5380 	biclt.w	r3, r3, #4096	@ 0x1000
 800717e:	bfac      	ite	ge
 8007180:	6563      	strge	r3, [r4, #84]	@ 0x54
 8007182:	81a3      	strhlt	r3, [r4, #12]
 8007184:	bd10      	pop	{r4, pc}

08007186 <__swrite>:
 8007186:	e92d 41f0 	stmdb	sp!, {r4, r5, r6, r7, r8, lr}
 800718a:	461f      	mov	r7, r3
 800718c:	898b      	ldrh	r3, [r1, #12]
 800718e:	4605      	mov	r5, r0
 8007190:	05db      	lsls	r3, r3, #23
 8007192:	460c      	mov	r4, r1
 8007194:	4616      	mov	r6, r2
 8007196:	d505      	bpl.n	80071a4 <__swrite+0x1e>
 8007198:	2302      	movs	r3, #2
 800719a:	2200      	movs	r2, #0
 800719c:	f9b1 100e 	ldrsh.w	r1, [r1, #14]
 80071a0:	f000 f924 	bl	80073ec <_lseek_r>
 80071a4:	89a3      	ldrh	r3, [r4, #12]
 80071a6:	4632      	mov	r2, r6
 80071a8:	f423 5380 	bic.w	r3, r3, #4096	@ 0x1000
 80071ac:	81a3      	strh	r3, [r4, #12]
 80071ae:	4628      	mov	r0, r5
 80071b0:	463b      	mov	r3, r7
 80071b2:	f9b4 100e 	ldrsh.w	r1, [r4, #14]
 80071b6:	e8bd 41f0 	ldmia.w	sp!, {r4, r5, r6, r7, r8, lr}
 80071ba:	f000 b94b 	b.w	8007454 <_write_r>

080071be <__sseek>:
 80071be:	b510      	push	{r4, lr}
 80071c0:	460c      	mov	r4, r1
 80071c2:	f9b1 100e 	ldrsh.w	r1, [r1, #14]
 80071c6:	f000 f911 	bl	80073ec <_lseek_r>
 80071ca:	f9b4 300c 	ldrsh.w	r3, [r4, #12]
 80071ce:	1c42      	adds	r2, r0, #1
 80071d0:	bf0b      	itete	eq
 80071d2:	f423 5380 	biceq.w	r3, r3, #4096	@ 0x1000
 80071d6:	f443 5380 	orrne.w	r3, r3, #4096	@ 0x1000
 80071da:	81a3      	strheq	r3, [r4, #12]
 80071dc:	81a3      	strhne	r3, [r4, #12]
 80071de:	bf18      	it	ne
 80071e0:	6560      	strne	r0, [r4, #84]	@ 0x54
 80071e2:	bd10      	pop	{r4, pc}

080071e4 <__sclose>:
 80071e4:	f9b1 100e 	ldrsh.w	r1, [r1, #14]
 80071e8:	f000 b946 	b.w	8007478 <_close_r>

080071ec <__swbuf_r>:
 80071ec:	b5f8      	push	{r3, r4, r5, r6, r7, lr}
 80071ee:	460e      	mov	r6, r1
 80071f0:	4614      	mov	r4, r2
 80071f2:	4605      	mov	r5, r0
 80071f4:	b118      	cbz	r0, 80071fe <__swbuf_r+0x12>
 80071f6:	6a03      	ldr	r3, [r0, #32]
 80071f8:	b90b      	cbnz	r3, 80071fe <__swbuf_r+0x12>
 80071fa:	f7fe fa99 	bl	8005730 <__sinit>
 80071fe:	69a3      	ldr	r3, [r4, #24]
 8007200:	60a3      	str	r3, [r4, #8]
 8007202:	89a3      	ldrh	r3, [r4, #12]
 8007204:	071a      	lsls	r2, r3, #28
 8007206:	d501      	bpl.n	800720c <__swbuf_r+0x20>
 8007208:	6923      	ldr	r3, [r4, #16]
 800720a:	b943      	cbnz	r3, 800721e <__swbuf_r+0x32>
 800720c:	4621      	mov	r1, r4
 800720e:	4628      	mov	r0, r5
 8007210:	f000 f82a 	bl	8007268 <__swsetup_r>
 8007214:	b118      	cbz	r0, 800721e <__swbuf_r+0x32>
 8007216:	f04f 37ff 	mov.w	r7, #4294967295	@ 0xffffffff
 800721a:	4638      	mov	r0, r7
 800721c:	bdf8      	pop	{r3, r4, r5, r6, r7, pc}
 800721e:	6823      	ldr	r3, [r4, #0]
 8007220:	6922      	ldr	r2, [r4, #16]
 8007222:	b2f6      	uxtb	r6, r6
 8007224:	1a98      	subs	r0, r3, r2
 8007226:	6963      	ldr	r3, [r4, #20]
 8007228:	4637      	mov	r7, r6
 800722a:	4283      	cmp	r3, r0
 800722c:	dc05      	bgt.n	800723a <__swbuf_r+0x4e>
 800722e:	4621      	mov	r1, r4
 8007230:	4628      	mov	r0, r5
 8007232:	f7ff fbdf 	bl	80069f4 <_fflush_r>
 8007236:	2800      	cmp	r0, #0
 8007238:	d1ed      	bne.n	8007216 <__swbuf_r+0x2a>
 800723a:	68a3      	ldr	r3, [r4, #8]
 800723c:	3b01      	subs	r3, #1
 800723e:	60a3      	str	r3, [r4, #8]
 8007240:	6823      	ldr	r3, [r4, #0]
 8007242:	1c5a      	adds	r2, r3, #1
 8007244:	6022      	str	r2, [r4, #0]
 8007246:	701e      	strb	r6, [r3, #0]
 8007248:	6962      	ldr	r2, [r4, #20]
 800724a:	1c43      	adds	r3, r0, #1
 800724c:	429a      	cmp	r2, r3
 800724e:	d004      	beq.n	800725a <__swbuf_r+0x6e>
 8007250:	89a3      	ldrh	r3, [r4, #12]
 8007252:	07db      	lsls	r3, r3, #31
 8007254:	d5e1      	bpl.n	800721a <__swbuf_r+0x2e>
 8007256:	2e0a      	cmp	r6, #10
 8007258:	d1df      	bne.n	800721a <__swbuf_r+0x2e>
 800725a:	4621      	mov	r1, r4
 800725c:	4628      	mov	r0, r5
 800725e:	f7ff fbc9 	bl	80069f4 <_fflush_r>
 8007262:	2800      	cmp	r0, #0
 8007264:	d0d9      	beq.n	800721a <__swbuf_r+0x2e>
 8007266:	e7d6      	b.n	8007216 <__swbuf_r+0x2a>

08007268 <__swsetup_r>:
 8007268:	b538      	push	{r3, r4, r5, lr}
 800726a:	4b28      	ldr	r3, [pc, #160]	@ (800730c <__swsetup_r+0xa4>)
 800726c:	4605      	mov	r5, r0
 800726e:	6818      	ldr	r0, [r3, #0]
 8007270:	460c      	mov	r4, r1
 8007272:	b118      	cbz	r0, 800727c <__swsetup_r+0x14>
 8007274:	6a03      	ldr	r3, [r0, #32]
 8007276:	b90b      	cbnz	r3, 800727c <__swsetup_r+0x14>
 8007278:	f7fe fa5a 	bl	8005730 <__sinit>
 800727c:	f9b4 300c 	ldrsh.w	r3, [r4, #12]
 8007280:	071a      	lsls	r2, r3, #28
 8007282:	d421      	bmi.n	80072c8 <__swsetup_r+0x60>
 8007284:	06d8      	lsls	r0, r3, #27
 8007286:	d407      	bmi.n	8007298 <__swsetup_r+0x30>
 8007288:	2209      	movs	r2, #9
 800728a:	602a      	str	r2, [r5, #0]
 800728c:	f043 0340 	orr.w	r3, r3, #64	@ 0x40
 8007290:	f04f 30ff 	mov.w	r0, #4294967295	@ 0xffffffff
 8007294:	81a3      	strh	r3, [r4, #12]
 8007296:	e030      	b.n	80072fa <__swsetup_r+0x92>
 8007298:	0759      	lsls	r1, r3, #29
 800729a:	d512      	bpl.n	80072c2 <__swsetup_r+0x5a>
 800729c:	6b61      	ldr	r1, [r4, #52]	@ 0x34
 800729e:	b141      	cbz	r1, 80072b2 <__swsetup_r+0x4a>
 80072a0:	f104 0344 	add.w	r3, r4, #68	@ 0x44
 80072a4:	4299      	cmp	r1, r3
 80072a6:	d002      	beq.n	80072ae <__swsetup_r+0x46>
 80072a8:	4628      	mov	r0, r5
 80072aa:	f000 f947 	bl	800753c <_free_r>
 80072ae:	2300      	movs	r3, #0
 80072b0:	6363      	str	r3, [r4, #52]	@ 0x34
 80072b2:	2200      	movs	r2, #0
 80072b4:	f9b4 300c 	ldrsh.w	r3, [r4, #12]
 80072b8:	6062      	str	r2, [r4, #4]
 80072ba:	6922      	ldr	r2, [r4, #16]
 80072bc:	f023 0324 	bic.w	r3, r3, #36	@ 0x24
 80072c0:	6022      	str	r2, [r4, #0]
 80072c2:	f043 0308 	orr.w	r3, r3, #8
 80072c6:	81a3      	strh	r3, [r4, #12]
 80072c8:	6922      	ldr	r2, [r4, #16]
 80072ca:	b93a      	cbnz	r2, 80072dc <__swsetup_r+0x74>
 80072cc:	059a      	lsls	r2, r3, #22
 80072ce:	d501      	bpl.n	80072d4 <__swsetup_r+0x6c>
 80072d0:	0618      	lsls	r0, r3, #24
 80072d2:	d503      	bpl.n	80072dc <__swsetup_r+0x74>
 80072d4:	4621      	mov	r1, r4
 80072d6:	4628      	mov	r0, r5
 80072d8:	f000 f83e 	bl	8007358 <__smakebuf_r>
 80072dc:	f9b4 300c 	ldrsh.w	r3, [r4, #12]
 80072e0:	f013 0201 	ands.w	r2, r3, #1
 80072e4:	d00a      	beq.n	80072fc <__swsetup_r+0x94>
 80072e6:	2200      	movs	r2, #0
 80072e8:	60a2      	str	r2, [r4, #8]
 80072ea:	6962      	ldr	r2, [r4, #20]
 80072ec:	4252      	negs	r2, r2
 80072ee:	61a2      	str	r2, [r4, #24]
 80072f0:	6922      	ldr	r2, [r4, #16]
 80072f2:	b942      	cbnz	r2, 8007306 <__swsetup_r+0x9e>
 80072f4:	f013 0080 	ands.w	r0, r3, #128	@ 0x80
 80072f8:	d1c8      	bne.n	800728c <__swsetup_r+0x24>
 80072fa:	bd38      	pop	{r3, r4, r5, pc}
 80072fc:	0799      	lsls	r1, r3, #30
 80072fe:	bf58      	it	pl
 8007300:	6962      	ldrpl	r2, [r4, #20]
 8007302:	60a2      	str	r2, [r4, #8]
 8007304:	e7f4      	b.n	80072f0 <__swsetup_r+0x88>
 8007306:	2000      	movs	r0, #0
 8007308:	e7f7      	b.n	80072fa <__swsetup_r+0x92>
 800730a:	bf00      	nop
 800730c:	20000018 	.word	0x20000018

08007310 <__swhatbuf_r>:
 8007310:	b570      	push	{r4, r5, r6, lr}
 8007312:	460c      	mov	r4, r1
 8007314:	f9b1 100e 	ldrsh.w	r1, [r1, #14]
 8007318:	4615      	mov	r5, r2
 800731a:	2900      	cmp	r1, #0
 800731c:	461e      	mov	r6, r3
 800731e:	b096      	sub	sp, #88	@ 0x58
 8007320:	da0a      	bge.n	8007338 <__swhatbuf_r+0x28>
 8007322:	89a1      	ldrh	r1, [r4, #12]
 8007324:	f011 0180 	ands.w	r1, r1, #128	@ 0x80
 8007328:	d113      	bne.n	8007352 <__swhatbuf_r+0x42>
 800732a:	f44f 6280 	mov.w	r2, #1024	@ 0x400
 800732e:	2000      	movs	r0, #0
 8007330:	6031      	str	r1, [r6, #0]
 8007332:	602a      	str	r2, [r5, #0]
 8007334:	b016      	add	sp, #88	@ 0x58
 8007336:	bd70      	pop	{r4, r5, r6, pc}
 8007338:	466a      	mov	r2, sp
 800733a:	f000 f8ad 	bl	8007498 <_fstat_r>
 800733e:	2800      	cmp	r0, #0
 8007340:	dbef      	blt.n	8007322 <__swhatbuf_r+0x12>
 8007342:	9901      	ldr	r1, [sp, #4]
 8007344:	f401 4170 	and.w	r1, r1, #61440	@ 0xf000
 8007348:	f5a1 5300 	sub.w	r3, r1, #8192	@ 0x2000
 800734c:	4259      	negs	r1, r3
 800734e:	4159      	adcs	r1, r3
 8007350:	e7eb      	b.n	800732a <__swhatbuf_r+0x1a>
 8007352:	2100      	movs	r1, #0
 8007354:	2240      	movs	r2, #64	@ 0x40
 8007356:	e7ea      	b.n	800732e <__swhatbuf_r+0x1e>

08007358 <__smakebuf_r>:
 8007358:	898b      	ldrh	r3, [r1, #12]
 800735a:	b573      	push	{r0, r1, r4, r5, r6, lr}
 800735c:	079e      	lsls	r6, r3, #30
 800735e:	4605      	mov	r5, r0
 8007360:	460c      	mov	r4, r1
 8007362:	d507      	bpl.n	8007374 <__smakebuf_r+0x1c>
 8007364:	f104 0347 	add.w	r3, r4, #71	@ 0x47
 8007368:	6023      	str	r3, [r4, #0]
 800736a:	6123      	str	r3, [r4, #16]
 800736c:	2301      	movs	r3, #1
 800736e:	6163      	str	r3, [r4, #20]
 8007370:	b002      	add	sp, #8
 8007372:	bd70      	pop	{r4, r5, r6, pc}
 8007374:	ab01      	add	r3, sp, #4
 8007376:	466a      	mov	r2, sp
 8007378:	f7ff ffca 	bl	8007310 <__swhatbuf_r>
 800737c:	9e00      	ldr	r6, [sp, #0]
 800737e:	4628      	mov	r0, r5
 8007380:	4631      	mov	r1, r6
 8007382:	f7ff fa39 	bl	80067f8 <_malloc_r>
 8007386:	f9b4 300c 	ldrsh.w	r3, [r4, #12]
 800738a:	b938      	cbnz	r0, 800739c <__smakebuf_r+0x44>
 800738c:	059a      	lsls	r2, r3, #22
 800738e:	d4ef      	bmi.n	8007370 <__smakebuf_r+0x18>
 8007390:	f023 0303 	bic.w	r3, r3, #3
 8007394:	f043 0302 	orr.w	r3, r3, #2
 8007398:	81a3      	strh	r3, [r4, #12]
 800739a:	e7e3      	b.n	8007364 <__smakebuf_r+0xc>
 800739c:	f043 0380 	orr.w	r3, r3, #128	@ 0x80
 80073a0:	81a3      	strh	r3, [r4, #12]
 80073a2:	9b01      	ldr	r3, [sp, #4]
 80073a4:	e9c4 0604 	strd	r0, r6, [r4, #16]
 80073a8:	6020      	str	r0, [r4, #0]
 80073aa:	2b00      	cmp	r3, #0
 80073ac:	d0e0      	beq.n	8007370 <__smakebuf_r+0x18>
 80073ae:	4628      	mov	r0, r5
 80073b0:	f9b4 100e 	ldrsh.w	r1, [r4, #14]
 80073b4:	f000 f80a 	bl	80073cc <_isatty_r>
 80073b8:	2800      	cmp	r0, #0
 80073ba:	d0d9      	beq.n	8007370 <__smakebuf_r+0x18>
 80073bc:	89a3      	ldrh	r3, [r4, #12]
 80073be:	f023 0303 	bic.w	r3, r3, #3
 80073c2:	f043 0301 	orr.w	r3, r3, #1
 80073c6:	81a3      	strh	r3, [r4, #12]
 80073c8:	e7d2      	b.n	8007370 <__smakebuf_r+0x18>
	...

080073cc <_isatty_r>:
 80073cc:	b538      	push	{r3, r4, r5, lr}
 80073ce:	2300      	movs	r3, #0
 80073d0:	4d05      	ldr	r5, [pc, #20]	@ (80073e8 <_isatty_r+0x1c>)
 80073d2:	4604      	mov	r4, r0
 80073d4:	4608      	mov	r0, r1
 80073d6:	602b      	str	r3, [r5, #0]
 80073d8:	f000 fc28 	bl	8007c2c <_isatty>
 80073dc:	1c43      	adds	r3, r0, #1
 80073de:	d102      	bne.n	80073e6 <_isatty_r+0x1a>
 80073e0:	682b      	ldr	r3, [r5, #0]
 80073e2:	b103      	cbz	r3, 80073e6 <_isatty_r+0x1a>
 80073e4:	6023      	str	r3, [r4, #0]
 80073e6:	bd38      	pop	{r3, r4, r5, pc}
 80073e8:	200004ac 	.word	0x200004ac

080073ec <_lseek_r>:
 80073ec:	b538      	push	{r3, r4, r5, lr}
 80073ee:	4604      	mov	r4, r0
 80073f0:	4608      	mov	r0, r1
 80073f2:	4611      	mov	r1, r2
 80073f4:	2200      	movs	r2, #0
 80073f6:	4d05      	ldr	r5, [pc, #20]	@ (800740c <_lseek_r+0x20>)
 80073f8:	602a      	str	r2, [r5, #0]
 80073fa:	461a      	mov	r2, r3
 80073fc:	f000 fa1f 	bl	800783e <_lseek>
 8007400:	1c43      	adds	r3, r0, #1
 8007402:	d102      	bne.n	800740a <_lseek_r+0x1e>
 8007404:	682b      	ldr	r3, [r5, #0]
 8007406:	b103      	cbz	r3, 800740a <_lseek_r+0x1e>
 8007408:	6023      	str	r3, [r4, #0]
 800740a:	bd38      	pop	{r3, r4, r5, pc}
 800740c:	200004ac 	.word	0x200004ac

08007410 <_read_r>:
 8007410:	b538      	push	{r3, r4, r5, lr}
 8007412:	4604      	mov	r4, r0
 8007414:	4608      	mov	r0, r1
 8007416:	4611      	mov	r1, r2
 8007418:	2200      	movs	r2, #0
 800741a:	4d05      	ldr	r5, [pc, #20]	@ (8007430 <_read_r+0x20>)
 800741c:	602a      	str	r2, [r5, #0]
 800741e:	461a      	mov	r2, r3
 8007420:	f000 f9b7 	bl	8007792 <_read>
 8007424:	1c43      	adds	r3, r0, #1
 8007426:	d102      	bne.n	800742e <_read_r+0x1e>
 8007428:	682b      	ldr	r3, [r5, #0]
 800742a:	b103      	cbz	r3, 800742e <_read_r+0x1e>
 800742c:	6023      	str	r3, [r4, #0]
 800742e:	bd38      	pop	{r3, r4, r5, pc}
 8007430:	200004ac 	.word	0x200004ac

08007434 <_sbrk_r>:
 8007434:	b538      	push	{r3, r4, r5, lr}
 8007436:	2300      	movs	r3, #0
 8007438:	4d05      	ldr	r5, [pc, #20]	@ (8007450 <_sbrk_r+0x1c>)
 800743a:	4604      	mov	r4, r0
 800743c:	4608      	mov	r0, r1
 800743e:	602b      	str	r3, [r5, #0]
 8007440:	f7fa fdc6 	bl	8001fd0 <_sbrk>
 8007444:	1c43      	adds	r3, r0, #1
 8007446:	d102      	bne.n	800744e <_sbrk_r+0x1a>
 8007448:	682b      	ldr	r3, [r5, #0]
 800744a:	b103      	cbz	r3, 800744e <_sbrk_r+0x1a>
 800744c:	6023      	str	r3, [r4, #0]
 800744e:	bd38      	pop	{r3, r4, r5, pc}
 8007450:	200004ac 	.word	0x200004ac

08007454 <_write_r>:
 8007454:	b538      	push	{r3, r4, r5, lr}
 8007456:	4604      	mov	r4, r0
 8007458:	4608      	mov	r0, r1
 800745a:	4611      	mov	r1, r2
 800745c:	2200      	movs	r2, #0
 800745e:	4d05      	ldr	r5, [pc, #20]	@ (8007474 <_write_r+0x20>)
 8007460:	602a      	str	r2, [r5, #0]
 8007462:	461a      	mov	r2, r3
 8007464:	f000 f9fd 	bl	8007862 <_write>
 8007468:	1c43      	adds	r3, r0, #1
 800746a:	d102      	bne.n	8007472 <_write_r+0x1e>
 800746c:	682b      	ldr	r3, [r5, #0]
 800746e:	b103      	cbz	r3, 8007472 <_write_r+0x1e>
 8007470:	6023      	str	r3, [r4, #0]
 8007472:	bd38      	pop	{r3, r4, r5, pc}
 8007474:	200004ac 	.word	0x200004ac

08007478 <_close_r>:
 8007478:	b538      	push	{r3, r4, r5, lr}
 800747a:	2300      	movs	r3, #0
 800747c:	4d05      	ldr	r5, [pc, #20]	@ (8007494 <_close_r+0x1c>)
 800747e:	4604      	mov	r4, r0
 8007480:	4608      	mov	r0, r1
 8007482:	602b      	str	r3, [r5, #0]
 8007484:	f000 fa1a 	bl	80078bc <_close>
 8007488:	1c43      	adds	r3, r0, #1
 800748a:	d102      	bne.n	8007492 <_close_r+0x1a>
 800748c:	682b      	ldr	r3, [r5, #0]
 800748e:	b103      	cbz	r3, 8007492 <_close_r+0x1a>
 8007490:	6023      	str	r3, [r4, #0]
 8007492:	bd38      	pop	{r3, r4, r5, pc}
 8007494:	200004ac 	.word	0x200004ac

08007498 <_fstat_r>:
 8007498:	b538      	push	{r3, r4, r5, lr}
 800749a:	2300      	movs	r3, #0
 800749c:	4d06      	ldr	r5, [pc, #24]	@ (80074b8 <_fstat_r+0x20>)
 800749e:	4604      	mov	r4, r0
 80074a0:	4608      	mov	r0, r1
 80074a2:	4611      	mov	r1, r2
 80074a4:	602b      	str	r3, [r5, #0]
 80074a6:	f000 fa52 	bl	800794e <_fstat>
 80074aa:	1c43      	adds	r3, r0, #1
 80074ac:	d102      	bne.n	80074b4 <_fstat_r+0x1c>
 80074ae:	682b      	ldr	r3, [r5, #0]
 80074b0:	b103      	cbz	r3, 80074b4 <_fstat_r+0x1c>
 80074b2:	6023      	str	r3, [r4, #0]
 80074b4:	bd38      	pop	{r3, r4, r5, pc}
 80074b6:	bf00      	nop
 80074b8:	200004ac 	.word	0x200004ac

080074bc <memcpy>:
 80074bc:	440a      	add	r2, r1
 80074be:	4291      	cmp	r1, r2
 80074c0:	f100 33ff 	add.w	r3, r0, #4294967295	@ 0xffffffff
 80074c4:	d100      	bne.n	80074c8 <memcpy+0xc>
 80074c6:	4770      	bx	lr
 80074c8:	b510      	push	{r4, lr}
 80074ca:	f811 4b01 	ldrb.w	r4, [r1], #1
 80074ce:	4291      	cmp	r1, r2
 80074d0:	f803 4f01 	strb.w	r4, [r3, #1]!
 80074d4:	d1f9      	bne.n	80074ca <memcpy+0xe>
 80074d6:	bd10      	pop	{r4, pc}

080074d8 <__assert_func>:
 80074d8:	b51f      	push	{r0, r1, r2, r3, r4, lr}
 80074da:	4614      	mov	r4, r2
 80074dc:	461a      	mov	r2, r3
 80074de:	4b09      	ldr	r3, [pc, #36]	@ (8007504 <__assert_func+0x2c>)
 80074e0:	4605      	mov	r5, r0
 80074e2:	681b      	ldr	r3, [r3, #0]
 80074e4:	68d8      	ldr	r0, [r3, #12]
 80074e6:	b14c      	cbz	r4, 80074fc <__assert_func+0x24>
 80074e8:	4b07      	ldr	r3, [pc, #28]	@ (8007508 <__assert_func+0x30>)
 80074ea:	e9cd 3401 	strd	r3, r4, [sp, #4]
 80074ee:	9100      	str	r1, [sp, #0]
 80074f0:	462b      	mov	r3, r5
 80074f2:	4906      	ldr	r1, [pc, #24]	@ (800750c <__assert_func+0x34>)
 80074f4:	f000 f87c 	bl	80075f0 <fiprintf>
 80074f8:	f000 f899 	bl	800762e <abort>
 80074fc:	4b04      	ldr	r3, [pc, #16]	@ (8007510 <__assert_func+0x38>)
 80074fe:	461c      	mov	r4, r3
 8007500:	e7f3      	b.n	80074ea <__assert_func+0x12>
 8007502:	bf00      	nop
 8007504:	20000018 	.word	0x20000018
 8007508:	08007f2b 	.word	0x08007f2b
 800750c:	08007f38 	.word	0x08007f38
 8007510:	08007f66 	.word	0x08007f66

08007514 <_calloc_r>:
 8007514:	b570      	push	{r4, r5, r6, lr}
 8007516:	fba1 5402 	umull	r5, r4, r1, r2
 800751a:	b934      	cbnz	r4, 800752a <_calloc_r+0x16>
 800751c:	4629      	mov	r1, r5
 800751e:	f7ff f96b 	bl	80067f8 <_malloc_r>
 8007522:	4606      	mov	r6, r0
 8007524:	b928      	cbnz	r0, 8007532 <_calloc_r+0x1e>
 8007526:	4630      	mov	r0, r6
 8007528:	bd70      	pop	{r4, r5, r6, pc}
 800752a:	220c      	movs	r2, #12
 800752c:	2600      	movs	r6, #0
 800752e:	6002      	str	r2, [r0, #0]
 8007530:	e7f9      	b.n	8007526 <_calloc_r+0x12>
 8007532:	462a      	mov	r2, r5
 8007534:	4621      	mov	r1, r4
 8007536:	f7fe f943 	bl	80057c0 <memset>
 800753a:	e7f4      	b.n	8007526 <_calloc_r+0x12>

0800753c <_free_r>:
 800753c:	b538      	push	{r3, r4, r5, lr}
 800753e:	4605      	mov	r5, r0
 8007540:	2900      	cmp	r1, #0
 8007542:	d040      	beq.n	80075c6 <_free_r+0x8a>
 8007544:	f851 3c04 	ldr.w	r3, [r1, #-4]
 8007548:	1f0c      	subs	r4, r1, #4
 800754a:	2b00      	cmp	r3, #0
 800754c:	bfb8      	it	lt
 800754e:	18e4      	addlt	r4, r4, r3
 8007550:	f7ff fa78 	bl	8006a44 <__malloc_lock>
 8007554:	4a1c      	ldr	r2, [pc, #112]	@ (80075c8 <_free_r+0x8c>)
 8007556:	6813      	ldr	r3, [r2, #0]
 8007558:	b933      	cbnz	r3, 8007568 <_free_r+0x2c>
 800755a:	6063      	str	r3, [r4, #4]
 800755c:	6014      	str	r4, [r2, #0]
 800755e:	4628      	mov	r0, r5
 8007560:	e8bd 4038 	ldmia.w	sp!, {r3, r4, r5, lr}
 8007564:	f7ff ba74 	b.w	8006a50 <__malloc_unlock>
 8007568:	42a3      	cmp	r3, r4
 800756a:	d908      	bls.n	800757e <_free_r+0x42>
 800756c:	6820      	ldr	r0, [r4, #0]
 800756e:	1821      	adds	r1, r4, r0
 8007570:	428b      	cmp	r3, r1
 8007572:	bf01      	itttt	eq
 8007574:	6819      	ldreq	r1, [r3, #0]
 8007576:	685b      	ldreq	r3, [r3, #4]
 8007578:	1809      	addeq	r1, r1, r0
 800757a:	6021      	streq	r1, [r4, #0]
 800757c:	e7ed      	b.n	800755a <_free_r+0x1e>
 800757e:	461a      	mov	r2, r3
 8007580:	685b      	ldr	r3, [r3, #4]
 8007582:	b10b      	cbz	r3, 8007588 <_free_r+0x4c>
 8007584:	42a3      	cmp	r3, r4
 8007586:	d9fa      	bls.n	800757e <_free_r+0x42>
 8007588:	6811      	ldr	r1, [r2, #0]
 800758a:	1850      	adds	r0, r2, r1
 800758c:	42a0      	cmp	r0, r4
 800758e:	d10b      	bne.n	80075a8 <_free_r+0x6c>
 8007590:	6820      	ldr	r0, [r4, #0]
 8007592:	4401      	add	r1, r0
 8007594:	1850      	adds	r0, r2, r1
 8007596:	4283      	cmp	r3, r0
 8007598:	6011      	str	r1, [r2, #0]
 800759a:	d1e0      	bne.n	800755e <_free_r+0x22>
 800759c:	6818      	ldr	r0, [r3, #0]
 800759e:	685b      	ldr	r3, [r3, #4]
 80075a0:	4408      	add	r0, r1
 80075a2:	6010      	str	r0, [r2, #0]
 80075a4:	6053      	str	r3, [r2, #4]
 80075a6:	e7da      	b.n	800755e <_free_r+0x22>
 80075a8:	d902      	bls.n	80075b0 <_free_r+0x74>
 80075aa:	230c      	movs	r3, #12
 80075ac:	602b      	str	r3, [r5, #0]
 80075ae:	e7d6      	b.n	800755e <_free_r+0x22>
 80075b0:	6820      	ldr	r0, [r4, #0]
 80075b2:	1821      	adds	r1, r4, r0
 80075b4:	428b      	cmp	r3, r1
 80075b6:	bf01      	itttt	eq
 80075b8:	6819      	ldreq	r1, [r3, #0]
 80075ba:	685b      	ldreq	r3, [r3, #4]
 80075bc:	1809      	addeq	r1, r1, r0
 80075be:	6021      	streq	r1, [r4, #0]
 80075c0:	6063      	str	r3, [r4, #4]
 80075c2:	6054      	str	r4, [r2, #4]
 80075c4:	e7cb      	b.n	800755e <_free_r+0x22>
 80075c6:	bd38      	pop	{r3, r4, r5, pc}
 80075c8:	200004a8 	.word	0x200004a8

080075cc <__ascii_mbtowc>:
 80075cc:	b082      	sub	sp, #8
 80075ce:	b901      	cbnz	r1, 80075d2 <__ascii_mbtowc+0x6>
 80075d0:	a901      	add	r1, sp, #4
 80075d2:	b142      	cbz	r2, 80075e6 <__ascii_mbtowc+0x1a>
 80075d4:	b14b      	cbz	r3, 80075ea <__ascii_mbtowc+0x1e>
 80075d6:	7813      	ldrb	r3, [r2, #0]
 80075d8:	600b      	str	r3, [r1, #0]
 80075da:	7812      	ldrb	r2, [r2, #0]
 80075dc:	1e10      	subs	r0, r2, #0
 80075de:	bf18      	it	ne
 80075e0:	2001      	movne	r0, #1
 80075e2:	b002      	add	sp, #8
 80075e4:	4770      	bx	lr
 80075e6:	4610      	mov	r0, r2
 80075e8:	e7fb      	b.n	80075e2 <__ascii_mbtowc+0x16>
 80075ea:	f06f 0001 	mvn.w	r0, #1
 80075ee:	e7f8      	b.n	80075e2 <__ascii_mbtowc+0x16>

080075f0 <fiprintf>:
 80075f0:	b40e      	push	{r1, r2, r3}
 80075f2:	b503      	push	{r0, r1, lr}
 80075f4:	4601      	mov	r1, r0
 80075f6:	ab03      	add	r3, sp, #12
 80075f8:	4805      	ldr	r0, [pc, #20]	@ (8007610 <fiprintf+0x20>)
 80075fa:	f853 2b04 	ldr.w	r2, [r3], #4
 80075fe:	6800      	ldr	r0, [r0, #0]
 8007600:	9301      	str	r3, [sp, #4]
 8007602:	f7fe ffbb 	bl	800657c <_vfiprintf_r>
 8007606:	b002      	add	sp, #8
 8007608:	f85d eb04 	ldr.w	lr, [sp], #4
 800760c:	b003      	add	sp, #12
 800760e:	4770      	bx	lr
 8007610:	20000018 	.word	0x20000018

08007614 <__ascii_wctomb>:
 8007614:	4603      	mov	r3, r0
 8007616:	4608      	mov	r0, r1
 8007618:	b141      	cbz	r1, 800762c <__ascii_wctomb+0x18>
 800761a:	2aff      	cmp	r2, #255	@ 0xff
 800761c:	d904      	bls.n	8007628 <__ascii_wctomb+0x14>
 800761e:	228a      	movs	r2, #138	@ 0x8a
 8007620:	f04f 30ff 	mov.w	r0, #4294967295	@ 0xffffffff
 8007624:	601a      	str	r2, [r3, #0]
 8007626:	4770      	bx	lr
 8007628:	2001      	movs	r0, #1
 800762a:	700a      	strb	r2, [r1, #0]
 800762c:	4770      	bx	lr

0800762e <abort>:
 800762e:	2006      	movs	r0, #6
 8007630:	b508      	push	{r3, lr}
 8007632:	f000 f82b 	bl	800768c <raise>
 8007636:	2001      	movs	r0, #1
 8007638:	f000 f844 	bl	80076c4 <_exit>

0800763c <_raise_r>:
 800763c:	291f      	cmp	r1, #31
 800763e:	b538      	push	{r3, r4, r5, lr}
 8007640:	4605      	mov	r5, r0
 8007642:	460c      	mov	r4, r1
 8007644:	d904      	bls.n	8007650 <_raise_r+0x14>
 8007646:	2316      	movs	r3, #22
 8007648:	6003      	str	r3, [r0, #0]
 800764a:	f04f 30ff 	mov.w	r0, #4294967295	@ 0xffffffff
 800764e:	bd38      	pop	{r3, r4, r5, pc}
 8007650:	6bc2      	ldr	r2, [r0, #60]	@ 0x3c
 8007652:	b112      	cbz	r2, 800765a <_raise_r+0x1e>
 8007654:	f852 3021 	ldr.w	r3, [r2, r1, lsl #2]
 8007658:	b94b      	cbnz	r3, 800766e <_raise_r+0x32>
 800765a:	4628      	mov	r0, r5
 800765c:	f000 f830 	bl	80076c0 <_getpid_r>
 8007660:	4622      	mov	r2, r4
 8007662:	4601      	mov	r1, r0
 8007664:	4628      	mov	r0, r5
 8007666:	e8bd 4038 	ldmia.w	sp!, {r3, r4, r5, lr}
 800766a:	f000 b817 	b.w	800769c <_kill_r>
 800766e:	2b01      	cmp	r3, #1
 8007670:	d00a      	beq.n	8007688 <_raise_r+0x4c>
 8007672:	1c59      	adds	r1, r3, #1
 8007674:	d103      	bne.n	800767e <_raise_r+0x42>
 8007676:	2316      	movs	r3, #22
 8007678:	6003      	str	r3, [r0, #0]
 800767a:	2001      	movs	r0, #1
 800767c:	e7e7      	b.n	800764e <_raise_r+0x12>
 800767e:	2100      	movs	r1, #0
 8007680:	4620      	mov	r0, r4
 8007682:	f842 1024 	str.w	r1, [r2, r4, lsl #2]
 8007686:	4798      	blx	r3
 8007688:	2000      	movs	r0, #0
 800768a:	e7e0      	b.n	800764e <_raise_r+0x12>

0800768c <raise>:
 800768c:	4b02      	ldr	r3, [pc, #8]	@ (8007698 <raise+0xc>)
 800768e:	4601      	mov	r1, r0
 8007690:	6818      	ldr	r0, [r3, #0]
 8007692:	f7ff bfd3 	b.w	800763c <_raise_r>
 8007696:	bf00      	nop
 8007698:	20000018 	.word	0x20000018

0800769c <_kill_r>:
 800769c:	b538      	push	{r3, r4, r5, lr}
 800769e:	2300      	movs	r3, #0
 80076a0:	4d06      	ldr	r5, [pc, #24]	@ (80076bc <_kill_r+0x20>)
 80076a2:	4604      	mov	r4, r0
 80076a4:	4608      	mov	r0, r1
 80076a6:	4611      	mov	r1, r2
 80076a8:	602b      	str	r3, [r5, #0]
 80076aa:	f000 f829 	bl	8007700 <_kill>
 80076ae:	1c43      	adds	r3, r0, #1
 80076b0:	d102      	bne.n	80076b8 <_kill_r+0x1c>
 80076b2:	682b      	ldr	r3, [r5, #0]
 80076b4:	b103      	cbz	r3, 80076b8 <_kill_r+0x1c>
 80076b6:	6023      	str	r3, [r4, #0]
 80076b8:	bd38      	pop	{r3, r4, r5, pc}
 80076ba:	bf00      	nop
 80076bc:	200004ac 	.word	0x200004ac

080076c0 <_getpid_r>:
 80076c0:	f000 b922 	b.w	8007908 <_getpid>

080076c4 <_exit>:
 80076c4:	4601      	mov	r1, r0
 80076c6:	b508      	push	{r3, lr}
 80076c8:	f04f 30ff 	mov.w	r0, #4294967295	@ 0xffffffff
 80076cc:	4a01      	ldr	r2, [pc, #4]	@ (80076d4 <_exit+0x10>)
 80076ce:	f000 f803 	bl	80076d8 <_kill_shared>
 80076d2:	bf00      	nop
 80076d4:	00020026 	.word	0x00020026

080076d8 <_kill_shared>:
 80076d8:	b507      	push	{r0, r1, r2, lr}
 80076da:	e9cd 2100 	strd	r2, r1, [sp]
 80076de:	f000 fa2f 	bl	8007b40 <_has_ext_exit_extended>
 80076e2:	2800      	cmp	r0, #0
 80076e4:	bf0c      	ite	eq
 80076e6:	2418      	moveq	r4, #24
 80076e8:	2420      	movne	r4, #32
 80076ea:	f000 fa29 	bl	8007b40 <_has_ext_exit_extended>
 80076ee:	b120      	cbz	r0, 80076fa <_kill_shared+0x22>
 80076f0:	466d      	mov	r5, sp
 80076f2:	4620      	mov	r0, r4
 80076f4:	4629      	mov	r1, r5
 80076f6:	beab      	bkpt	0x00ab
 80076f8:	4604      	mov	r4, r0
 80076fa:	9d00      	ldr	r5, [sp, #0]
 80076fc:	e7f9      	b.n	80076f2 <_kill_shared+0x1a>
	...

08007700 <_kill>:
 8007700:	2906      	cmp	r1, #6
 8007702:	b508      	push	{r3, lr}
 8007704:	bf0c      	ite	eq
 8007706:	4a02      	ldreq	r2, [pc, #8]	@ (8007710 <_kill+0x10>)
 8007708:	4a02      	ldrne	r2, [pc, #8]	@ (8007714 <_kill+0x14>)
 800770a:	f7ff ffe5 	bl	80076d8 <_kill_shared>
 800770e:	bf00      	nop
 8007710:	00020023 	.word	0x00020023
 8007714:	00020026 	.word	0x00020026

08007718 <findslot>:
 8007718:	4b0a      	ldr	r3, [pc, #40]	@ (8007744 <findslot+0x2c>)
 800771a:	b510      	push	{r4, lr}
 800771c:	4604      	mov	r4, r0
 800771e:	6818      	ldr	r0, [r3, #0]
 8007720:	b118      	cbz	r0, 800772a <findslot+0x12>
 8007722:	6a03      	ldr	r3, [r0, #32]
 8007724:	b90b      	cbnz	r3, 800772a <findslot+0x12>
 8007726:	f7fe f803 	bl	8005730 <__sinit>
 800772a:	2c13      	cmp	r4, #19
 800772c:	d807      	bhi.n	800773e <findslot+0x26>
 800772e:	4806      	ldr	r0, [pc, #24]	@ (8007748 <findslot+0x30>)
 8007730:	f850 2034 	ldr.w	r2, [r0, r4, lsl #3]
 8007734:	3201      	adds	r2, #1
 8007736:	d002      	beq.n	800773e <findslot+0x26>
 8007738:	eb00 00c4 	add.w	r0, r0, r4, lsl #3
 800773c:	bd10      	pop	{r4, pc}
 800773e:	2000      	movs	r0, #0
 8007740:	e7fc      	b.n	800773c <findslot+0x24>
 8007742:	bf00      	nop
 8007744:	20000018 	.word	0x20000018
 8007748:	200004bc 	.word	0x200004bc

0800774c <error>:
 800774c:	b5f8      	push	{r3, r4, r5, r6, r7, lr}
 800774e:	4604      	mov	r4, r0
 8007750:	f7fe f83e 	bl	80057d0 <__errno>
 8007754:	2613      	movs	r6, #19
 8007756:	4605      	mov	r5, r0
 8007758:	2700      	movs	r7, #0
 800775a:	4630      	mov	r0, r6
 800775c:	4639      	mov	r1, r7
 800775e:	beab      	bkpt	0x00ab
 8007760:	4606      	mov	r6, r0
 8007762:	4620      	mov	r0, r4
 8007764:	602e      	str	r6, [r5, #0]
 8007766:	bdf8      	pop	{r3, r4, r5, r6, r7, pc}

08007768 <checkerror>:
 8007768:	1c43      	adds	r3, r0, #1
 800776a:	d101      	bne.n	8007770 <checkerror+0x8>
 800776c:	f7ff bfee 	b.w	800774c <error>
 8007770:	4770      	bx	lr

08007772 <_swiread>:
 8007772:	b530      	push	{r4, r5, lr}
 8007774:	b085      	sub	sp, #20
 8007776:	2406      	movs	r4, #6
 8007778:	e9cd 0101 	strd	r0, r1, [sp, #4]
 800777c:	9203      	str	r2, [sp, #12]
 800777e:	ad01      	add	r5, sp, #4
 8007780:	4620      	mov	r0, r4
 8007782:	4629      	mov	r1, r5
 8007784:	beab      	bkpt	0x00ab
 8007786:	4604      	mov	r4, r0
 8007788:	4620      	mov	r0, r4
 800778a:	f7ff ffed 	bl	8007768 <checkerror>
 800778e:	b005      	add	sp, #20
 8007790:	bd30      	pop	{r4, r5, pc}

08007792 <_read>:
 8007792:	b570      	push	{r4, r5, r6, lr}
 8007794:	460e      	mov	r6, r1
 8007796:	4614      	mov	r4, r2
 8007798:	f7ff ffbe 	bl	8007718 <findslot>
 800779c:	4605      	mov	r5, r0
 800779e:	b930      	cbnz	r0, 80077ae <_read+0x1c>
 80077a0:	f7fe f816 	bl	80057d0 <__errno>
 80077a4:	2309      	movs	r3, #9
 80077a6:	6003      	str	r3, [r0, #0]
 80077a8:	f04f 30ff 	mov.w	r0, #4294967295	@ 0xffffffff
 80077ac:	bd70      	pop	{r4, r5, r6, pc}
 80077ae:	4622      	mov	r2, r4
 80077b0:	4631      	mov	r1, r6
 80077b2:	6800      	ldr	r0, [r0, #0]
 80077b4:	f7ff ffdd 	bl	8007772 <_swiread>
 80077b8:	1c43      	adds	r3, r0, #1
 80077ba:	d0f5      	beq.n	80077a8 <_read+0x16>
 80077bc:	686b      	ldr	r3, [r5, #4]
 80077be:	1a20      	subs	r0, r4, r0
 80077c0:	4403      	add	r3, r0
 80077c2:	606b      	str	r3, [r5, #4]
 80077c4:	e7f2      	b.n	80077ac <_read+0x1a>

080077c6 <_swilseek>:
 80077c6:	b5f7      	push	{r0, r1, r2, r4, r5, r6, r7, lr}
 80077c8:	460c      	mov	r4, r1
 80077ca:	4616      	mov	r6, r2
 80077cc:	f7ff ffa4 	bl	8007718 <findslot>
 80077d0:	4605      	mov	r5, r0
 80077d2:	b940      	cbnz	r0, 80077e6 <_swilseek+0x20>
 80077d4:	f7fd fffc 	bl	80057d0 <__errno>
 80077d8:	2309      	movs	r3, #9
 80077da:	6003      	str	r3, [r0, #0]
 80077dc:	f04f 34ff 	mov.w	r4, #4294967295	@ 0xffffffff
 80077e0:	4620      	mov	r0, r4
 80077e2:	b003      	add	sp, #12
 80077e4:	bdf0      	pop	{r4, r5, r6, r7, pc}
 80077e6:	2e02      	cmp	r6, #2
 80077e8:	d903      	bls.n	80077f2 <_swilseek+0x2c>
 80077ea:	f7fd fff1 	bl	80057d0 <__errno>
 80077ee:	2316      	movs	r3, #22
 80077f0:	e7f3      	b.n	80077da <_swilseek+0x14>
 80077f2:	2e01      	cmp	r6, #1
 80077f4:	d112      	bne.n	800781c <_swilseek+0x56>
 80077f6:	6843      	ldr	r3, [r0, #4]
 80077f8:	18e4      	adds	r4, r4, r3
 80077fa:	d4f6      	bmi.n	80077ea <_swilseek+0x24>
 80077fc:	682b      	ldr	r3, [r5, #0]
 80077fe:	260a      	movs	r6, #10
 8007800:	466f      	mov	r7, sp
 8007802:	e9cd 3400 	strd	r3, r4, [sp]
 8007806:	4630      	mov	r0, r6
 8007808:	4639      	mov	r1, r7
 800780a:	beab      	bkpt	0x00ab
 800780c:	4606      	mov	r6, r0
 800780e:	4630      	mov	r0, r6
 8007810:	f7ff ffaa 	bl	8007768 <checkerror>
 8007814:	2800      	cmp	r0, #0
 8007816:	dbe1      	blt.n	80077dc <_swilseek+0x16>
 8007818:	606c      	str	r4, [r5, #4]
 800781a:	e7e1      	b.n	80077e0 <_swilseek+0x1a>
 800781c:	2e02      	cmp	r6, #2
 800781e:	d1ed      	bne.n	80077fc <_swilseek+0x36>
 8007820:	6803      	ldr	r3, [r0, #0]
 8007822:	260c      	movs	r6, #12
 8007824:	466f      	mov	r7, sp
 8007826:	9300      	str	r3, [sp, #0]
 8007828:	4630      	mov	r0, r6
 800782a:	4639      	mov	r1, r7
 800782c:	beab      	bkpt	0x00ab
 800782e:	4606      	mov	r6, r0
 8007830:	4630      	mov	r0, r6
 8007832:	f7ff ff99 	bl	8007768 <checkerror>
 8007836:	1c43      	adds	r3, r0, #1
 8007838:	d0d0      	beq.n	80077dc <_swilseek+0x16>
 800783a:	4404      	add	r4, r0
 800783c:	e7de      	b.n	80077fc <_swilseek+0x36>

0800783e <_lseek>:
 800783e:	f7ff bfc2 	b.w	80077c6 <_swilseek>

08007842 <_swiwrite>:
 8007842:	b530      	push	{r4, r5, lr}
 8007844:	b085      	sub	sp, #20
 8007846:	2405      	movs	r4, #5
 8007848:	e9cd 0101 	strd	r0, r1, [sp, #4]
 800784c:	9203      	str	r2, [sp, #12]
 800784e:	ad01      	add	r5, sp, #4
 8007850:	4620      	mov	r0, r4
 8007852:	4629      	mov	r1, r5
 8007854:	beab      	bkpt	0x00ab
 8007856:	4604      	mov	r4, r0
 8007858:	4620      	mov	r0, r4
 800785a:	f7ff ff85 	bl	8007768 <checkerror>
 800785e:	b005      	add	sp, #20
 8007860:	bd30      	pop	{r4, r5, pc}

08007862 <_write>:
 8007862:	b570      	push	{r4, r5, r6, lr}
 8007864:	460e      	mov	r6, r1
 8007866:	4615      	mov	r5, r2
 8007868:	f7ff ff56 	bl	8007718 <findslot>
 800786c:	4604      	mov	r4, r0
 800786e:	b930      	cbnz	r0, 800787e <_write+0x1c>
 8007870:	f7fd ffae 	bl	80057d0 <__errno>
 8007874:	2309      	movs	r3, #9
 8007876:	6003      	str	r3, [r0, #0]
 8007878:	f04f 30ff 	mov.w	r0, #4294967295	@ 0xffffffff
 800787c:	bd70      	pop	{r4, r5, r6, pc}
 800787e:	462a      	mov	r2, r5
 8007880:	4631      	mov	r1, r6
 8007882:	6800      	ldr	r0, [r0, #0]
 8007884:	f7ff ffdd 	bl	8007842 <_swiwrite>
 8007888:	1e03      	subs	r3, r0, #0
 800788a:	dbf5      	blt.n	8007878 <_write+0x16>
 800788c:	6862      	ldr	r2, [r4, #4]
 800788e:	1ae8      	subs	r0, r5, r3
 8007890:	4402      	add	r2, r0
 8007892:	42ab      	cmp	r3, r5
 8007894:	6062      	str	r2, [r4, #4]
 8007896:	d1f1      	bne.n	800787c <_write+0x1a>
 8007898:	e8bd 4070 	ldmia.w	sp!, {r4, r5, r6, lr}
 800789c:	2000      	movs	r0, #0
 800789e:	f7ff bf55 	b.w	800774c <error>

080078a2 <_swiclose>:
 80078a2:	b537      	push	{r0, r1, r2, r4, r5, lr}
 80078a4:	2402      	movs	r4, #2
 80078a6:	9001      	str	r0, [sp, #4]
 80078a8:	ad01      	add	r5, sp, #4
 80078aa:	4620      	mov	r0, r4
 80078ac:	4629      	mov	r1, r5
 80078ae:	beab      	bkpt	0x00ab
 80078b0:	4604      	mov	r4, r0
 80078b2:	4620      	mov	r0, r4
 80078b4:	f7ff ff58 	bl	8007768 <checkerror>
 80078b8:	b003      	add	sp, #12
 80078ba:	bd30      	pop	{r4, r5, pc}

080078bc <_close>:
 80078bc:	b538      	push	{r3, r4, r5, lr}
 80078be:	4605      	mov	r5, r0
 80078c0:	f7ff ff2a 	bl	8007718 <findslot>
 80078c4:	4604      	mov	r4, r0
 80078c6:	b930      	cbnz	r0, 80078d6 <_close+0x1a>
 80078c8:	f7fd ff82 	bl	80057d0 <__errno>
 80078cc:	2309      	movs	r3, #9
 80078ce:	6003      	str	r3, [r0, #0]
 80078d0:	f04f 30ff 	mov.w	r0, #4294967295	@ 0xffffffff
 80078d4:	bd38      	pop	{r3, r4, r5, pc}
 80078d6:	3d01      	subs	r5, #1
 80078d8:	2d01      	cmp	r5, #1
 80078da:	d809      	bhi.n	80078f0 <_close+0x34>
 80078dc:	4b09      	ldr	r3, [pc, #36]	@ (8007904 <_close+0x48>)
 80078de:	689a      	ldr	r2, [r3, #8]
 80078e0:	691b      	ldr	r3, [r3, #16]
 80078e2:	429a      	cmp	r2, r3
 80078e4:	d104      	bne.n	80078f0 <_close+0x34>
 80078e6:	f04f 33ff 	mov.w	r3, #4294967295	@ 0xffffffff
 80078ea:	6003      	str	r3, [r0, #0]
 80078ec:	2000      	movs	r0, #0
 80078ee:	e7f1      	b.n	80078d4 <_close+0x18>
 80078f0:	6820      	ldr	r0, [r4, #0]
 80078f2:	f7ff ffd6 	bl	80078a2 <_swiclose>
 80078f6:	2800      	cmp	r0, #0
 80078f8:	d1ec      	bne.n	80078d4 <_close+0x18>
 80078fa:	f04f 33ff 	mov.w	r3, #4294967295	@ 0xffffffff
 80078fe:	6023      	str	r3, [r4, #0]
 8007900:	e7e8      	b.n	80078d4 <_close+0x18>
 8007902:	bf00      	nop
 8007904:	200004bc 	.word	0x200004bc

08007908 <_getpid>:
 8007908:	2001      	movs	r0, #1
 800790a:	4770      	bx	lr

0800790c <_swistat>:
 800790c:	b570      	push	{r4, r5, r6, lr}
 800790e:	460c      	mov	r4, r1
 8007910:	f7ff ff02 	bl	8007718 <findslot>
 8007914:	4605      	mov	r5, r0
 8007916:	b930      	cbnz	r0, 8007926 <_swistat+0x1a>
 8007918:	f7fd ff5a 	bl	80057d0 <__errno>
 800791c:	2309      	movs	r3, #9
 800791e:	6003      	str	r3, [r0, #0]
 8007920:	f04f 30ff 	mov.w	r0, #4294967295	@ 0xffffffff
 8007924:	bd70      	pop	{r4, r5, r6, pc}
 8007926:	6863      	ldr	r3, [r4, #4]
 8007928:	260c      	movs	r6, #12
 800792a:	f443 5300 	orr.w	r3, r3, #8192	@ 0x2000
 800792e:	6063      	str	r3, [r4, #4]
 8007930:	f44f 6380 	mov.w	r3, #1024	@ 0x400
 8007934:	64a3      	str	r3, [r4, #72]	@ 0x48
 8007936:	4630      	mov	r0, r6
 8007938:	4629      	mov	r1, r5
 800793a:	beab      	bkpt	0x00ab
 800793c:	4605      	mov	r5, r0
 800793e:	4628      	mov	r0, r5
 8007940:	f7ff ff12 	bl	8007768 <checkerror>
 8007944:	1c43      	adds	r3, r0, #1
 8007946:	d0eb      	beq.n	8007920 <_swistat+0x14>
 8007948:	6120      	str	r0, [r4, #16]
 800794a:	2000      	movs	r0, #0
 800794c:	e7ea      	b.n	8007924 <_swistat+0x18>

0800794e <_fstat>:
 800794e:	460b      	mov	r3, r1
 8007950:	b510      	push	{r4, lr}
 8007952:	2100      	movs	r1, #0
 8007954:	4604      	mov	r4, r0
 8007956:	2258      	movs	r2, #88	@ 0x58
 8007958:	4618      	mov	r0, r3
 800795a:	f7fd ff31 	bl	80057c0 <memset>
 800795e:	4601      	mov	r1, r0
 8007960:	4620      	mov	r0, r4
 8007962:	e8bd 4010 	ldmia.w	sp!, {r4, lr}
 8007966:	f7ff bfd1 	b.w	800790c <_swistat>

0800796a <_stat>:
 800796a:	b538      	push	{r3, r4, r5, lr}
 800796c:	460d      	mov	r5, r1
 800796e:	4604      	mov	r4, r0
 8007970:	2258      	movs	r2, #88	@ 0x58
 8007972:	2100      	movs	r1, #0
 8007974:	4628      	mov	r0, r5
 8007976:	f7fd ff23 	bl	80057c0 <memset>
 800797a:	4620      	mov	r0, r4
 800797c:	2100      	movs	r1, #0
 800797e:	f000 f811 	bl	80079a4 <_swiopen>
 8007982:	1c43      	adds	r3, r0, #1
 8007984:	4604      	mov	r4, r0
 8007986:	d00b      	beq.n	80079a0 <_stat+0x36>
 8007988:	686b      	ldr	r3, [r5, #4]
 800798a:	4629      	mov	r1, r5
 800798c:	f443 4301 	orr.w	r3, r3, #33024	@ 0x8100
 8007990:	606b      	str	r3, [r5, #4]
 8007992:	f7ff ffbb 	bl	800790c <_swistat>
 8007996:	4605      	mov	r5, r0
 8007998:	4620      	mov	r0, r4
 800799a:	f7ff ff8f 	bl	80078bc <_close>
 800799e:	462c      	mov	r4, r5
 80079a0:	4620      	mov	r0, r4
 80079a2:	bd38      	pop	{r3, r4, r5, pc}

080079a4 <_swiopen>:
 80079a4:	e92d 43f0 	stmdb	sp!, {r4, r5, r6, r7, r8, r9, lr}
 80079a8:	4607      	mov	r7, r0
 80079aa:	460e      	mov	r6, r1
 80079ac:	2400      	movs	r4, #0
 80079ae:	f8df 90a4 	ldr.w	r9, [pc, #164]	@ 8007a54 <_swiopen+0xb0>
 80079b2:	b097      	sub	sp, #92	@ 0x5c
 80079b4:	f859 3034 	ldr.w	r3, [r9, r4, lsl #3]
 80079b8:	ea4f 08c4 	mov.w	r8, r4, lsl #3
 80079bc:	3301      	adds	r3, #1
 80079be:	d033      	beq.n	8007a28 <_swiopen+0x84>
 80079c0:	3401      	adds	r4, #1
 80079c2:	2c14      	cmp	r4, #20
 80079c4:	d1f6      	bne.n	80079b4 <_swiopen+0x10>
 80079c6:	f7fd ff03 	bl	80057d0 <__errno>
 80079ca:	2318      	movs	r3, #24
 80079cc:	e03a      	b.n	8007a44 <_swiopen+0xa0>
 80079ce:	f240 6301 	movw	r3, #1537	@ 0x601
 80079d2:	f3c6 4500 	ubfx	r5, r6, #16, #1
 80079d6:	07b2      	lsls	r2, r6, #30
 80079d8:	bf48      	it	mi
 80079da:	f045 0502 	orrmi.w	r5, r5, #2
 80079de:	421e      	tst	r6, r3
 80079e0:	bf18      	it	ne
 80079e2:	f045 0504 	orrne.w	r5, r5, #4
 80079e6:	0733      	lsls	r3, r6, #28
 80079e8:	bf48      	it	mi
 80079ea:	f025 0504 	bicmi.w	r5, r5, #4
 80079ee:	4638      	mov	r0, r7
 80079f0:	bf48      	it	mi
 80079f2:	f045 0508 	orrmi.w	r5, r5, #8
 80079f6:	9700      	str	r7, [sp, #0]
 80079f8:	f7f8 fbaa 	bl	8000150 <strlen>
 80079fc:	e9cd 5001 	strd	r5, r0, [sp, #4]
 8007a00:	466e      	mov	r6, sp
 8007a02:	2501      	movs	r5, #1
 8007a04:	4628      	mov	r0, r5
 8007a06:	4631      	mov	r1, r6
 8007a08:	beab      	bkpt	0x00ab
 8007a0a:	4605      	mov	r5, r0
 8007a0c:	2d00      	cmp	r5, #0
 8007a0e:	db06      	blt.n	8007a1e <_swiopen+0x7a>
 8007a10:	2300      	movs	r3, #0
 8007a12:	44c8      	add	r8, r9
 8007a14:	f849 5034 	str.w	r5, [r9, r4, lsl #3]
 8007a18:	f8c8 3004 	str.w	r3, [r8, #4]
 8007a1c:	e015      	b.n	8007a4a <_swiopen+0xa6>
 8007a1e:	4628      	mov	r0, r5
 8007a20:	f7ff fe94 	bl	800774c <error>
 8007a24:	4604      	mov	r4, r0
 8007a26:	e010      	b.n	8007a4a <_swiopen+0xa6>
 8007a28:	f406 6320 	and.w	r3, r6, #2560	@ 0xa00
 8007a2c:	f5b3 6f20 	cmp.w	r3, #2560	@ 0xa00
 8007a30:	d1cd      	bne.n	80079ce <_swiopen+0x2a>
 8007a32:	4669      	mov	r1, sp
 8007a34:	4638      	mov	r0, r7
 8007a36:	f7ff ff98 	bl	800796a <_stat>
 8007a3a:	3001      	adds	r0, #1
 8007a3c:	d0c7      	beq.n	80079ce <_swiopen+0x2a>
 8007a3e:	f7fd fec7 	bl	80057d0 <__errno>
 8007a42:	2311      	movs	r3, #17
 8007a44:	f04f 34ff 	mov.w	r4, #4294967295	@ 0xffffffff
 8007a48:	6003      	str	r3, [r0, #0]
 8007a4a:	4620      	mov	r0, r4
 8007a4c:	b017      	add	sp, #92	@ 0x5c
 8007a4e:	e8bd 83f0 	ldmia.w	sp!, {r4, r5, r6, r7, r8, r9, pc}
 8007a52:	bf00      	nop
 8007a54:	200004bc 	.word	0x200004bc

08007a58 <_get_semihosting_exts>:
 8007a58:	e92d 43f7 	stmdb	sp!, {r0, r1, r2, r4, r5, r6, r7, r8, r9, lr}
 8007a5c:	4606      	mov	r6, r0
 8007a5e:	460f      	mov	r7, r1
 8007a60:	4829      	ldr	r0, [pc, #164]	@ (8007b08 <_get_semihosting_exts+0xb0>)
 8007a62:	2100      	movs	r1, #0
 8007a64:	4615      	mov	r5, r2
 8007a66:	f7ff ff9d 	bl	80079a4 <_swiopen>
 8007a6a:	4604      	mov	r4, r0
 8007a6c:	462a      	mov	r2, r5
 8007a6e:	2100      	movs	r1, #0
 8007a70:	4630      	mov	r0, r6
 8007a72:	f7fd fea5 	bl	80057c0 <memset>
 8007a76:	1c63      	adds	r3, r4, #1
 8007a78:	d014      	beq.n	8007aa4 <_get_semihosting_exts+0x4c>
 8007a7a:	4620      	mov	r0, r4
 8007a7c:	f7ff fe4c 	bl	8007718 <findslot>
 8007a80:	f04f 080c 	mov.w	r8, #12
 8007a84:	4681      	mov	r9, r0
 8007a86:	4640      	mov	r0, r8
 8007a88:	4649      	mov	r1, r9
 8007a8a:	beab      	bkpt	0x00ab
 8007a8c:	4680      	mov	r8, r0
 8007a8e:	4640      	mov	r0, r8
 8007a90:	f7ff fe6a 	bl	8007768 <checkerror>
 8007a94:	2803      	cmp	r0, #3
 8007a96:	dd02      	ble.n	8007a9e <_get_semihosting_exts+0x46>
 8007a98:	1ec3      	subs	r3, r0, #3
 8007a9a:	42ab      	cmp	r3, r5
 8007a9c:	dc07      	bgt.n	8007aae <_get_semihosting_exts+0x56>
 8007a9e:	4620      	mov	r0, r4
 8007aa0:	f7ff ff0c 	bl	80078bc <_close>
 8007aa4:	f04f 30ff 	mov.w	r0, #4294967295	@ 0xffffffff
 8007aa8:	b003      	add	sp, #12
 8007aaa:	e8bd 83f0 	ldmia.w	sp!, {r4, r5, r6, r7, r8, r9, pc}
 8007aae:	2204      	movs	r2, #4
 8007ab0:	4620      	mov	r0, r4
 8007ab2:	eb0d 0102 	add.w	r1, sp, r2
 8007ab6:	f7ff fe6c 	bl	8007792 <_read>
 8007aba:	2803      	cmp	r0, #3
 8007abc:	ddef      	ble.n	8007a9e <_get_semihosting_exts+0x46>
 8007abe:	f89d 3004 	ldrb.w	r3, [sp, #4]
 8007ac2:	2b53      	cmp	r3, #83	@ 0x53
 8007ac4:	d1eb      	bne.n	8007a9e <_get_semihosting_exts+0x46>
 8007ac6:	f89d 3005 	ldrb.w	r3, [sp, #5]
 8007aca:	2b48      	cmp	r3, #72	@ 0x48
 8007acc:	d1e7      	bne.n	8007a9e <_get_semihosting_exts+0x46>
 8007ace:	f89d 3006 	ldrb.w	r3, [sp, #6]
 8007ad2:	2b46      	cmp	r3, #70	@ 0x46
 8007ad4:	d1e3      	bne.n	8007a9e <_get_semihosting_exts+0x46>
 8007ad6:	f89d 3007 	ldrb.w	r3, [sp, #7]
 8007ada:	2b42      	cmp	r3, #66	@ 0x42
 8007adc:	d1df      	bne.n	8007a9e <_get_semihosting_exts+0x46>
 8007ade:	2201      	movs	r2, #1
 8007ae0:	4639      	mov	r1, r7
 8007ae2:	4620      	mov	r0, r4
 8007ae4:	f7ff fe6f 	bl	80077c6 <_swilseek>
 8007ae8:	2800      	cmp	r0, #0
 8007aea:	dbd8      	blt.n	8007a9e <_get_semihosting_exts+0x46>
 8007aec:	462a      	mov	r2, r5
 8007aee:	4631      	mov	r1, r6
 8007af0:	4620      	mov	r0, r4
 8007af2:	f7ff fe4e 	bl	8007792 <_read>
 8007af6:	4605      	mov	r5, r0
 8007af8:	4620      	mov	r0, r4
 8007afa:	f7ff fedf 	bl	80078bc <_close>
 8007afe:	4628      	mov	r0, r5
 8007b00:	f7ff fe32 	bl	8007768 <checkerror>
 8007b04:	e7d0      	b.n	8007aa8 <_get_semihosting_exts+0x50>
 8007b06:	bf00      	nop
 8007b08:	08007f67 	.word	0x08007f67

08007b0c <initialise_semihosting_exts>:
 8007b0c:	b537      	push	{r0, r1, r2, r4, r5, lr}
 8007b0e:	2100      	movs	r1, #0
 8007b10:	2201      	movs	r2, #1
 8007b12:	4d09      	ldr	r5, [pc, #36]	@ (8007b38 <initialise_semihosting_exts+0x2c>)
 8007b14:	4c09      	ldr	r4, [pc, #36]	@ (8007b3c <initialise_semihosting_exts+0x30>)
 8007b16:	a801      	add	r0, sp, #4
 8007b18:	6029      	str	r1, [r5, #0]
 8007b1a:	6022      	str	r2, [r4, #0]
 8007b1c:	f7ff ff9c 	bl	8007a58 <_get_semihosting_exts>
 8007b20:	2800      	cmp	r0, #0
 8007b22:	dd07      	ble.n	8007b34 <initialise_semihosting_exts+0x28>
 8007b24:	f89d 3004 	ldrb.w	r3, [sp, #4]
 8007b28:	f003 0201 	and.w	r2, r3, #1
 8007b2c:	f003 0302 	and.w	r3, r3, #2
 8007b30:	602a      	str	r2, [r5, #0]
 8007b32:	6023      	str	r3, [r4, #0]
 8007b34:	b003      	add	sp, #12
 8007b36:	bd30      	pop	{r4, r5, pc}
 8007b38:	200001d8 	.word	0x200001d8
 8007b3c:	200001d4 	.word	0x200001d4

08007b40 <_has_ext_exit_extended>:
 8007b40:	b510      	push	{r4, lr}
 8007b42:	4c04      	ldr	r4, [pc, #16]	@ (8007b54 <_has_ext_exit_extended+0x14>)
 8007b44:	6823      	ldr	r3, [r4, #0]
 8007b46:	2b00      	cmp	r3, #0
 8007b48:	da01      	bge.n	8007b4e <_has_ext_exit_extended+0xe>
 8007b4a:	f7ff ffdf 	bl	8007b0c <initialise_semihosting_exts>
 8007b4e:	6820      	ldr	r0, [r4, #0]
 8007b50:	bd10      	pop	{r4, pc}
 8007b52:	bf00      	nop
 8007b54:	200001d8 	.word	0x200001d8

08007b58 <_has_ext_stdout_stderr>:
 8007b58:	b510      	push	{r4, lr}
 8007b5a:	4c04      	ldr	r4, [pc, #16]	@ (8007b6c <_has_ext_stdout_stderr+0x14>)
 8007b5c:	6823      	ldr	r3, [r4, #0]
 8007b5e:	2b00      	cmp	r3, #0
 8007b60:	da01      	bge.n	8007b66 <_has_ext_stdout_stderr+0xe>
 8007b62:	f7ff ffd3 	bl	8007b0c <initialise_semihosting_exts>
 8007b66:	6820      	ldr	r0, [r4, #0]
 8007b68:	bd10      	pop	{r4, pc}
 8007b6a:	bf00      	nop
 8007b6c:	200001d4 	.word	0x200001d4

08007b70 <initialise_monitor_handles>:
 8007b70:	e92d 47ff 	stmdb	sp!, {r0, r1, r2, r3, r4, r5, r6, r7, r8, r9, sl, lr}
 8007b74:	2303      	movs	r3, #3
 8007b76:	2400      	movs	r4, #0
 8007b78:	4f27      	ldr	r7, [pc, #156]	@ (8007c18 <initialise_monitor_handles+0xa8>)
 8007b7a:	2501      	movs	r5, #1
 8007b7c:	9701      	str	r7, [sp, #4]
 8007b7e:	ae01      	add	r6, sp, #4
 8007b80:	9303      	str	r3, [sp, #12]
 8007b82:	9402      	str	r4, [sp, #8]
 8007b84:	4628      	mov	r0, r5
 8007b86:	4631      	mov	r1, r6
 8007b88:	beab      	bkpt	0x00ab
 8007b8a:	4605      	mov	r5, r0
 8007b8c:	f04f 32ff 	mov.w	r2, #4294967295	@ 0xffffffff
 8007b90:	f8df 8088 	ldr.w	r8, [pc, #136]	@ 8007c1c <initialise_monitor_handles+0xac>
 8007b94:	4623      	mov	r3, r4
 8007b96:	4c22      	ldr	r4, [pc, #136]	@ (8007c20 <initialise_monitor_handles+0xb0>)
 8007b98:	f8c8 5000 	str.w	r5, [r8]
 8007b9c:	f844 2033 	str.w	r2, [r4, r3, lsl #3]
 8007ba0:	3301      	adds	r3, #1
 8007ba2:	2b14      	cmp	r3, #20
 8007ba4:	d1fa      	bne.n	8007b9c <initialise_monitor_handles+0x2c>
 8007ba6:	f7ff ffd7 	bl	8007b58 <_has_ext_stdout_stderr>
 8007baa:	4d1e      	ldr	r5, [pc, #120]	@ (8007c24 <initialise_monitor_handles+0xb4>)
 8007bac:	b1d8      	cbz	r0, 8007be6 <initialise_monitor_handles+0x76>
 8007bae:	2304      	movs	r3, #4
 8007bb0:	f04f 0903 	mov.w	r9, #3
 8007bb4:	9701      	str	r7, [sp, #4]
 8007bb6:	2601      	movs	r6, #1
 8007bb8:	f8cd 900c 	str.w	r9, [sp, #12]
 8007bbc:	eb0d 0a03 	add.w	sl, sp, r3
 8007bc0:	9302      	str	r3, [sp, #8]
 8007bc2:	4630      	mov	r0, r6
 8007bc4:	4651      	mov	r1, sl
 8007bc6:	beab      	bkpt	0x00ab
 8007bc8:	4682      	mov	sl, r0
 8007bca:	4b17      	ldr	r3, [pc, #92]	@ (8007c28 <initialise_monitor_handles+0xb8>)
 8007bcc:	9701      	str	r7, [sp, #4]
 8007bce:	f8c3 a000 	str.w	sl, [r3]
 8007bd2:	2308      	movs	r3, #8
 8007bd4:	f8cd 900c 	str.w	r9, [sp, #12]
 8007bd8:	af01      	add	r7, sp, #4
 8007bda:	9302      	str	r3, [sp, #8]
 8007bdc:	4630      	mov	r0, r6
 8007bde:	4639      	mov	r1, r7
 8007be0:	beab      	bkpt	0x00ab
 8007be2:	4606      	mov	r6, r0
 8007be4:	602e      	str	r6, [r5, #0]
 8007be6:	2600      	movs	r6, #0
 8007be8:	682b      	ldr	r3, [r5, #0]
 8007bea:	6066      	str	r6, [r4, #4]
 8007bec:	3301      	adds	r3, #1
 8007bee:	bf02      	ittt	eq
 8007bf0:	4b0d      	ldreq	r3, [pc, #52]	@ (8007c28 <initialise_monitor_handles+0xb8>)
 8007bf2:	681b      	ldreq	r3, [r3, #0]
 8007bf4:	602b      	streq	r3, [r5, #0]
 8007bf6:	f8d8 3000 	ldr.w	r3, [r8]
 8007bfa:	6023      	str	r3, [r4, #0]
 8007bfc:	f7ff ffac 	bl	8007b58 <_has_ext_stdout_stderr>
 8007c00:	b130      	cbz	r0, 8007c10 <initialise_monitor_handles+0xa0>
 8007c02:	4b09      	ldr	r3, [pc, #36]	@ (8007c28 <initialise_monitor_handles+0xb8>)
 8007c04:	681b      	ldr	r3, [r3, #0]
 8007c06:	e9c4 3602 	strd	r3, r6, [r4, #8]
 8007c0a:	682b      	ldr	r3, [r5, #0]
 8007c0c:	e9c4 3604 	strd	r3, r6, [r4, #16]
 8007c10:	b004      	add	sp, #16
 8007c12:	e8bd 87f0 	ldmia.w	sp!, {r4, r5, r6, r7, r8, r9, sl, pc}
 8007c16:	bf00      	nop
 8007c18:	08007f7d 	.word	0x08007f7d
 8007c1c:	200004b8 	.word	0x200004b8
 8007c20:	200004bc 	.word	0x200004bc
 8007c24:	200004b0 	.word	0x200004b0
 8007c28:	200004b4 	.word	0x200004b4

08007c2c <_isatty>:
 8007c2c:	b570      	push	{r4, r5, r6, lr}
 8007c2e:	f7ff fd73 	bl	8007718 <findslot>
 8007c32:	2409      	movs	r4, #9
 8007c34:	4605      	mov	r5, r0
 8007c36:	b920      	cbnz	r0, 8007c42 <_isatty+0x16>
 8007c38:	f7fd fdca 	bl	80057d0 <__errno>
 8007c3c:	6004      	str	r4, [r0, #0]
 8007c3e:	2000      	movs	r0, #0
 8007c40:	bd70      	pop	{r4, r5, r6, pc}
 8007c42:	4620      	mov	r0, r4
 8007c44:	4629      	mov	r1, r5
 8007c46:	beab      	bkpt	0x00ab
 8007c48:	4604      	mov	r4, r0
 8007c4a:	2c01      	cmp	r4, #1
 8007c4c:	4620      	mov	r0, r4
 8007c4e:	d0f7      	beq.n	8007c40 <_isatty+0x14>
 8007c50:	f7fd fdbe 	bl	80057d0 <__errno>
 8007c54:	2513      	movs	r5, #19
 8007c56:	4604      	mov	r4, r0
 8007c58:	2600      	movs	r6, #0
 8007c5a:	4628      	mov	r0, r5
 8007c5c:	4631      	mov	r1, r6
 8007c5e:	beab      	bkpt	0x00ab
 8007c60:	4605      	mov	r5, r0
 8007c62:	6025      	str	r5, [r4, #0]
 8007c64:	e7eb      	b.n	8007c3e <_isatty+0x12>
	...

08007c68 <_init>:
 8007c68:	b5f8      	push	{r3, r4, r5, r6, r7, lr}
 8007c6a:	bf00      	nop
 8007c6c:	bcf8      	pop	{r3, r4, r5, r6, r7}
 8007c6e:	bc08      	pop	{r3}
 8007c70:	469e      	mov	lr, r3
 8007c72:	4770      	bx	lr

08007c74 <_fini>:
 8007c74:	b5f8      	push	{r3, r4, r5, r6, r7, lr}
 8007c76:	bf00      	nop
 8007c78:	bcf8      	pop	{r3, r4, r5, r6, r7}
 8007c7a:	bc08      	pop	{r3}
 8007c7c:	469e      	mov	lr, r3
 8007c7e:	4770      	bx	lr
