
rfr26-tempSensor.elf:     file format elf32-littlearm

Sections:
Idx Name          Size      VMA       LMA       File off  Algn
  0 .isr_vector   0000010c  08000000  08000000  00001000  2**0
                  CONTENTS, ALLOC, LOAD, READONLY, DATA
  1 .text         00005fa4  08000110  08000110  00001110  2**3
                  CONTENTS, ALLOC, LOAD, READONLY, CODE
  2 .rodata       000004cc  080060b8  080060b8  000070b8  2**3
                  CONTENTS, ALLOC, LOAD, READONLY, DATA
  3 .ARM.extab    00000000  08006584  08006584  000081d4  2**0
                  CONTENTS, READONLY
  4 .ARM          00000008  08006584  08006584  00007584  2**2
                  CONTENTS, ALLOC, LOAD, READONLY, DATA
  5 .preinit_array 00000000  0800658c  0800658c  000081d4  2**0
                  CONTENTS, ALLOC, LOAD, DATA
  6 .init_array   00000004  0800658c  0800658c  0000758c  2**2
                  CONTENTS, ALLOC, LOAD, READONLY, DATA
  7 .fini_array   00000004  08006590  08006590  00007590  2**2
                  CONTENTS, ALLOC, LOAD, READONLY, DATA
  8 .data         000001d4  20000000  08006594  00008000  2**2
                  CONTENTS, ALLOC, LOAD, DATA
  9 .bss          000008d4  200001d8  08006768  000081d8  2**3
                  ALLOC
 10 ._user_heap_stack 00000604  20000aac  08006768  00008aac  2**0
                  ALLOC
 11 .ARM.attributes 00000029  00000000  00000000  000081d4  2**0
                  CONTENTS, READONLY
 12 .comment      00000043  00000000  00000000  000081fd  2**0
                  CONTENTS, READONLY
 13 .debug_frame  00001210  00000000  00000000  00008240  2**2
                  CONTENTS, READONLY, DEBUGGING, OCTETS

Disassembly of section .text:

08000110 <__do_global_dtors_aux>:
 8000110:	b510      	push	{r4, lr}
 8000112:	4c05      	ldr	r4, [pc, #20]	@ (8000128 <__do_global_dtors_aux+0x18>)
 8000114:	7823      	ldrb	r3, [r4, #0]
 8000116:	b933      	cbnz	r3, 8000126 <__do_global_dtors_aux+0x16>
 8000118:	4b04      	ldr	r3, [pc, #16]	@ (800012c <__do_global_dtors_aux+0x1c>)
 800011a:	b113      	cbz	r3, 8000122 <__do_global_dtors_aux+0x12>
 800011c:	4804      	ldr	r0, [pc, #16]	@ (8000130 <__do_global_dtors_aux+0x20>)
 800011e:	f3af 8000 	nop.w
 8000122:	2301      	movs	r3, #1
 8000124:	7023      	strb	r3, [r4, #0]
 8000126:	bd10      	pop	{r4, pc}
 8000128:	200001d8 	.word	0x200001d8
 800012c:	00000000 	.word	0x00000000
 8000130:	0800609c 	.word	0x0800609c

08000134 <frame_dummy>:
 8000134:	b508      	push	{r3, lr}
 8000136:	4b03      	ldr	r3, [pc, #12]	@ (8000144 <frame_dummy+0x10>)
 8000138:	b11b      	cbz	r3, 8000142 <frame_dummy+0xe>
 800013a:	4903      	ldr	r1, [pc, #12]	@ (8000148 <frame_dummy+0x14>)
 800013c:	4803      	ldr	r0, [pc, #12]	@ (800014c <frame_dummy+0x18>)
 800013e:	f3af 8000 	nop.w
 8000142:	bd08      	pop	{r3, pc}
 8000144:	00000000 	.word	0x00000000
 8000148:	200001dc 	.word	0x200001dc
 800014c:	0800609c 	.word	0x0800609c

08000150 <strlen>:
 8000150:	4603      	mov	r3, r0
 8000152:	f813 2b01 	ldrb.w	r2, [r3], #1
 8000156:	2a00      	cmp	r2, #0
 8000158:	d1fb      	bne.n	8000152 <strlen+0x2>
 800015a:	1a18      	subs	r0, r3, r0
 800015c:	3801      	subs	r0, #1
 800015e:	4770      	bx	lr

08000160 <__aeabi_drsub>:
 8000160:	f081 4100 	eor.w	r1, r1, #2147483648	@ 0x80000000
 8000164:	e002      	b.n	800016c <__adddf3>
 8000166:	bf00      	nop

08000168 <__aeabi_dsub>:
 8000168:	f083 4300 	eor.w	r3, r3, #2147483648	@ 0x80000000

0800016c <__adddf3>:
 800016c:	b530      	push	{r4, r5, lr}
 800016e:	ea4f 0441 	mov.w	r4, r1, lsl #1
 8000172:	ea4f 0543 	mov.w	r5, r3, lsl #1
 8000176:	ea94 0f05 	teq	r4, r5
 800017a:	bf08      	it	eq
 800017c:	ea90 0f02 	teqeq	r0, r2
 8000180:	bf1f      	itttt	ne
 8000182:	ea54 0c00 	orrsne.w	ip, r4, r0
 8000186:	ea55 0c02 	orrsne.w	ip, r5, r2
 800018a:	ea7f 5c64 	mvnsne.w	ip, r4, asr #21
 800018e:	ea7f 5c65 	mvnsne.w	ip, r5, asr #21
 8000192:	f000 80e2 	beq.w	800035a <__adddf3+0x1ee>
 8000196:	ea4f 5454 	mov.w	r4, r4, lsr #21
 800019a:	ebd4 5555 	rsbs	r5, r4, r5, lsr #21
 800019e:	bfb8      	it	lt
 80001a0:	426d      	neglt	r5, r5
 80001a2:	dd0c      	ble.n	80001be <__adddf3+0x52>
 80001a4:	442c      	add	r4, r5
 80001a6:	ea80 0202 	eor.w	r2, r0, r2
 80001aa:	ea81 0303 	eor.w	r3, r1, r3
 80001ae:	ea82 0000 	eor.w	r0, r2, r0
 80001b2:	ea83 0101 	eor.w	r1, r3, r1
 80001b6:	ea80 0202 	eor.w	r2, r0, r2
 80001ba:	ea81 0303 	eor.w	r3, r1, r3
 80001be:	2d36      	cmp	r5, #54	@ 0x36
 80001c0:	bf88      	it	hi
 80001c2:	bd30      	pophi	{r4, r5, pc}
 80001c4:	f011 4f00 	tst.w	r1, #2147483648	@ 0x80000000
 80001c8:	ea4f 3101 	mov.w	r1, r1, lsl #12
 80001cc:	f44f 1c80 	mov.w	ip, #1048576	@ 0x100000
 80001d0:	ea4c 3111 	orr.w	r1, ip, r1, lsr #12
 80001d4:	d002      	beq.n	80001dc <__adddf3+0x70>
 80001d6:	4240      	negs	r0, r0
 80001d8:	eb61 0141 	sbc.w	r1, r1, r1, lsl #1
 80001dc:	f013 4f00 	tst.w	r3, #2147483648	@ 0x80000000
 80001e0:	ea4f 3303 	mov.w	r3, r3, lsl #12
 80001e4:	ea4c 3313 	orr.w	r3, ip, r3, lsr #12
 80001e8:	d002      	beq.n	80001f0 <__adddf3+0x84>
 80001ea:	4252      	negs	r2, r2
 80001ec:	eb63 0343 	sbc.w	r3, r3, r3, lsl #1
 80001f0:	ea94 0f05 	teq	r4, r5
 80001f4:	f000 80a7 	beq.w	8000346 <__adddf3+0x1da>
 80001f8:	f1a4 0401 	sub.w	r4, r4, #1
 80001fc:	f1d5 0e20 	rsbs	lr, r5, #32
 8000200:	db0d      	blt.n	800021e <__adddf3+0xb2>
 8000202:	fa02 fc0e 	lsl.w	ip, r2, lr
 8000206:	fa22 f205 	lsr.w	r2, r2, r5
 800020a:	1880      	adds	r0, r0, r2
 800020c:	f141 0100 	adc.w	r1, r1, #0
 8000210:	fa03 f20e 	lsl.w	r2, r3, lr
 8000214:	1880      	adds	r0, r0, r2
 8000216:	fa43 f305 	asr.w	r3, r3, r5
 800021a:	4159      	adcs	r1, r3
 800021c:	e00e      	b.n	800023c <__adddf3+0xd0>
 800021e:	f1a5 0520 	sub.w	r5, r5, #32
 8000222:	f10e 0e20 	add.w	lr, lr, #32
 8000226:	2a01      	cmp	r2, #1
 8000228:	fa03 fc0e 	lsl.w	ip, r3, lr
 800022c:	bf28      	it	cs
 800022e:	f04c 0c02 	orrcs.w	ip, ip, #2
 8000232:	fa43 f305 	asr.w	r3, r3, r5
 8000236:	18c0      	adds	r0, r0, r3
 8000238:	eb51 71e3 	adcs.w	r1, r1, r3, asr #31
 800023c:	f001 4500 	and.w	r5, r1, #2147483648	@ 0x80000000
 8000240:	d507      	bpl.n	8000252 <__adddf3+0xe6>
 8000242:	f04f 0e00 	mov.w	lr, #0
 8000246:	f1dc 0c00 	rsbs	ip, ip, #0
 800024a:	eb7e 0000 	sbcs.w	r0, lr, r0
 800024e:	eb6e 0101 	sbc.w	r1, lr, r1
 8000252:	f5b1 1f80 	cmp.w	r1, #1048576	@ 0x100000
 8000256:	d31b      	bcc.n	8000290 <__adddf3+0x124>
 8000258:	f5b1 1f00 	cmp.w	r1, #2097152	@ 0x200000
 800025c:	d30c      	bcc.n	8000278 <__adddf3+0x10c>
 800025e:	0849      	lsrs	r1, r1, #1
 8000260:	ea5f 0030 	movs.w	r0, r0, rrx
 8000264:	ea4f 0c3c 	mov.w	ip, ip, rrx
 8000268:	f104 0401 	add.w	r4, r4, #1
 800026c:	ea4f 5244 	mov.w	r2, r4, lsl #21
 8000270:	f512 0f80 	cmn.w	r2, #4194304	@ 0x400000
 8000274:	f080 809a 	bcs.w	80003ac <__adddf3+0x240>
 8000278:	f1bc 4f00 	cmp.w	ip, #2147483648	@ 0x80000000
 800027c:	bf08      	it	eq
 800027e:	ea5f 0c50 	movseq.w	ip, r0, lsr #1
 8000282:	f150 0000 	adcs.w	r0, r0, #0
 8000286:	eb41 5104 	adc.w	r1, r1, r4, lsl #20
 800028a:	ea41 0105 	orr.w	r1, r1, r5
 800028e:	bd30      	pop	{r4, r5, pc}
 8000290:	ea5f 0c4c 	movs.w	ip, ip, lsl #1
 8000294:	4140      	adcs	r0, r0
 8000296:	eb41 0101 	adc.w	r1, r1, r1
 800029a:	3c01      	subs	r4, #1
 800029c:	bf28      	it	cs
 800029e:	f5b1 1f80 	cmpcs.w	r1, #1048576	@ 0x100000
 80002a2:	d2e9      	bcs.n	8000278 <__adddf3+0x10c>
 80002a4:	f091 0f00 	teq	r1, #0
 80002a8:	bf04      	itt	eq
 80002aa:	4601      	moveq	r1, r0
 80002ac:	2000      	moveq	r0, #0
 80002ae:	fab1 f381 	clz	r3, r1
 80002b2:	bf08      	it	eq
 80002b4:	3320      	addeq	r3, #32
 80002b6:	f1a3 030b 	sub.w	r3, r3, #11
 80002ba:	f1b3 0220 	subs.w	r2, r3, #32
 80002be:	da0c      	bge.n	80002da <__adddf3+0x16e>
 80002c0:	320c      	adds	r2, #12
 80002c2:	dd08      	ble.n	80002d6 <__adddf3+0x16a>
 80002c4:	f102 0c14 	add.w	ip, r2, #20
 80002c8:	f1c2 020c 	rsb	r2, r2, #12
 80002cc:	fa01 f00c 	lsl.w	r0, r1, ip
 80002d0:	fa21 f102 	lsr.w	r1, r1, r2
 80002d4:	e00c      	b.n	80002f0 <__adddf3+0x184>
 80002d6:	f102 0214 	add.w	r2, r2, #20
 80002da:	bfd8      	it	le
 80002dc:	f1c2 0c20 	rsble	ip, r2, #32
 80002e0:	fa01 f102 	lsl.w	r1, r1, r2
 80002e4:	fa20 fc0c 	lsr.w	ip, r0, ip
 80002e8:	bfdc      	itt	le
 80002ea:	ea41 010c 	orrle.w	r1, r1, ip
 80002ee:	4090      	lslle	r0, r2
 80002f0:	1ae4      	subs	r4, r4, r3
 80002f2:	bfa2      	ittt	ge
 80002f4:	eb01 5104 	addge.w	r1, r1, r4, lsl #20
 80002f8:	4329      	orrge	r1, r5
 80002fa:	bd30      	popge	{r4, r5, pc}
 80002fc:	ea6f 0404 	mvn.w	r4, r4
 8000300:	3c1f      	subs	r4, #31
 8000302:	da1c      	bge.n	800033e <__adddf3+0x1d2>
 8000304:	340c      	adds	r4, #12
 8000306:	dc0e      	bgt.n	8000326 <__adddf3+0x1ba>
 8000308:	f104 0414 	add.w	r4, r4, #20
 800030c:	f1c4 0220 	rsb	r2, r4, #32
 8000310:	fa20 f004 	lsr.w	r0, r0, r4
 8000314:	fa01 f302 	lsl.w	r3, r1, r2
 8000318:	ea40 0003 	orr.w	r0, r0, r3
 800031c:	fa21 f304 	lsr.w	r3, r1, r4
 8000320:	ea45 0103 	orr.w	r1, r5, r3
 8000324:	bd30      	pop	{r4, r5, pc}
 8000326:	f1c4 040c 	rsb	r4, r4, #12
 800032a:	f1c4 0220 	rsb	r2, r4, #32
 800032e:	fa20 f002 	lsr.w	r0, r0, r2
 8000332:	fa01 f304 	lsl.w	r3, r1, r4
 8000336:	ea40 0003 	orr.w	r0, r0, r3
 800033a:	4629      	mov	r1, r5
 800033c:	bd30      	pop	{r4, r5, pc}
 800033e:	fa21 f004 	lsr.w	r0, r1, r4
 8000342:	4629      	mov	r1, r5
 8000344:	bd30      	pop	{r4, r5, pc}
 8000346:	f094 0f00 	teq	r4, #0
 800034a:	f483 1380 	eor.w	r3, r3, #1048576	@ 0x100000
 800034e:	bf06      	itte	eq
 8000350:	f481 1180 	eoreq.w	r1, r1, #1048576	@ 0x100000
 8000354:	3401      	addeq	r4, #1
 8000356:	3d01      	subne	r5, #1
 8000358:	e74e      	b.n	80001f8 <__adddf3+0x8c>
 800035a:	ea7f 5c64 	mvns.w	ip, r4, asr #21
 800035e:	bf18      	it	ne
 8000360:	ea7f 5c65 	mvnsne.w	ip, r5, asr #21
 8000364:	d029      	beq.n	80003ba <__adddf3+0x24e>
 8000366:	ea94 0f05 	teq	r4, r5
 800036a:	bf08      	it	eq
 800036c:	ea90 0f02 	teqeq	r0, r2
 8000370:	d005      	beq.n	800037e <__adddf3+0x212>
 8000372:	ea54 0c00 	orrs.w	ip, r4, r0
 8000376:	bf04      	itt	eq
 8000378:	4619      	moveq	r1, r3
 800037a:	4610      	moveq	r0, r2
 800037c:	bd30      	pop	{r4, r5, pc}
 800037e:	ea91 0f03 	teq	r1, r3
 8000382:	bf1e      	ittt	ne
 8000384:	2100      	movne	r1, #0
 8000386:	2000      	movne	r0, #0
 8000388:	bd30      	popne	{r4, r5, pc}
 800038a:	ea5f 5c54 	movs.w	ip, r4, lsr #21
 800038e:	d105      	bne.n	800039c <__adddf3+0x230>
 8000390:	0040      	lsls	r0, r0, #1
 8000392:	4149      	adcs	r1, r1
 8000394:	bf28      	it	cs
 8000396:	f041 4100 	orrcs.w	r1, r1, #2147483648	@ 0x80000000
 800039a:	bd30      	pop	{r4, r5, pc}
 800039c:	f514 0480 	adds.w	r4, r4, #4194304	@ 0x400000
 80003a0:	bf3c      	itt	cc
 80003a2:	f501 1180 	addcc.w	r1, r1, #1048576	@ 0x100000
 80003a6:	bd30      	popcc	{r4, r5, pc}
 80003a8:	f001 4500 	and.w	r5, r1, #2147483648	@ 0x80000000
 80003ac:	f045 41fe 	orr.w	r1, r5, #2130706432	@ 0x7f000000
 80003b0:	f441 0170 	orr.w	r1, r1, #15728640	@ 0xf00000
 80003b4:	f04f 0000 	mov.w	r0, #0
 80003b8:	bd30      	pop	{r4, r5, pc}
 80003ba:	ea7f 5c64 	mvns.w	ip, r4, asr #21
 80003be:	bf1a      	itte	ne
 80003c0:	4619      	movne	r1, r3
 80003c2:	4610      	movne	r0, r2
 80003c4:	ea7f 5c65 	mvnseq.w	ip, r5, asr #21
 80003c8:	bf1c      	itt	ne
 80003ca:	460b      	movne	r3, r1
 80003cc:	4602      	movne	r2, r0
 80003ce:	ea50 3401 	orrs.w	r4, r0, r1, lsl #12
 80003d2:	bf06      	itte	eq
 80003d4:	ea52 3503 	orrseq.w	r5, r2, r3, lsl #12
 80003d8:	ea91 0f03 	teqeq	r1, r3
 80003dc:	f441 2100 	orrne.w	r1, r1, #524288	@ 0x80000
 80003e0:	bd30      	pop	{r4, r5, pc}
 80003e2:	bf00      	nop

080003e4 <__aeabi_ui2d>:
 80003e4:	f090 0f00 	teq	r0, #0
 80003e8:	bf04      	itt	eq
 80003ea:	2100      	moveq	r1, #0
 80003ec:	4770      	bxeq	lr
 80003ee:	b530      	push	{r4, r5, lr}
 80003f0:	f44f 6480 	mov.w	r4, #1024	@ 0x400
 80003f4:	f104 0432 	add.w	r4, r4, #50	@ 0x32
 80003f8:	f04f 0500 	mov.w	r5, #0
 80003fc:	f04f 0100 	mov.w	r1, #0
 8000400:	e750      	b.n	80002a4 <__adddf3+0x138>
 8000402:	bf00      	nop

08000404 <__aeabi_i2d>:
 8000404:	f090 0f00 	teq	r0, #0
 8000408:	bf04      	itt	eq
 800040a:	2100      	moveq	r1, #0
 800040c:	4770      	bxeq	lr
 800040e:	b530      	push	{r4, r5, lr}
 8000410:	f44f 6480 	mov.w	r4, #1024	@ 0x400
 8000414:	f104 0432 	add.w	r4, r4, #50	@ 0x32
 8000418:	f010 4500 	ands.w	r5, r0, #2147483648	@ 0x80000000
 800041c:	bf48      	it	mi
 800041e:	4240      	negmi	r0, r0
 8000420:	f04f 0100 	mov.w	r1, #0
 8000424:	e73e      	b.n	80002a4 <__adddf3+0x138>
 8000426:	bf00      	nop

08000428 <__aeabi_f2d>:
 8000428:	0042      	lsls	r2, r0, #1
 800042a:	ea4f 01e2 	mov.w	r1, r2, asr #3
 800042e:	ea4f 0131 	mov.w	r1, r1, rrx
 8000432:	ea4f 7002 	mov.w	r0, r2, lsl #28
 8000436:	bf1f      	itttt	ne
 8000438:	f012 437f 	andsne.w	r3, r2, #4278190080	@ 0xff000000
 800043c:	f093 4f7f 	teqne	r3, #4278190080	@ 0xff000000
 8000440:	f081 5160 	eorne.w	r1, r1, #939524096	@ 0x38000000
 8000444:	4770      	bxne	lr
 8000446:	f032 427f 	bics.w	r2, r2, #4278190080	@ 0xff000000
 800044a:	bf08      	it	eq
 800044c:	4770      	bxeq	lr
 800044e:	f093 4f7f 	teq	r3, #4278190080	@ 0xff000000
 8000452:	bf04      	itt	eq
 8000454:	f441 2100 	orreq.w	r1, r1, #524288	@ 0x80000
 8000458:	4770      	bxeq	lr
 800045a:	b530      	push	{r4, r5, lr}
 800045c:	f44f 7460 	mov.w	r4, #896	@ 0x380
 8000460:	f001 4500 	and.w	r5, r1, #2147483648	@ 0x80000000
 8000464:	f021 4100 	bic.w	r1, r1, #2147483648	@ 0x80000000
 8000468:	e71c      	b.n	80002a4 <__adddf3+0x138>
 800046a:	bf00      	nop

0800046c <__aeabi_ul2d>:
 800046c:	ea50 0201 	orrs.w	r2, r0, r1
 8000470:	bf08      	it	eq
 8000472:	4770      	bxeq	lr
 8000474:	b530      	push	{r4, r5, lr}
 8000476:	f04f 0500 	mov.w	r5, #0
 800047a:	e00a      	b.n	8000492 <__aeabi_l2d+0x16>

0800047c <__aeabi_l2d>:
 800047c:	ea50 0201 	orrs.w	r2, r0, r1
 8000480:	bf08      	it	eq
 8000482:	4770      	bxeq	lr
 8000484:	b530      	push	{r4, r5, lr}
 8000486:	f011 4500 	ands.w	r5, r1, #2147483648	@ 0x80000000
 800048a:	d502      	bpl.n	8000492 <__aeabi_l2d+0x16>
 800048c:	4240      	negs	r0, r0
 800048e:	eb61 0141 	sbc.w	r1, r1, r1, lsl #1
 8000492:	f44f 6480 	mov.w	r4, #1024	@ 0x400
 8000496:	f104 0432 	add.w	r4, r4, #50	@ 0x32
 800049a:	ea5f 5c91 	movs.w	ip, r1, lsr #22
 800049e:	f43f aed8 	beq.w	8000252 <__adddf3+0xe6>
 80004a2:	f04f 0203 	mov.w	r2, #3
 80004a6:	ea5f 0cdc 	movs.w	ip, ip, lsr #3
 80004aa:	bf18      	it	ne
 80004ac:	3203      	addne	r2, #3
 80004ae:	ea5f 0cdc 	movs.w	ip, ip, lsr #3
 80004b2:	bf18      	it	ne
 80004b4:	3203      	addne	r2, #3
 80004b6:	eb02 02dc 	add.w	r2, r2, ip, lsr #3
 80004ba:	f1c2 0320 	rsb	r3, r2, #32
 80004be:	fa00 fc03 	lsl.w	ip, r0, r3
 80004c2:	fa20 f002 	lsr.w	r0, r0, r2
 80004c6:	fa01 fe03 	lsl.w	lr, r1, r3
 80004ca:	ea40 000e 	orr.w	r0, r0, lr
 80004ce:	fa21 f102 	lsr.w	r1, r1, r2
 80004d2:	4414      	add	r4, r2
 80004d4:	e6bd      	b.n	8000252 <__adddf3+0xe6>
 80004d6:	bf00      	nop

080004d8 <__aeabi_dmul>:
 80004d8:	b570      	push	{r4, r5, r6, lr}
 80004da:	f04f 0cff 	mov.w	ip, #255	@ 0xff
 80004de:	f44c 6ce0 	orr.w	ip, ip, #1792	@ 0x700
 80004e2:	ea1c 5411 	ands.w	r4, ip, r1, lsr #20
 80004e6:	bf1d      	ittte	ne
 80004e8:	ea1c 5513 	andsne.w	r5, ip, r3, lsr #20
 80004ec:	ea94 0f0c 	teqne	r4, ip
 80004f0:	ea95 0f0c 	teqne	r5, ip
 80004f4:	f000 f8de 	bleq	80006b4 <__aeabi_dmul+0x1dc>
 80004f8:	442c      	add	r4, r5
 80004fa:	ea81 0603 	eor.w	r6, r1, r3
 80004fe:	ea21 514c 	bic.w	r1, r1, ip, lsl #21
 8000502:	ea23 534c 	bic.w	r3, r3, ip, lsl #21
 8000506:	ea50 3501 	orrs.w	r5, r0, r1, lsl #12
 800050a:	bf18      	it	ne
 800050c:	ea52 3503 	orrsne.w	r5, r2, r3, lsl #12
 8000510:	f441 1180 	orr.w	r1, r1, #1048576	@ 0x100000
 8000514:	f443 1380 	orr.w	r3, r3, #1048576	@ 0x100000
 8000518:	d038      	beq.n	800058c <__aeabi_dmul+0xb4>
 800051a:	fba0 ce02 	umull	ip, lr, r0, r2
 800051e:	f04f 0500 	mov.w	r5, #0
 8000522:	fbe1 e502 	umlal	lr, r5, r1, r2
 8000526:	f006 4200 	and.w	r2, r6, #2147483648	@ 0x80000000
 800052a:	fbe0 e503 	umlal	lr, r5, r0, r3
 800052e:	f04f 0600 	mov.w	r6, #0
 8000532:	fbe1 5603 	umlal	r5, r6, r1, r3
 8000536:	f09c 0f00 	teq	ip, #0
 800053a:	bf18      	it	ne
 800053c:	f04e 0e01 	orrne.w	lr, lr, #1
 8000540:	f1a4 04ff 	sub.w	r4, r4, #255	@ 0xff
 8000544:	f5b6 7f00 	cmp.w	r6, #512	@ 0x200
 8000548:	f564 7440 	sbc.w	r4, r4, #768	@ 0x300
 800054c:	d204      	bcs.n	8000558 <__aeabi_dmul+0x80>
 800054e:	ea5f 0e4e 	movs.w	lr, lr, lsl #1
 8000552:	416d      	adcs	r5, r5
 8000554:	eb46 0606 	adc.w	r6, r6, r6
 8000558:	ea42 21c6 	orr.w	r1, r2, r6, lsl #11
 800055c:	ea41 5155 	orr.w	r1, r1, r5, lsr #21
 8000560:	ea4f 20c5 	mov.w	r0, r5, lsl #11
 8000564:	ea40 505e 	orr.w	r0, r0, lr, lsr #21
 8000568:	ea4f 2ece 	mov.w	lr, lr, lsl #11
 800056c:	f1b4 0cfd 	subs.w	ip, r4, #253	@ 0xfd
 8000570:	bf88      	it	hi
 8000572:	f5bc 6fe0 	cmphi.w	ip, #1792	@ 0x700
 8000576:	d81e      	bhi.n	80005b6 <__aeabi_dmul+0xde>
 8000578:	f1be 4f00 	cmp.w	lr, #2147483648	@ 0x80000000
 800057c:	bf08      	it	eq
 800057e:	ea5f 0e50 	movseq.w	lr, r0, lsr #1
 8000582:	f150 0000 	adcs.w	r0, r0, #0
 8000586:	eb41 5104 	adc.w	r1, r1, r4, lsl #20
 800058a:	bd70      	pop	{r4, r5, r6, pc}
 800058c:	f006 4600 	and.w	r6, r6, #2147483648	@ 0x80000000
 8000590:	ea46 0101 	orr.w	r1, r6, r1
 8000594:	ea40 0002 	orr.w	r0, r0, r2
 8000598:	ea81 0103 	eor.w	r1, r1, r3
 800059c:	ebb4 045c 	subs.w	r4, r4, ip, lsr #1
 80005a0:	bfc2      	ittt	gt
 80005a2:	ebd4 050c 	rsbsgt	r5, r4, ip
 80005a6:	ea41 5104 	orrgt.w	r1, r1, r4, lsl #20
 80005aa:	bd70      	popgt	{r4, r5, r6, pc}
 80005ac:	f441 1180 	orr.w	r1, r1, #1048576	@ 0x100000
 80005b0:	f04f 0e00 	mov.w	lr, #0
 80005b4:	3c01      	subs	r4, #1
 80005b6:	f300 80ab 	bgt.w	8000710 <__aeabi_dmul+0x238>
 80005ba:	f114 0f36 	cmn.w	r4, #54	@ 0x36
 80005be:	bfde      	ittt	le
 80005c0:	2000      	movle	r0, #0
 80005c2:	f001 4100 	andle.w	r1, r1, #2147483648	@ 0x80000000
 80005c6:	bd70      	pople	{r4, r5, r6, pc}
 80005c8:	f1c4 0400 	rsb	r4, r4, #0
 80005cc:	3c20      	subs	r4, #32
 80005ce:	da35      	bge.n	800063c <__aeabi_dmul+0x164>
 80005d0:	340c      	adds	r4, #12
 80005d2:	dc1b      	bgt.n	800060c <__aeabi_dmul+0x134>
 80005d4:	f104 0414 	add.w	r4, r4, #20
 80005d8:	f1c4 0520 	rsb	r5, r4, #32
 80005dc:	fa00 f305 	lsl.w	r3, r0, r5
 80005e0:	fa20 f004 	lsr.w	r0, r0, r4
 80005e4:	fa01 f205 	lsl.w	r2, r1, r5
 80005e8:	ea40 0002 	orr.w	r0, r0, r2
 80005ec:	f001 4200 	and.w	r2, r1, #2147483648	@ 0x80000000
 80005f0:	f021 4100 	bic.w	r1, r1, #2147483648	@ 0x80000000
 80005f4:	eb10 70d3 	adds.w	r0, r0, r3, lsr #31
 80005f8:	fa21 f604 	lsr.w	r6, r1, r4
 80005fc:	eb42 0106 	adc.w	r1, r2, r6
 8000600:	ea5e 0e43 	orrs.w	lr, lr, r3, lsl #1
 8000604:	bf08      	it	eq
 8000606:	ea20 70d3 	biceq.w	r0, r0, r3, lsr #31
 800060a:	bd70      	pop	{r4, r5, r6, pc}
 800060c:	f1c4 040c 	rsb	r4, r4, #12
 8000610:	f1c4 0520 	rsb	r5, r4, #32
 8000614:	fa00 f304 	lsl.w	r3, r0, r4
 8000618:	fa20 f005 	lsr.w	r0, r0, r5
 800061c:	fa01 f204 	lsl.w	r2, r1, r4
 8000620:	ea40 0002 	orr.w	r0, r0, r2
 8000624:	f001 4100 	and.w	r1, r1, #2147483648	@ 0x80000000
 8000628:	eb10 70d3 	adds.w	r0, r0, r3, lsr #31
 800062c:	f141 0100 	adc.w	r1, r1, #0
 8000630:	ea5e 0e43 	orrs.w	lr, lr, r3, lsl #1
 8000634:	bf08      	it	eq
 8000636:	ea20 70d3 	biceq.w	r0, r0, r3, lsr #31
 800063a:	bd70      	pop	{r4, r5, r6, pc}
 800063c:	f1c4 0520 	rsb	r5, r4, #32
 8000640:	fa00 f205 	lsl.w	r2, r0, r5
 8000644:	ea4e 0e02 	orr.w	lr, lr, r2
 8000648:	fa20 f304 	lsr.w	r3, r0, r4
 800064c:	fa01 f205 	lsl.w	r2, r1, r5
 8000650:	ea43 0302 	orr.w	r3, r3, r2
 8000654:	fa21 f004 	lsr.w	r0, r1, r4
 8000658:	f001 4100 	and.w	r1, r1, #2147483648	@ 0x80000000
 800065c:	fa21 f204 	lsr.w	r2, r1, r4
 8000660:	ea20 0002 	bic.w	r0, r0, r2
 8000664:	eb00 70d3 	add.w	r0, r0, r3, lsr #31
 8000668:	ea5e 0e43 	orrs.w	lr, lr, r3, lsl #1
 800066c:	bf08      	it	eq
 800066e:	ea20 70d3 	biceq.w	r0, r0, r3, lsr #31
 8000672:	bd70      	pop	{r4, r5, r6, pc}
 8000674:	f094 0f00 	teq	r4, #0
 8000678:	d10f      	bne.n	800069a <__aeabi_dmul+0x1c2>
 800067a:	f001 4600 	and.w	r6, r1, #2147483648	@ 0x80000000
 800067e:	0040      	lsls	r0, r0, #1
 8000680:	eb41 0101 	adc.w	r1, r1, r1
 8000684:	f411 1f80 	tst.w	r1, #1048576	@ 0x100000
 8000688:	bf08      	it	eq
 800068a:	3c01      	subeq	r4, #1
 800068c:	d0f7      	beq.n	800067e <__aeabi_dmul+0x1a6>
 800068e:	ea41 0106 	orr.w	r1, r1, r6
 8000692:	f095 0f00 	teq	r5, #0
 8000696:	bf18      	it	ne
 8000698:	4770      	bxne	lr
 800069a:	f003 4600 	and.w	r6, r3, #2147483648	@ 0x80000000
 800069e:	0052      	lsls	r2, r2, #1
 80006a0:	eb43 0303 	adc.w	r3, r3, r3
 80006a4:	f413 1f80 	tst.w	r3, #1048576	@ 0x100000
 80006a8:	bf08      	it	eq
 80006aa:	3d01      	subeq	r5, #1
 80006ac:	d0f7      	beq.n	800069e <__aeabi_dmul+0x1c6>
 80006ae:	ea43 0306 	orr.w	r3, r3, r6
 80006b2:	4770      	bx	lr
 80006b4:	ea94 0f0c 	teq	r4, ip
 80006b8:	ea0c 5513 	and.w	r5, ip, r3, lsr #20
 80006bc:	bf18      	it	ne
 80006be:	ea95 0f0c 	teqne	r5, ip
 80006c2:	d00c      	beq.n	80006de <__aeabi_dmul+0x206>
 80006c4:	ea50 0641 	orrs.w	r6, r0, r1, lsl #1
 80006c8:	bf18      	it	ne
 80006ca:	ea52 0643 	orrsne.w	r6, r2, r3, lsl #1
 80006ce:	d1d1      	bne.n	8000674 <__aeabi_dmul+0x19c>
 80006d0:	ea81 0103 	eor.w	r1, r1, r3
 80006d4:	f001 4100 	and.w	r1, r1, #2147483648	@ 0x80000000
 80006d8:	f04f 0000 	mov.w	r0, #0
 80006dc:	bd70      	pop	{r4, r5, r6, pc}
 80006de:	ea50 0641 	orrs.w	r6, r0, r1, lsl #1
 80006e2:	bf06      	itte	eq
 80006e4:	4610      	moveq	r0, r2
 80006e6:	4619      	moveq	r1, r3
 80006e8:	ea52 0643 	orrsne.w	r6, r2, r3, lsl #1
 80006ec:	d019      	beq.n	8000722 <__aeabi_dmul+0x24a>
 80006ee:	ea94 0f0c 	teq	r4, ip
 80006f2:	d102      	bne.n	80006fa <__aeabi_dmul+0x222>
 80006f4:	ea50 3601 	orrs.w	r6, r0, r1, lsl #12
 80006f8:	d113      	bne.n	8000722 <__aeabi_dmul+0x24a>
 80006fa:	ea95 0f0c 	teq	r5, ip
 80006fe:	d105      	bne.n	800070c <__aeabi_dmul+0x234>
 8000700:	ea52 3603 	orrs.w	r6, r2, r3, lsl #12
 8000704:	bf1c      	itt	ne
 8000706:	4610      	movne	r0, r2
 8000708:	4619      	movne	r1, r3
 800070a:	d10a      	bne.n	8000722 <__aeabi_dmul+0x24a>
 800070c:	ea81 0103 	eor.w	r1, r1, r3
 8000710:	f001 4100 	and.w	r1, r1, #2147483648	@ 0x80000000
 8000714:	f041 41fe 	orr.w	r1, r1, #2130706432	@ 0x7f000000
 8000718:	f441 0170 	orr.w	r1, r1, #15728640	@ 0xf00000
 800071c:	f04f 0000 	mov.w	r0, #0
 8000720:	bd70      	pop	{r4, r5, r6, pc}
 8000722:	f041 41fe 	orr.w	r1, r1, #2130706432	@ 0x7f000000
 8000726:	f441 0178 	orr.w	r1, r1, #16252928	@ 0xf80000
 800072a:	bd70      	pop	{r4, r5, r6, pc}

0800072c <__aeabi_ddiv>:
 800072c:	b570      	push	{r4, r5, r6, lr}
 800072e:	f04f 0cff 	mov.w	ip, #255	@ 0xff
 8000732:	f44c 6ce0 	orr.w	ip, ip, #1792	@ 0x700
 8000736:	ea1c 5411 	ands.w	r4, ip, r1, lsr #20
 800073a:	bf1d      	ittte	ne
 800073c:	ea1c 5513 	andsne.w	r5, ip, r3, lsr #20
 8000740:	ea94 0f0c 	teqne	r4, ip
 8000744:	ea95 0f0c 	teqne	r5, ip
 8000748:	f000 f8a7 	bleq	800089a <__aeabi_ddiv+0x16e>
 800074c:	eba4 0405 	sub.w	r4, r4, r5
 8000750:	ea81 0e03 	eor.w	lr, r1, r3
 8000754:	ea52 3503 	orrs.w	r5, r2, r3, lsl #12
 8000758:	ea4f 3101 	mov.w	r1, r1, lsl #12
 800075c:	f000 8088 	beq.w	8000870 <__aeabi_ddiv+0x144>
 8000760:	ea4f 3303 	mov.w	r3, r3, lsl #12
 8000764:	f04f 5580 	mov.w	r5, #268435456	@ 0x10000000
 8000768:	ea45 1313 	orr.w	r3, r5, r3, lsr #4
 800076c:	ea43 6312 	orr.w	r3, r3, r2, lsr #24
 8000770:	ea4f 2202 	mov.w	r2, r2, lsl #8
 8000774:	ea45 1511 	orr.w	r5, r5, r1, lsr #4
 8000778:	ea45 6510 	orr.w	r5, r5, r0, lsr #24
 800077c:	ea4f 2600 	mov.w	r6, r0, lsl #8
 8000780:	f00e 4100 	and.w	r1, lr, #2147483648	@ 0x80000000
 8000784:	429d      	cmp	r5, r3
 8000786:	bf08      	it	eq
 8000788:	4296      	cmpeq	r6, r2
 800078a:	f144 04fd 	adc.w	r4, r4, #253	@ 0xfd
 800078e:	f504 7440 	add.w	r4, r4, #768	@ 0x300
 8000792:	d202      	bcs.n	800079a <__aeabi_ddiv+0x6e>
 8000794:	085b      	lsrs	r3, r3, #1
 8000796:	ea4f 0232 	mov.w	r2, r2, rrx
 800079a:	1ab6      	subs	r6, r6, r2
 800079c:	eb65 0503 	sbc.w	r5, r5, r3
 80007a0:	085b      	lsrs	r3, r3, #1
 80007a2:	ea4f 0232 	mov.w	r2, r2, rrx
 80007a6:	f44f 1080 	mov.w	r0, #1048576	@ 0x100000
 80007aa:	f44f 2c00 	mov.w	ip, #524288	@ 0x80000
 80007ae:	ebb6 0e02 	subs.w	lr, r6, r2
 80007b2:	eb75 0e03 	sbcs.w	lr, r5, r3
 80007b6:	bf22      	ittt	cs
 80007b8:	1ab6      	subcs	r6, r6, r2
 80007ba:	4675      	movcs	r5, lr
 80007bc:	ea40 000c 	orrcs.w	r0, r0, ip
 80007c0:	085b      	lsrs	r3, r3, #1
 80007c2:	ea4f 0232 	mov.w	r2, r2, rrx
 80007c6:	ebb6 0e02 	subs.w	lr, r6, r2
 80007ca:	eb75 0e03 	sbcs.w	lr, r5, r3
 80007ce:	bf22      	ittt	cs
 80007d0:	1ab6      	subcs	r6, r6, r2
 80007d2:	4675      	movcs	r5, lr
 80007d4:	ea40 005c 	orrcs.w	r0, r0, ip, lsr #1
 80007d8:	085b      	lsrs	r3, r3, #1
 80007da:	ea4f 0232 	mov.w	r2, r2, rrx
 80007de:	ebb6 0e02 	subs.w	lr, r6, r2
 80007e2:	eb75 0e03 	sbcs.w	lr, r5, r3
 80007e6:	bf22      	ittt	cs
 80007e8:	1ab6      	subcs	r6, r6, r2
 80007ea:	4675      	movcs	r5, lr
 80007ec:	ea40 009c 	orrcs.w	r0, r0, ip, lsr #2
 80007f0:	085b      	lsrs	r3, r3, #1
 80007f2:	ea4f 0232 	mov.w	r2, r2, rrx
 80007f6:	ebb6 0e02 	subs.w	lr, r6, r2
 80007fa:	eb75 0e03 	sbcs.w	lr, r5, r3
 80007fe:	bf22      	ittt	cs
 8000800:	1ab6      	subcs	r6, r6, r2
 8000802:	4675      	movcs	r5, lr
 8000804:	ea40 00dc 	orrcs.w	r0, r0, ip, lsr #3
 8000808:	ea55 0e06 	orrs.w	lr, r5, r6
 800080c:	d018      	beq.n	8000840 <__aeabi_ddiv+0x114>
 800080e:	ea4f 1505 	mov.w	r5, r5, lsl #4
 8000812:	ea45 7516 	orr.w	r5, r5, r6, lsr #28
 8000816:	ea4f 1606 	mov.w	r6, r6, lsl #4
 800081a:	ea4f 03c3 	mov.w	r3, r3, lsl #3
 800081e:	ea43 7352 	orr.w	r3, r3, r2, lsr #29
 8000822:	ea4f 02c2 	mov.w	r2, r2, lsl #3
 8000826:	ea5f 1c1c 	movs.w	ip, ip, lsr #4
 800082a:	d1c0      	bne.n	80007ae <__aeabi_ddiv+0x82>
 800082c:	f411 1f80 	tst.w	r1, #1048576	@ 0x100000
 8000830:	d10b      	bne.n	800084a <__aeabi_ddiv+0x11e>
 8000832:	ea41 0100 	orr.w	r1, r1, r0
 8000836:	f04f 0000 	mov.w	r0, #0
 800083a:	f04f 4c00 	mov.w	ip, #2147483648	@ 0x80000000
 800083e:	e7b6      	b.n	80007ae <__aeabi_ddiv+0x82>
 8000840:	f411 1f80 	tst.w	r1, #1048576	@ 0x100000
 8000844:	bf04      	itt	eq
 8000846:	4301      	orreq	r1, r0
 8000848:	2000      	moveq	r0, #0
 800084a:	f1b4 0cfd 	subs.w	ip, r4, #253	@ 0xfd
 800084e:	bf88      	it	hi
 8000850:	f5bc 6fe0 	cmphi.w	ip, #1792	@ 0x700
 8000854:	f63f aeaf 	bhi.w	80005b6 <__aeabi_dmul+0xde>
 8000858:	ebb5 0c03 	subs.w	ip, r5, r3
 800085c:	bf04      	itt	eq
 800085e:	ebb6 0c02 	subseq.w	ip, r6, r2
 8000862:	ea5f 0c50 	movseq.w	ip, r0, lsr #1
 8000866:	f150 0000 	adcs.w	r0, r0, #0
 800086a:	eb41 5104 	adc.w	r1, r1, r4, lsl #20
 800086e:	bd70      	pop	{r4, r5, r6, pc}
 8000870:	f00e 4e00 	and.w	lr, lr, #2147483648	@ 0x80000000
 8000874:	ea4e 3111 	orr.w	r1, lr, r1, lsr #12
 8000878:	eb14 045c 	adds.w	r4, r4, ip, lsr #1
 800087c:	bfc2      	ittt	gt
 800087e:	ebd4 050c 	rsbsgt	r5, r4, ip
 8000882:	ea41 5104 	orrgt.w	r1, r1, r4, lsl #20
 8000886:	bd70      	popgt	{r4, r5, r6, pc}
 8000888:	f441 1180 	orr.w	r1, r1, #1048576	@ 0x100000
 800088c:	f04f 0e00 	mov.w	lr, #0
 8000890:	3c01      	subs	r4, #1
 8000892:	e690      	b.n	80005b6 <__aeabi_dmul+0xde>
 8000894:	ea45 0e06 	orr.w	lr, r5, r6
 8000898:	e68d      	b.n	80005b6 <__aeabi_dmul+0xde>
 800089a:	ea0c 5513 	and.w	r5, ip, r3, lsr #20
 800089e:	ea94 0f0c 	teq	r4, ip
 80008a2:	bf08      	it	eq
 80008a4:	ea95 0f0c 	teqeq	r5, ip
 80008a8:	f43f af3b 	beq.w	8000722 <__aeabi_dmul+0x24a>
 80008ac:	ea94 0f0c 	teq	r4, ip
 80008b0:	d10a      	bne.n	80008c8 <__aeabi_ddiv+0x19c>
 80008b2:	ea50 3401 	orrs.w	r4, r0, r1, lsl #12
 80008b6:	f47f af34 	bne.w	8000722 <__aeabi_dmul+0x24a>
 80008ba:	ea95 0f0c 	teq	r5, ip
 80008be:	f47f af25 	bne.w	800070c <__aeabi_dmul+0x234>
 80008c2:	4610      	mov	r0, r2
 80008c4:	4619      	mov	r1, r3
 80008c6:	e72c      	b.n	8000722 <__aeabi_dmul+0x24a>
 80008c8:	ea95 0f0c 	teq	r5, ip
 80008cc:	d106      	bne.n	80008dc <__aeabi_ddiv+0x1b0>
 80008ce:	ea52 3503 	orrs.w	r5, r2, r3, lsl #12
 80008d2:	f43f aefd 	beq.w	80006d0 <__aeabi_dmul+0x1f8>
 80008d6:	4610      	mov	r0, r2
 80008d8:	4619      	mov	r1, r3
 80008da:	e722      	b.n	8000722 <__aeabi_dmul+0x24a>
 80008dc:	ea50 0641 	orrs.w	r6, r0, r1, lsl #1
 80008e0:	bf18      	it	ne
 80008e2:	ea52 0643 	orrsne.w	r6, r2, r3, lsl #1
 80008e6:	f47f aec5 	bne.w	8000674 <__aeabi_dmul+0x19c>
 80008ea:	ea50 0441 	orrs.w	r4, r0, r1, lsl #1
 80008ee:	f47f af0d 	bne.w	800070c <__aeabi_dmul+0x234>
 80008f2:	ea52 0543 	orrs.w	r5, r2, r3, lsl #1
 80008f6:	f47f aeeb 	bne.w	80006d0 <__aeabi_dmul+0x1f8>
 80008fa:	e712      	b.n	8000722 <__aeabi_dmul+0x24a>

080008fc <__gedf2>:
 80008fc:	f04f 3cff 	mov.w	ip, #4294967295	@ 0xffffffff
 8000900:	e006      	b.n	8000910 <__cmpdf2+0x4>
 8000902:	bf00      	nop

08000904 <__ledf2>:
 8000904:	f04f 0c01 	mov.w	ip, #1
 8000908:	e002      	b.n	8000910 <__cmpdf2+0x4>
 800090a:	bf00      	nop

0800090c <__cmpdf2>:
 800090c:	f04f 0c01 	mov.w	ip, #1
 8000910:	f84d cd04 	str.w	ip, [sp, #-4]!
 8000914:	ea4f 0c41 	mov.w	ip, r1, lsl #1
 8000918:	ea7f 5c6c 	mvns.w	ip, ip, asr #21
 800091c:	ea4f 0c43 	mov.w	ip, r3, lsl #1
 8000920:	bf18      	it	ne
 8000922:	ea7f 5c6c 	mvnsne.w	ip, ip, asr #21
 8000926:	d01b      	beq.n	8000960 <__cmpdf2+0x54>
 8000928:	b001      	add	sp, #4
 800092a:	ea50 0c41 	orrs.w	ip, r0, r1, lsl #1
 800092e:	bf0c      	ite	eq
 8000930:	ea52 0c43 	orrseq.w	ip, r2, r3, lsl #1
 8000934:	ea91 0f03 	teqne	r1, r3
 8000938:	bf02      	ittt	eq
 800093a:	ea90 0f02 	teqeq	r0, r2
 800093e:	2000      	moveq	r0, #0
 8000940:	4770      	bxeq	lr
 8000942:	f110 0f00 	cmn.w	r0, #0
 8000946:	ea91 0f03 	teq	r1, r3
 800094a:	bf58      	it	pl
 800094c:	4299      	cmppl	r1, r3
 800094e:	bf08      	it	eq
 8000950:	4290      	cmpeq	r0, r2
 8000952:	bf2c      	ite	cs
 8000954:	17d8      	asrcs	r0, r3, #31
 8000956:	ea6f 70e3 	mvncc.w	r0, r3, asr #31
 800095a:	f040 0001 	orr.w	r0, r0, #1
 800095e:	4770      	bx	lr
 8000960:	ea4f 0c41 	mov.w	ip, r1, lsl #1
 8000964:	ea7f 5c6c 	mvns.w	ip, ip, asr #21
 8000968:	d102      	bne.n	8000970 <__cmpdf2+0x64>
 800096a:	ea50 3c01 	orrs.w	ip, r0, r1, lsl #12
 800096e:	d107      	bne.n	8000980 <__cmpdf2+0x74>
 8000970:	ea4f 0c43 	mov.w	ip, r3, lsl #1
 8000974:	ea7f 5c6c 	mvns.w	ip, ip, asr #21
 8000978:	d1d6      	bne.n	8000928 <__cmpdf2+0x1c>
 800097a:	ea52 3c03 	orrs.w	ip, r2, r3, lsl #12
 800097e:	d0d3      	beq.n	8000928 <__cmpdf2+0x1c>
 8000980:	f85d 0b04 	ldr.w	r0, [sp], #4
 8000984:	4770      	bx	lr
 8000986:	bf00      	nop

08000988 <__aeabi_cdrcmple>:
 8000988:	4684      	mov	ip, r0
 800098a:	4610      	mov	r0, r2
 800098c:	4662      	mov	r2, ip
 800098e:	468c      	mov	ip, r1
 8000990:	4619      	mov	r1, r3
 8000992:	4663      	mov	r3, ip
 8000994:	e000      	b.n	8000998 <__aeabi_cdcmpeq>
 8000996:	bf00      	nop

08000998 <__aeabi_cdcmpeq>:
 8000998:	b501      	push	{r0, lr}
 800099a:	f7ff ffb7 	bl	800090c <__cmpdf2>
 800099e:	2800      	cmp	r0, #0
 80009a0:	bf48      	it	mi
 80009a2:	f110 0f00 	cmnmi.w	r0, #0
 80009a6:	bd01      	pop	{r0, pc}

080009a8 <__aeabi_dcmpeq>:
 80009a8:	f84d ed08 	str.w	lr, [sp, #-8]!
 80009ac:	f7ff fff4 	bl	8000998 <__aeabi_cdcmpeq>
 80009b0:	bf0c      	ite	eq
 80009b2:	2001      	moveq	r0, #1
 80009b4:	2000      	movne	r0, #0
 80009b6:	f85d fb08 	ldr.w	pc, [sp], #8
 80009ba:	bf00      	nop

080009bc <__aeabi_dcmplt>:
 80009bc:	f84d ed08 	str.w	lr, [sp, #-8]!
 80009c0:	f7ff ffea 	bl	8000998 <__aeabi_cdcmpeq>
 80009c4:	bf34      	ite	cc
 80009c6:	2001      	movcc	r0, #1
 80009c8:	2000      	movcs	r0, #0
 80009ca:	f85d fb08 	ldr.w	pc, [sp], #8
 80009ce:	bf00      	nop

080009d0 <__aeabi_dcmple>:
 80009d0:	f84d ed08 	str.w	lr, [sp, #-8]!
 80009d4:	f7ff ffe0 	bl	8000998 <__aeabi_cdcmpeq>
 80009d8:	bf94      	ite	ls
 80009da:	2001      	movls	r0, #1
 80009dc:	2000      	movhi	r0, #0
 80009de:	f85d fb08 	ldr.w	pc, [sp], #8
 80009e2:	bf00      	nop

080009e4 <__aeabi_dcmpge>:
 80009e4:	f84d ed08 	str.w	lr, [sp, #-8]!
 80009e8:	f7ff ffce 	bl	8000988 <__aeabi_cdrcmple>
 80009ec:	bf94      	ite	ls
 80009ee:	2001      	movls	r0, #1
 80009f0:	2000      	movhi	r0, #0
 80009f2:	f85d fb08 	ldr.w	pc, [sp], #8
 80009f6:	bf00      	nop

080009f8 <__aeabi_dcmpgt>:
 80009f8:	f84d ed08 	str.w	lr, [sp, #-8]!
 80009fc:	f7ff ffc4 	bl	8000988 <__aeabi_cdrcmple>
 8000a00:	bf34      	ite	cc
 8000a02:	2001      	movcc	r0, #1
 8000a04:	2000      	movcs	r0, #0
 8000a06:	f85d fb08 	ldr.w	pc, [sp], #8
 8000a0a:	bf00      	nop

08000a0c <__aeabi_dcmpun>:
 8000a0c:	ea4f 0c41 	mov.w	ip, r1, lsl #1
 8000a10:	ea7f 5c6c 	mvns.w	ip, ip, asr #21
 8000a14:	d102      	bne.n	8000a1c <__aeabi_dcmpun+0x10>
 8000a16:	ea50 3c01 	orrs.w	ip, r0, r1, lsl #12
 8000a1a:	d10a      	bne.n	8000a32 <__aeabi_dcmpun+0x26>
 8000a1c:	ea4f 0c43 	mov.w	ip, r3, lsl #1
 8000a20:	ea7f 5c6c 	mvns.w	ip, ip, asr #21
 8000a24:	d102      	bne.n	8000a2c <__aeabi_dcmpun+0x20>
 8000a26:	ea52 3c03 	orrs.w	ip, r2, r3, lsl #12
 8000a2a:	d102      	bne.n	8000a32 <__aeabi_dcmpun+0x26>
 8000a2c:	f04f 0000 	mov.w	r0, #0
 8000a30:	4770      	bx	lr
 8000a32:	f04f 0001 	mov.w	r0, #1
 8000a36:	4770      	bx	lr

08000a38 <__aeabi_d2iz>:
 8000a38:	ea4f 0241 	mov.w	r2, r1, lsl #1
 8000a3c:	f512 1200 	adds.w	r2, r2, #2097152	@ 0x200000
 8000a40:	d215      	bcs.n	8000a6e <__aeabi_d2iz+0x36>
 8000a42:	d511      	bpl.n	8000a68 <__aeabi_d2iz+0x30>
 8000a44:	f46f 7378 	mvn.w	r3, #992	@ 0x3e0
 8000a48:	ebb3 5262 	subs.w	r2, r3, r2, asr #21
 8000a4c:	d912      	bls.n	8000a74 <__aeabi_d2iz+0x3c>
 8000a4e:	ea4f 23c1 	mov.w	r3, r1, lsl #11
 8000a52:	f043 4300 	orr.w	r3, r3, #2147483648	@ 0x80000000
 8000a56:	ea43 5350 	orr.w	r3, r3, r0, lsr #21
 8000a5a:	f011 4f00 	tst.w	r1, #2147483648	@ 0x80000000
 8000a5e:	fa23 f002 	lsr.w	r0, r3, r2
 8000a62:	bf18      	it	ne
 8000a64:	4240      	negne	r0, r0
 8000a66:	4770      	bx	lr
 8000a68:	f04f 0000 	mov.w	r0, #0
 8000a6c:	4770      	bx	lr
 8000a6e:	ea50 3001 	orrs.w	r0, r0, r1, lsl #12
 8000a72:	d105      	bne.n	8000a80 <__aeabi_d2iz+0x48>
 8000a74:	f011 4000 	ands.w	r0, r1, #2147483648	@ 0x80000000
 8000a78:	bf08      	it	eq
 8000a7a:	f06f 4000 	mvneq.w	r0, #2147483648	@ 0x80000000
 8000a7e:	4770      	bx	lr
 8000a80:	f04f 0000 	mov.w	r0, #0
 8000a84:	4770      	bx	lr
 8000a86:	bf00      	nop

08000a88 <__aeabi_d2uiz>:
 8000a88:	004a      	lsls	r2, r1, #1
 8000a8a:	d211      	bcs.n	8000ab0 <__aeabi_d2uiz+0x28>
 8000a8c:	f512 1200 	adds.w	r2, r2, #2097152	@ 0x200000
 8000a90:	d211      	bcs.n	8000ab6 <__aeabi_d2uiz+0x2e>
 8000a92:	d50d      	bpl.n	8000ab0 <__aeabi_d2uiz+0x28>
 8000a94:	f46f 7378 	mvn.w	r3, #992	@ 0x3e0
 8000a98:	ebb3 5262 	subs.w	r2, r3, r2, asr #21
 8000a9c:	d40e      	bmi.n	8000abc <__aeabi_d2uiz+0x34>
 8000a9e:	ea4f 23c1 	mov.w	r3, r1, lsl #11
 8000aa2:	f043 4300 	orr.w	r3, r3, #2147483648	@ 0x80000000
 8000aa6:	ea43 5350 	orr.w	r3, r3, r0, lsr #21
 8000aaa:	fa23 f002 	lsr.w	r0, r3, r2
 8000aae:	4770      	bx	lr
 8000ab0:	f04f 0000 	mov.w	r0, #0
 8000ab4:	4770      	bx	lr
 8000ab6:	ea50 3001 	orrs.w	r0, r0, r1, lsl #12
 8000aba:	d102      	bne.n	8000ac2 <__aeabi_d2uiz+0x3a>
 8000abc:	f04f 30ff 	mov.w	r0, #4294967295	@ 0xffffffff
 8000ac0:	4770      	bx	lr
 8000ac2:	f04f 0000 	mov.w	r0, #0
 8000ac6:	4770      	bx	lr

08000ac8 <__aeabi_frsub>:
 8000ac8:	f080 4000 	eor.w	r0, r0, #2147483648	@ 0x80000000
 8000acc:	e002      	b.n	8000ad4 <__addsf3>
 8000ace:	bf00      	nop

08000ad0 <__aeabi_fsub>:
 8000ad0:	f081 4100 	eor.w	r1, r1, #2147483648	@ 0x80000000

08000ad4 <__addsf3>:
 8000ad4:	0042      	lsls	r2, r0, #1
 8000ad6:	bf1f      	itttt	ne
 8000ad8:	ea5f 0341 	movsne.w	r3, r1, lsl #1
 8000adc:	ea92 0f03 	teqne	r2, r3
 8000ae0:	ea7f 6c22 	mvnsne.w	ip, r2, asr #24
 8000ae4:	ea7f 6c23 	mvnsne.w	ip, r3, asr #24
 8000ae8:	d06a      	beq.n	8000bc0 <__addsf3+0xec>
 8000aea:	ea4f 6212 	mov.w	r2, r2, lsr #24
 8000aee:	ebd2 6313 	rsbs	r3, r2, r3, lsr #24
 8000af2:	bfc1      	itttt	gt
 8000af4:	18d2      	addgt	r2, r2, r3
 8000af6:	4041      	eorgt	r1, r0
 8000af8:	4048      	eorgt	r0, r1
 8000afa:	4041      	eorgt	r1, r0
 8000afc:	bfb8      	it	lt
 8000afe:	425b      	neglt	r3, r3
 8000b00:	2b19      	cmp	r3, #25
 8000b02:	bf88      	it	hi
 8000b04:	4770      	bxhi	lr
 8000b06:	f010 4f00 	tst.w	r0, #2147483648	@ 0x80000000
 8000b0a:	f440 0000 	orr.w	r0, r0, #8388608	@ 0x800000
 8000b0e:	f020 407f 	bic.w	r0, r0, #4278190080	@ 0xff000000
 8000b12:	bf18      	it	ne
 8000b14:	4240      	negne	r0, r0
 8000b16:	f011 4f00 	tst.w	r1, #2147483648	@ 0x80000000
 8000b1a:	f441 0100 	orr.w	r1, r1, #8388608	@ 0x800000
 8000b1e:	f021 417f 	bic.w	r1, r1, #4278190080	@ 0xff000000
 8000b22:	bf18      	it	ne
 8000b24:	4249      	negne	r1, r1
 8000b26:	ea92 0f03 	teq	r2, r3
 8000b2a:	d03f      	beq.n	8000bac <__addsf3+0xd8>
 8000b2c:	f1a2 0201 	sub.w	r2, r2, #1
 8000b30:	fa41 fc03 	asr.w	ip, r1, r3
 8000b34:	eb10 000c 	adds.w	r0, r0, ip
 8000b38:	f1c3 0320 	rsb	r3, r3, #32
 8000b3c:	fa01 f103 	lsl.w	r1, r1, r3
 8000b40:	f000 4300 	and.w	r3, r0, #2147483648	@ 0x80000000
 8000b44:	d502      	bpl.n	8000b4c <__addsf3+0x78>
 8000b46:	4249      	negs	r1, r1
 8000b48:	eb60 0040 	sbc.w	r0, r0, r0, lsl #1
 8000b4c:	f5b0 0f00 	cmp.w	r0, #8388608	@ 0x800000
 8000b50:	d313      	bcc.n	8000b7a <__addsf3+0xa6>
 8000b52:	f1b0 7f80 	cmp.w	r0, #16777216	@ 0x1000000
 8000b56:	d306      	bcc.n	8000b66 <__addsf3+0x92>
 8000b58:	0840      	lsrs	r0, r0, #1
 8000b5a:	ea4f 0131 	mov.w	r1, r1, rrx
 8000b5e:	f102 0201 	add.w	r2, r2, #1
 8000b62:	2afe      	cmp	r2, #254	@ 0xfe
 8000b64:	d251      	bcs.n	8000c0a <__addsf3+0x136>
 8000b66:	f1b1 4f00 	cmp.w	r1, #2147483648	@ 0x80000000
 8000b6a:	eb40 50c2 	adc.w	r0, r0, r2, lsl #23
 8000b6e:	bf08      	it	eq
 8000b70:	f020 0001 	biceq.w	r0, r0, #1
 8000b74:	ea40 0003 	orr.w	r0, r0, r3
 8000b78:	4770      	bx	lr
 8000b7a:	0049      	lsls	r1, r1, #1
 8000b7c:	eb40 0000 	adc.w	r0, r0, r0
 8000b80:	3a01      	subs	r2, #1
 8000b82:	bf28      	it	cs
 8000b84:	f5b0 0f00 	cmpcs.w	r0, #8388608	@ 0x800000
 8000b88:	d2ed      	bcs.n	8000b66 <__addsf3+0x92>
 8000b8a:	fab0 fc80 	clz	ip, r0
 8000b8e:	f1ac 0c08 	sub.w	ip, ip, #8
 8000b92:	ebb2 020c 	subs.w	r2, r2, ip
 8000b96:	fa00 f00c 	lsl.w	r0, r0, ip
 8000b9a:	bfaa      	itet	ge
 8000b9c:	eb00 50c2 	addge.w	r0, r0, r2, lsl #23
 8000ba0:	4252      	neglt	r2, r2
 8000ba2:	4318      	orrge	r0, r3
 8000ba4:	bfbc      	itt	lt
 8000ba6:	40d0      	lsrlt	r0, r2
 8000ba8:	4318      	orrlt	r0, r3
 8000baa:	4770      	bx	lr
 8000bac:	f092 0f00 	teq	r2, #0
 8000bb0:	f481 0100 	eor.w	r1, r1, #8388608	@ 0x800000
 8000bb4:	bf06      	itte	eq
 8000bb6:	f480 0000 	eoreq.w	r0, r0, #8388608	@ 0x800000
 8000bba:	3201      	addeq	r2, #1
 8000bbc:	3b01      	subne	r3, #1
 8000bbe:	e7b5      	b.n	8000b2c <__addsf3+0x58>
 8000bc0:	ea4f 0341 	mov.w	r3, r1, lsl #1
 8000bc4:	ea7f 6c22 	mvns.w	ip, r2, asr #24
 8000bc8:	bf18      	it	ne
 8000bca:	ea7f 6c23 	mvnsne.w	ip, r3, asr #24
 8000bce:	d021      	beq.n	8000c14 <__addsf3+0x140>
 8000bd0:	ea92 0f03 	teq	r2, r3
 8000bd4:	d004      	beq.n	8000be0 <__addsf3+0x10c>
 8000bd6:	f092 0f00 	teq	r2, #0
 8000bda:	bf08      	it	eq
 8000bdc:	4608      	moveq	r0, r1
 8000bde:	4770      	bx	lr
 8000be0:	ea90 0f01 	teq	r0, r1
 8000be4:	bf1c      	itt	ne
 8000be6:	2000      	movne	r0, #0
 8000be8:	4770      	bxne	lr
 8000bea:	f012 4f7f 	tst.w	r2, #4278190080	@ 0xff000000
 8000bee:	d104      	bne.n	8000bfa <__addsf3+0x126>
 8000bf0:	0040      	lsls	r0, r0, #1
 8000bf2:	bf28      	it	cs
 8000bf4:	f040 4000 	orrcs.w	r0, r0, #2147483648	@ 0x80000000
 8000bf8:	4770      	bx	lr
 8000bfa:	f112 7200 	adds.w	r2, r2, #33554432	@ 0x2000000
 8000bfe:	bf3c      	itt	cc
 8000c00:	f500 0000 	addcc.w	r0, r0, #8388608	@ 0x800000
 8000c04:	4770      	bxcc	lr
 8000c06:	f000 4300 	and.w	r3, r0, #2147483648	@ 0x80000000
 8000c0a:	f043 40fe 	orr.w	r0, r3, #2130706432	@ 0x7f000000
 8000c0e:	f440 0000 	orr.w	r0, r0, #8388608	@ 0x800000
 8000c12:	4770      	bx	lr
 8000c14:	ea7f 6222 	mvns.w	r2, r2, asr #24
 8000c18:	bf16      	itet	ne
 8000c1a:	4608      	movne	r0, r1
 8000c1c:	ea7f 6323 	mvnseq.w	r3, r3, asr #24
 8000c20:	4601      	movne	r1, r0
 8000c22:	0242      	lsls	r2, r0, #9
 8000c24:	bf06      	itte	eq
 8000c26:	ea5f 2341 	movseq.w	r3, r1, lsl #9
 8000c2a:	ea90 0f01 	teqeq	r0, r1
 8000c2e:	f440 0080 	orrne.w	r0, r0, #4194304	@ 0x400000
 8000c32:	4770      	bx	lr

08000c34 <__aeabi_ui2f>:
 8000c34:	f04f 0300 	mov.w	r3, #0
 8000c38:	e004      	b.n	8000c44 <__aeabi_i2f+0x8>
 8000c3a:	bf00      	nop

08000c3c <__aeabi_i2f>:
 8000c3c:	f010 4300 	ands.w	r3, r0, #2147483648	@ 0x80000000
 8000c40:	bf48      	it	mi
 8000c42:	4240      	negmi	r0, r0
 8000c44:	ea5f 0c00 	movs.w	ip, r0
 8000c48:	bf08      	it	eq
 8000c4a:	4770      	bxeq	lr
 8000c4c:	f043 4396 	orr.w	r3, r3, #1258291200	@ 0x4b000000
 8000c50:	4601      	mov	r1, r0
 8000c52:	f04f 0000 	mov.w	r0, #0
 8000c56:	e01c      	b.n	8000c92 <__aeabi_l2f+0x2a>

08000c58 <__aeabi_ul2f>:
 8000c58:	ea50 0201 	orrs.w	r2, r0, r1
 8000c5c:	bf08      	it	eq
 8000c5e:	4770      	bxeq	lr
 8000c60:	f04f 0300 	mov.w	r3, #0
 8000c64:	e00a      	b.n	8000c7c <__aeabi_l2f+0x14>
 8000c66:	bf00      	nop

08000c68 <__aeabi_l2f>:
 8000c68:	ea50 0201 	orrs.w	r2, r0, r1
 8000c6c:	bf08      	it	eq
 8000c6e:	4770      	bxeq	lr
 8000c70:	f011 4300 	ands.w	r3, r1, #2147483648	@ 0x80000000
 8000c74:	d502      	bpl.n	8000c7c <__aeabi_l2f+0x14>
 8000c76:	4240      	negs	r0, r0
 8000c78:	eb61 0141 	sbc.w	r1, r1, r1, lsl #1
 8000c7c:	ea5f 0c01 	movs.w	ip, r1
 8000c80:	bf02      	ittt	eq
 8000c82:	4684      	moveq	ip, r0
 8000c84:	4601      	moveq	r1, r0
 8000c86:	2000      	moveq	r0, #0
 8000c88:	f043 43b6 	orr.w	r3, r3, #1526726656	@ 0x5b000000
 8000c8c:	bf08      	it	eq
 8000c8e:	f1a3 5380 	subeq.w	r3, r3, #268435456	@ 0x10000000
 8000c92:	f5a3 0300 	sub.w	r3, r3, #8388608	@ 0x800000
 8000c96:	fabc f28c 	clz	r2, ip
 8000c9a:	3a08      	subs	r2, #8
 8000c9c:	eba3 53c2 	sub.w	r3, r3, r2, lsl #23
 8000ca0:	db10      	blt.n	8000cc4 <__aeabi_l2f+0x5c>
 8000ca2:	fa01 fc02 	lsl.w	ip, r1, r2
 8000ca6:	4463      	add	r3, ip
 8000ca8:	fa00 fc02 	lsl.w	ip, r0, r2
 8000cac:	f1c2 0220 	rsb	r2, r2, #32
 8000cb0:	f1bc 4f00 	cmp.w	ip, #2147483648	@ 0x80000000
 8000cb4:	fa20 f202 	lsr.w	r2, r0, r2
 8000cb8:	eb43 0002 	adc.w	r0, r3, r2
 8000cbc:	bf08      	it	eq
 8000cbe:	f020 0001 	biceq.w	r0, r0, #1
 8000cc2:	4770      	bx	lr
 8000cc4:	f102 0220 	add.w	r2, r2, #32
 8000cc8:	fa01 fc02 	lsl.w	ip, r1, r2
 8000ccc:	f1c2 0220 	rsb	r2, r2, #32
 8000cd0:	ea50 004c 	orrs.w	r0, r0, ip, lsl #1
 8000cd4:	fa21 f202 	lsr.w	r2, r1, r2
 8000cd8:	eb43 0002 	adc.w	r0, r3, r2
 8000cdc:	bf08      	it	eq
 8000cde:	ea20 70dc 	biceq.w	r0, r0, ip, lsr #31
 8000ce2:	4770      	bx	lr

08000ce4 <__aeabi_fmul>:
 8000ce4:	f04f 0cff 	mov.w	ip, #255	@ 0xff
 8000ce8:	ea1c 52d0 	ands.w	r2, ip, r0, lsr #23
 8000cec:	bf1e      	ittt	ne
 8000cee:	ea1c 53d1 	andsne.w	r3, ip, r1, lsr #23
 8000cf2:	ea92 0f0c 	teqne	r2, ip
 8000cf6:	ea93 0f0c 	teqne	r3, ip
 8000cfa:	d06f      	beq.n	8000ddc <__aeabi_fmul+0xf8>
 8000cfc:	441a      	add	r2, r3
 8000cfe:	ea80 0c01 	eor.w	ip, r0, r1
 8000d02:	0240      	lsls	r0, r0, #9
 8000d04:	bf18      	it	ne
 8000d06:	ea5f 2141 	movsne.w	r1, r1, lsl #9
 8000d0a:	d01e      	beq.n	8000d4a <__aeabi_fmul+0x66>
 8000d0c:	f04f 6300 	mov.w	r3, #134217728	@ 0x8000000
 8000d10:	ea43 1050 	orr.w	r0, r3, r0, lsr #5
 8000d14:	ea43 1151 	orr.w	r1, r3, r1, lsr #5
 8000d18:	fba0 3101 	umull	r3, r1, r0, r1
 8000d1c:	f00c 4000 	and.w	r0, ip, #2147483648	@ 0x80000000
 8000d20:	f5b1 0f00 	cmp.w	r1, #8388608	@ 0x800000
 8000d24:	bf3e      	ittt	cc
 8000d26:	0049      	lslcc	r1, r1, #1
 8000d28:	ea41 71d3 	orrcc.w	r1, r1, r3, lsr #31
 8000d2c:	005b      	lslcc	r3, r3, #1
 8000d2e:	ea40 0001 	orr.w	r0, r0, r1
 8000d32:	f162 027f 	sbc.w	r2, r2, #127	@ 0x7f
 8000d36:	2afd      	cmp	r2, #253	@ 0xfd
 8000d38:	d81d      	bhi.n	8000d76 <__aeabi_fmul+0x92>
 8000d3a:	f1b3 4f00 	cmp.w	r3, #2147483648	@ 0x80000000
 8000d3e:	eb40 50c2 	adc.w	r0, r0, r2, lsl #23
 8000d42:	bf08      	it	eq
 8000d44:	f020 0001 	biceq.w	r0, r0, #1
 8000d48:	4770      	bx	lr
 8000d4a:	f090 0f00 	teq	r0, #0
 8000d4e:	f00c 4c00 	and.w	ip, ip, #2147483648	@ 0x80000000
 8000d52:	bf08      	it	eq
 8000d54:	0249      	lsleq	r1, r1, #9
 8000d56:	ea4c 2050 	orr.w	r0, ip, r0, lsr #9
 8000d5a:	ea40 2051 	orr.w	r0, r0, r1, lsr #9
 8000d5e:	3a7f      	subs	r2, #127	@ 0x7f
 8000d60:	bfc2      	ittt	gt
 8000d62:	f1d2 03ff 	rsbsgt	r3, r2, #255	@ 0xff
 8000d66:	ea40 50c2 	orrgt.w	r0, r0, r2, lsl #23
 8000d6a:	4770      	bxgt	lr
 8000d6c:	f440 0000 	orr.w	r0, r0, #8388608	@ 0x800000
 8000d70:	f04f 0300 	mov.w	r3, #0
 8000d74:	3a01      	subs	r2, #1
 8000d76:	dc5d      	bgt.n	8000e34 <__aeabi_fmul+0x150>
 8000d78:	f112 0f19 	cmn.w	r2, #25
 8000d7c:	bfdc      	itt	le
 8000d7e:	f000 4000 	andle.w	r0, r0, #2147483648	@ 0x80000000
 8000d82:	4770      	bxle	lr
 8000d84:	f1c2 0200 	rsb	r2, r2, #0
 8000d88:	0041      	lsls	r1, r0, #1
 8000d8a:	fa21 f102 	lsr.w	r1, r1, r2
 8000d8e:	f1c2 0220 	rsb	r2, r2, #32
 8000d92:	fa00 fc02 	lsl.w	ip, r0, r2
 8000d96:	ea5f 0031 	movs.w	r0, r1, rrx
 8000d9a:	f140 0000 	adc.w	r0, r0, #0
 8000d9e:	ea53 034c 	orrs.w	r3, r3, ip, lsl #1
 8000da2:	bf08      	it	eq
 8000da4:	ea20 70dc 	biceq.w	r0, r0, ip, lsr #31
 8000da8:	4770      	bx	lr
 8000daa:	f092 0f00 	teq	r2, #0
 8000dae:	f000 4c00 	and.w	ip, r0, #2147483648	@ 0x80000000
 8000db2:	bf02      	ittt	eq
 8000db4:	0040      	lsleq	r0, r0, #1
 8000db6:	f410 0f00 	tsteq.w	r0, #8388608	@ 0x800000
 8000dba:	3a01      	subeq	r2, #1
 8000dbc:	d0f9      	beq.n	8000db2 <__aeabi_fmul+0xce>
 8000dbe:	ea40 000c 	orr.w	r0, r0, ip
 8000dc2:	f093 0f00 	teq	r3, #0
 8000dc6:	f001 4c00 	and.w	ip, r1, #2147483648	@ 0x80000000
 8000dca:	bf02      	ittt	eq
 8000dcc:	0049      	lsleq	r1, r1, #1
 8000dce:	f411 0f00 	tsteq.w	r1, #8388608	@ 0x800000
 8000dd2:	3b01      	subeq	r3, #1
 8000dd4:	d0f9      	beq.n	8000dca <__aeabi_fmul+0xe6>
 8000dd6:	ea41 010c 	orr.w	r1, r1, ip
 8000dda:	e78f      	b.n	8000cfc <__aeabi_fmul+0x18>
 8000ddc:	ea0c 53d1 	and.w	r3, ip, r1, lsr #23
 8000de0:	ea92 0f0c 	teq	r2, ip
 8000de4:	bf18      	it	ne
 8000de6:	ea93 0f0c 	teqne	r3, ip
 8000dea:	d00a      	beq.n	8000e02 <__aeabi_fmul+0x11e>
 8000dec:	f030 4c00 	bics.w	ip, r0, #2147483648	@ 0x80000000
 8000df0:	bf18      	it	ne
 8000df2:	f031 4c00 	bicsne.w	ip, r1, #2147483648	@ 0x80000000
 8000df6:	d1d8      	bne.n	8000daa <__aeabi_fmul+0xc6>
 8000df8:	ea80 0001 	eor.w	r0, r0, r1
 8000dfc:	f000 4000 	and.w	r0, r0, #2147483648	@ 0x80000000
 8000e00:	4770      	bx	lr
 8000e02:	f090 0f00 	teq	r0, #0
 8000e06:	bf17      	itett	ne
 8000e08:	f090 4f00 	teqne	r0, #2147483648	@ 0x80000000
 8000e0c:	4608      	moveq	r0, r1
 8000e0e:	f091 0f00 	teqne	r1, #0
 8000e12:	f091 4f00 	teqne	r1, #2147483648	@ 0x80000000
 8000e16:	d014      	beq.n	8000e42 <__aeabi_fmul+0x15e>
 8000e18:	ea92 0f0c 	teq	r2, ip
 8000e1c:	d101      	bne.n	8000e22 <__aeabi_fmul+0x13e>
 8000e1e:	0242      	lsls	r2, r0, #9
 8000e20:	d10f      	bne.n	8000e42 <__aeabi_fmul+0x15e>
 8000e22:	ea93 0f0c 	teq	r3, ip
 8000e26:	d103      	bne.n	8000e30 <__aeabi_fmul+0x14c>
 8000e28:	024b      	lsls	r3, r1, #9
 8000e2a:	bf18      	it	ne
 8000e2c:	4608      	movne	r0, r1
 8000e2e:	d108      	bne.n	8000e42 <__aeabi_fmul+0x15e>
 8000e30:	ea80 0001 	eor.w	r0, r0, r1
 8000e34:	f000 4000 	and.w	r0, r0, #2147483648	@ 0x80000000
 8000e38:	f040 40fe 	orr.w	r0, r0, #2130706432	@ 0x7f000000
 8000e3c:	f440 0000 	orr.w	r0, r0, #8388608	@ 0x800000
 8000e40:	4770      	bx	lr
 8000e42:	f040 40fe 	orr.w	r0, r0, #2130706432	@ 0x7f000000
 8000e46:	f440 0040 	orr.w	r0, r0, #12582912	@ 0xc00000
 8000e4a:	4770      	bx	lr

08000e4c <__aeabi_fdiv>:
 8000e4c:	f04f 0cff 	mov.w	ip, #255	@ 0xff
 8000e50:	ea1c 52d0 	ands.w	r2, ip, r0, lsr #23
 8000e54:	bf1e      	ittt	ne
 8000e56:	ea1c 53d1 	andsne.w	r3, ip, r1, lsr #23
 8000e5a:	ea92 0f0c 	teqne	r2, ip
 8000e5e:	ea93 0f0c 	teqne	r3, ip
 8000e62:	d069      	beq.n	8000f38 <__aeabi_fdiv+0xec>
 8000e64:	eba2 0203 	sub.w	r2, r2, r3
 8000e68:	ea80 0c01 	eor.w	ip, r0, r1
 8000e6c:	0249      	lsls	r1, r1, #9
 8000e6e:	ea4f 2040 	mov.w	r0, r0, lsl #9
 8000e72:	d037      	beq.n	8000ee4 <__aeabi_fdiv+0x98>
 8000e74:	f04f 5380 	mov.w	r3, #268435456	@ 0x10000000
 8000e78:	ea43 1111 	orr.w	r1, r3, r1, lsr #4
 8000e7c:	ea43 1310 	orr.w	r3, r3, r0, lsr #4
 8000e80:	f00c 4000 	and.w	r0, ip, #2147483648	@ 0x80000000
 8000e84:	428b      	cmp	r3, r1
 8000e86:	bf38      	it	cc
 8000e88:	005b      	lslcc	r3, r3, #1
 8000e8a:	f142 027d 	adc.w	r2, r2, #125	@ 0x7d
 8000e8e:	f44f 0c00 	mov.w	ip, #8388608	@ 0x800000
 8000e92:	428b      	cmp	r3, r1
 8000e94:	bf24      	itt	cs
 8000e96:	1a5b      	subcs	r3, r3, r1
 8000e98:	ea40 000c 	orrcs.w	r0, r0, ip
 8000e9c:	ebb3 0f51 	cmp.w	r3, r1, lsr #1
 8000ea0:	bf24      	itt	cs
 8000ea2:	eba3 0351 	subcs.w	r3, r3, r1, lsr #1
 8000ea6:	ea40 005c 	orrcs.w	r0, r0, ip, lsr #1
 8000eaa:	ebb3 0f91 	cmp.w	r3, r1, lsr #2
 8000eae:	bf24      	itt	cs
 8000eb0:	eba3 0391 	subcs.w	r3, r3, r1, lsr #2
 8000eb4:	ea40 009c 	orrcs.w	r0, r0, ip, lsr #2
 8000eb8:	ebb3 0fd1 	cmp.w	r3, r1, lsr #3
 8000ebc:	bf24      	itt	cs
 8000ebe:	eba3 03d1 	subcs.w	r3, r3, r1, lsr #3
 8000ec2:	ea40 00dc 	orrcs.w	r0, r0, ip, lsr #3
 8000ec6:	011b      	lsls	r3, r3, #4
 8000ec8:	bf18      	it	ne
 8000eca:	ea5f 1c1c 	movsne.w	ip, ip, lsr #4
 8000ece:	d1e0      	bne.n	8000e92 <__aeabi_fdiv+0x46>
 8000ed0:	2afd      	cmp	r2, #253	@ 0xfd
 8000ed2:	f63f af50 	bhi.w	8000d76 <__aeabi_fmul+0x92>
 8000ed6:	428b      	cmp	r3, r1
 8000ed8:	eb40 50c2 	adc.w	r0, r0, r2, lsl #23
 8000edc:	bf08      	it	eq
 8000ede:	f020 0001 	biceq.w	r0, r0, #1
 8000ee2:	4770      	bx	lr
 8000ee4:	f00c 4c00 	and.w	ip, ip, #2147483648	@ 0x80000000
 8000ee8:	ea4c 2050 	orr.w	r0, ip, r0, lsr #9
 8000eec:	327f      	adds	r2, #127	@ 0x7f
 8000eee:	bfc2      	ittt	gt
 8000ef0:	f1d2 03ff 	rsbsgt	r3, r2, #255	@ 0xff
 8000ef4:	ea40 50c2 	orrgt.w	r0, r0, r2, lsl #23
 8000ef8:	4770      	bxgt	lr
 8000efa:	f440 0000 	orr.w	r0, r0, #8388608	@ 0x800000
 8000efe:	f04f 0300 	mov.w	r3, #0
 8000f02:	3a01      	subs	r2, #1
 8000f04:	e737      	b.n	8000d76 <__aeabi_fmul+0x92>
 8000f06:	f092 0f00 	teq	r2, #0
 8000f0a:	f000 4c00 	and.w	ip, r0, #2147483648	@ 0x80000000
 8000f0e:	bf02      	ittt	eq
 8000f10:	0040      	lsleq	r0, r0, #1
 8000f12:	f410 0f00 	tsteq.w	r0, #8388608	@ 0x800000
 8000f16:	3a01      	subeq	r2, #1
 8000f18:	d0f9      	beq.n	8000f0e <__aeabi_fdiv+0xc2>
 8000f1a:	ea40 000c 	orr.w	r0, r0, ip
 8000f1e:	f093 0f00 	teq	r3, #0
 8000f22:	f001 4c00 	and.w	ip, r1, #2147483648	@ 0x80000000
 8000f26:	bf02      	ittt	eq
 8000f28:	0049      	lsleq	r1, r1, #1
 8000f2a:	f411 0f00 	tsteq.w	r1, #8388608	@ 0x800000
 8000f2e:	3b01      	subeq	r3, #1
 8000f30:	d0f9      	beq.n	8000f26 <__aeabi_fdiv+0xda>
 8000f32:	ea41 010c 	orr.w	r1, r1, ip
 8000f36:	e795      	b.n	8000e64 <__aeabi_fdiv+0x18>
 8000f38:	ea0c 53d1 	and.w	r3, ip, r1, lsr #23
 8000f3c:	ea92 0f0c 	teq	r2, ip
 8000f40:	d108      	bne.n	8000f54 <__aeabi_fdiv+0x108>
 8000f42:	0242      	lsls	r2, r0, #9
 8000f44:	f47f af7d 	bne.w	8000e42 <__aeabi_fmul+0x15e>
 8000f48:	ea93 0f0c 	teq	r3, ip
 8000f4c:	f47f af70 	bne.w	8000e30 <__aeabi_fmul+0x14c>
 8000f50:	4608      	mov	r0, r1
 8000f52:	e776      	b.n	8000e42 <__aeabi_fmul+0x15e>
 8000f54:	ea93 0f0c 	teq	r3, ip
 8000f58:	d104      	bne.n	8000f64 <__aeabi_fdiv+0x118>
 8000f5a:	024b      	lsls	r3, r1, #9
 8000f5c:	f43f af4c 	beq.w	8000df8 <__aeabi_fmul+0x114>
 8000f60:	4608      	mov	r0, r1
 8000f62:	e76e      	b.n	8000e42 <__aeabi_fmul+0x15e>
 8000f64:	f030 4c00 	bics.w	ip, r0, #2147483648	@ 0x80000000
 8000f68:	bf18      	it	ne
 8000f6a:	f031 4c00 	bicsne.w	ip, r1, #2147483648	@ 0x80000000
 8000f6e:	d1ca      	bne.n	8000f06 <__aeabi_fdiv+0xba>
 8000f70:	f030 4200 	bics.w	r2, r0, #2147483648	@ 0x80000000
 8000f74:	f47f af5c 	bne.w	8000e30 <__aeabi_fmul+0x14c>
 8000f78:	f031 4300 	bics.w	r3, r1, #2147483648	@ 0x80000000
 8000f7c:	f47f af3c 	bne.w	8000df8 <__aeabi_fmul+0x114>
 8000f80:	e75f      	b.n	8000e42 <__aeabi_fmul+0x15e>
 8000f82:	bf00      	nop

08000f84 <__gesf2>:
 8000f84:	f04f 3cff 	mov.w	ip, #4294967295	@ 0xffffffff
 8000f88:	e006      	b.n	8000f98 <__cmpsf2+0x4>
 8000f8a:	bf00      	nop

08000f8c <__lesf2>:
 8000f8c:	f04f 0c01 	mov.w	ip, #1
 8000f90:	e002      	b.n	8000f98 <__cmpsf2+0x4>
 8000f92:	bf00      	nop

08000f94 <__cmpsf2>:
 8000f94:	f04f 0c01 	mov.w	ip, #1
 8000f98:	f84d cd04 	str.w	ip, [sp, #-4]!
 8000f9c:	ea4f 0240 	mov.w	r2, r0, lsl #1
 8000fa0:	ea4f 0341 	mov.w	r3, r1, lsl #1
 8000fa4:	ea7f 6c22 	mvns.w	ip, r2, asr #24
 8000fa8:	bf18      	it	ne
 8000faa:	ea7f 6c23 	mvnsne.w	ip, r3, asr #24
 8000fae:	d011      	beq.n	8000fd4 <__cmpsf2+0x40>
 8000fb0:	b001      	add	sp, #4
 8000fb2:	ea52 0c53 	orrs.w	ip, r2, r3, lsr #1
 8000fb6:	bf18      	it	ne
 8000fb8:	ea90 0f01 	teqne	r0, r1
 8000fbc:	bf58      	it	pl
 8000fbe:	ebb2 0003 	subspl.w	r0, r2, r3
 8000fc2:	bf88      	it	hi
 8000fc4:	17c8      	asrhi	r0, r1, #31
 8000fc6:	bf38      	it	cc
 8000fc8:	ea6f 70e1 	mvncc.w	r0, r1, asr #31
 8000fcc:	bf18      	it	ne
 8000fce:	f040 0001 	orrne.w	r0, r0, #1
 8000fd2:	4770      	bx	lr
 8000fd4:	ea7f 6c22 	mvns.w	ip, r2, asr #24
 8000fd8:	d102      	bne.n	8000fe0 <__cmpsf2+0x4c>
 8000fda:	ea5f 2c40 	movs.w	ip, r0, lsl #9
 8000fde:	d105      	bne.n	8000fec <__cmpsf2+0x58>
 8000fe0:	ea7f 6c23 	mvns.w	ip, r3, asr #24
 8000fe4:	d1e4      	bne.n	8000fb0 <__cmpsf2+0x1c>
 8000fe6:	ea5f 2c41 	movs.w	ip, r1, lsl #9
 8000fea:	d0e1      	beq.n	8000fb0 <__cmpsf2+0x1c>
 8000fec:	f85d 0b04 	ldr.w	r0, [sp], #4
 8000ff0:	4770      	bx	lr
 8000ff2:	bf00      	nop

08000ff4 <__aeabi_cfrcmple>:
 8000ff4:	4684      	mov	ip, r0
 8000ff6:	4608      	mov	r0, r1
 8000ff8:	4661      	mov	r1, ip
 8000ffa:	e7ff      	b.n	8000ffc <__aeabi_cfcmpeq>

08000ffc <__aeabi_cfcmpeq>:
 8000ffc:	b50f      	push	{r0, r1, r2, r3, lr}
 8000ffe:	f7ff ffc9 	bl	8000f94 <__cmpsf2>
 8001002:	2800      	cmp	r0, #0
 8001004:	bf48      	it	mi
 8001006:	f110 0f00 	cmnmi.w	r0, #0
 800100a:	bd0f      	pop	{r0, r1, r2, r3, pc}

0800100c <__aeabi_fcmpeq>:
 800100c:	f84d ed08 	str.w	lr, [sp, #-8]!
 8001010:	f7ff fff4 	bl	8000ffc <__aeabi_cfcmpeq>
 8001014:	bf0c      	ite	eq
 8001016:	2001      	moveq	r0, #1
 8001018:	2000      	movne	r0, #0
 800101a:	f85d fb08 	ldr.w	pc, [sp], #8
 800101e:	bf00      	nop

08001020 <__aeabi_fcmplt>:
 8001020:	f84d ed08 	str.w	lr, [sp, #-8]!
 8001024:	f7ff ffea 	bl	8000ffc <__aeabi_cfcmpeq>
 8001028:	bf34      	ite	cc
 800102a:	2001      	movcc	r0, #1
 800102c:	2000      	movcs	r0, #0
 800102e:	f85d fb08 	ldr.w	pc, [sp], #8
 8001032:	bf00      	nop

08001034 <__aeabi_fcmple>:
 8001034:	f84d ed08 	str.w	lr, [sp, #-8]!
 8001038:	f7ff ffe0 	bl	8000ffc <__aeabi_cfcmpeq>
 800103c:	bf94      	ite	ls
 800103e:	2001      	movls	r0, #1
 8001040:	2000      	movhi	r0, #0
 8001042:	f85d fb08 	ldr.w	pc, [sp], #8
 8001046:	bf00      	nop

08001048 <__aeabi_fcmpge>:
 8001048:	f84d ed08 	str.w	lr, [sp, #-8]!
 800104c:	f7ff ffd2 	bl	8000ff4 <__aeabi_cfrcmple>
 8001050:	bf94      	ite	ls
 8001052:	2001      	movls	r0, #1
 8001054:	2000      	movhi	r0, #0
 8001056:	f85d fb08 	ldr.w	pc, [sp], #8
 800105a:	bf00      	nop

0800105c <__aeabi_fcmpgt>:
 800105c:	f84d ed08 	str.w	lr, [sp, #-8]!
 8001060:	f7ff ffc8 	bl	8000ff4 <__aeabi_cfrcmple>
 8001064:	bf34      	ite	cc
 8001066:	2001      	movcc	r0, #1
 8001068:	2000      	movcs	r0, #0
 800106a:	f85d fb08 	ldr.w	pc, [sp], #8
 800106e:	bf00      	nop

08001070 <__aeabi_f2iz>:
 8001070:	ea4f 0240 	mov.w	r2, r0, lsl #1
 8001074:	f1b2 4ffe 	cmp.w	r2, #2130706432	@ 0x7f000000
 8001078:	d30f      	bcc.n	800109a <__aeabi_f2iz+0x2a>
 800107a:	f04f 039e 	mov.w	r3, #158	@ 0x9e
 800107e:	ebb3 6212 	subs.w	r2, r3, r2, lsr #24
 8001082:	d90d      	bls.n	80010a0 <__aeabi_f2iz+0x30>
 8001084:	ea4f 2300 	mov.w	r3, r0, lsl #8
 8001088:	f043 4300 	orr.w	r3, r3, #2147483648	@ 0x80000000
 800108c:	f010 4f00 	tst.w	r0, #2147483648	@ 0x80000000
 8001090:	fa23 f002 	lsr.w	r0, r3, r2
 8001094:	bf18      	it	ne
 8001096:	4240      	negne	r0, r0
 8001098:	4770      	bx	lr
 800109a:	f04f 0000 	mov.w	r0, #0
 800109e:	4770      	bx	lr
 80010a0:	f112 0f61 	cmn.w	r2, #97	@ 0x61
 80010a4:	d101      	bne.n	80010aa <__aeabi_f2iz+0x3a>
 80010a6:	0242      	lsls	r2, r0, #9
 80010a8:	d105      	bne.n	80010b6 <__aeabi_f2iz+0x46>
 80010aa:	f010 4000 	ands.w	r0, r0, #2147483648	@ 0x80000000
 80010ae:	bf08      	it	eq
 80010b0:	f06f 4000 	mvneq.w	r0, #2147483648	@ 0x80000000
 80010b4:	4770      	bx	lr
 80010b6:	f04f 0000 	mov.w	r0, #0
 80010ba:	4770      	bx	lr

080010bc <__aeabi_f2uiz>:
 80010bc:	0042      	lsls	r2, r0, #1
 80010be:	d20e      	bcs.n	80010de <__aeabi_f2uiz+0x22>
 80010c0:	f1b2 4ffe 	cmp.w	r2, #2130706432	@ 0x7f000000
 80010c4:	d30b      	bcc.n	80010de <__aeabi_f2uiz+0x22>
 80010c6:	f04f 039e 	mov.w	r3, #158	@ 0x9e
 80010ca:	ebb3 6212 	subs.w	r2, r3, r2, lsr #24
 80010ce:	d409      	bmi.n	80010e4 <__aeabi_f2uiz+0x28>
 80010d0:	ea4f 2300 	mov.w	r3, r0, lsl #8
 80010d4:	f043 4300 	orr.w	r3, r3, #2147483648	@ 0x80000000
 80010d8:	fa23 f002 	lsr.w	r0, r3, r2
 80010dc:	4770      	bx	lr
 80010de:	f04f 0000 	mov.w	r0, #0
 80010e2:	4770      	bx	lr
 80010e4:	f112 0f61 	cmn.w	r2, #97	@ 0x61
 80010e8:	d101      	bne.n	80010ee <__aeabi_f2uiz+0x32>
 80010ea:	0242      	lsls	r2, r0, #9
 80010ec:	d102      	bne.n	80010f4 <__aeabi_f2uiz+0x38>
 80010ee:	f04f 30ff 	mov.w	r0, #4294967295	@ 0xffffffff
 80010f2:	4770      	bx	lr
 80010f4:	f04f 0000 	mov.w	r0, #0
 80010f8:	4770      	bx	lr
 80010fa:	bf00      	nop

080010fc <MUX_WriteRaw>:
 80010fc:	b573      	push	{r0, r1, r4, r5, r6, lr}
 80010fe:	4604      	mov	r4, r0
 8001100:	f88d 1007 	strb.w	r1, [sp, #7]
 8001104:	2201      	movs	r2, #1
 8001106:	2107      	movs	r1, #7
 8001108:	480f      	ldr	r0, [pc, #60]	@ (8001148 <MUX_WriteRaw+0x4c>)
 800110a:	f001 fbe7 	bl	80028dc <HAL_GPIO_WritePin>
 800110e:	4b0f      	ldr	r3, [pc, #60]	@ (800114c <MUX_WriteRaw+0x50>)
 8001110:	2200      	movs	r2, #0
 8001112:	f853 5024 	ldr.w	r5, [r3, r4, lsl #2]
 8001116:	4b0e      	ldr	r3, [pc, #56]	@ (8001150 <MUX_WriteRaw+0x54>)
 8001118:	4628      	mov	r0, r5
 800111a:	f833 6014 	ldrh.w	r6, [r3, r4, lsl #1]
 800111e:	4631      	mov	r1, r6
 8001120:	f001 fbdc 	bl	80028dc <HAL_GPIO_WritePin>
 8001124:	f04f 33ff 	mov.w	r3, #4294967295	@ 0xffffffff
 8001128:	f10d 0107 	add.w	r1, sp, #7
 800112c:	2201      	movs	r2, #1
 800112e:	4809      	ldr	r0, [pc, #36]	@ (8001154 <MUX_WriteRaw+0x58>)
 8001130:	f002 f814 	bl	800315c <HAL_SPI_Transmit>
 8001134:	4604      	mov	r4, r0
 8001136:	2201      	movs	r2, #1
 8001138:	4628      	mov	r0, r5
 800113a:	4631      	mov	r1, r6
 800113c:	f001 fbce 	bl	80028dc <HAL_GPIO_WritePin>
 8001140:	4620      	mov	r0, r4
 8001142:	b002      	add	sp, #8
 8001144:	bd70      	pop	{r4, r5, r6, pc}
 8001146:	bf00      	nop
 8001148:	40010c00 	.word	0x40010c00
 800114c:	080061c8 	.word	0x080061c8
 8001150:	080061c0 	.word	0x080061c0
 8001154:	200002a8 	.word	0x200002a8

08001158 <ADC1_ReadRaw>:
 8001158:	b510      	push	{r4, lr}
 800115a:	480d      	ldr	r0, [pc, #52]	@ (8001190 <ADC1_ReadRaw+0x38>)
 800115c:	f000 ffa4 	bl	80020a8 <HAL_ADC_Start>
 8001160:	b108      	cbz	r0, 8001166 <ADC1_ReadRaw+0xe>
 8001162:	b672      	cpsid	i
 8001164:	e7fe      	b.n	8001164 <ADC1_ReadRaw+0xc>
 8001166:	f04f 31ff 	mov.w	r1, #4294967295	@ 0xffffffff
 800116a:	4809      	ldr	r0, [pc, #36]	@ (8001190 <ADC1_ReadRaw+0x38>)
 800116c:	f000 fe3a 	bl	8001de4 <HAL_ADC_PollForConversion>
 8001170:	b108      	cbz	r0, 8001176 <ADC1_ReadRaw+0x1e>
 8001172:	b672      	cpsid	i
 8001174:	e7fe      	b.n	8001174 <ADC1_ReadRaw+0x1c>
 8001176:	4806      	ldr	r0, [pc, #24]	@ (8001190 <ADC1_ReadRaw+0x38>)
 8001178:	f000 fed8 	bl	8001f2c <HAL_ADC_GetValue>
 800117c:	4604      	mov	r4, r0
 800117e:	4804      	ldr	r0, [pc, #16]	@ (8001190 <ADC1_ReadRaw+0x38>)
 8001180:	f001 f898 	bl	80022b4 <HAL_ADC_Stop>
 8001184:	b108      	cbz	r0, 800118a <ADC1_ReadRaw+0x32>
 8001186:	b672      	cpsid	i
 8001188:	e7fe      	b.n	8001188 <ADC1_ReadRaw+0x30>
 800118a:	b2a0      	uxth	r0, r4
 800118c:	bd10      	pop	{r4, pc}
 800118e:	bf00      	nop
 8001190:	20000328 	.word	0x20000328

08001194 <CAN_SendTemperatureStatistics.isra.0>:
 8001194:	2304      	movs	r3, #4
 8001196:	4a14      	ldr	r2, [pc, #80]	@ (80011e8 <CAN_SendTemperatureStatistics.isra.0+0x54>)
 8001198:	4914      	ldr	r1, [pc, #80]	@ (80011ec <CAN_SendTemperatureStatistics.isra.0+0x58>)
 800119a:	b410      	push	{r4}
 800119c:	e9c2 1301 	strd	r1, r3, [r2, #4]
 80011a0:	2300      	movs	r3, #0
 80011a2:	2108      	movs	r1, #8
 80011a4:	7513      	strb	r3, [r2, #20]
 80011a6:	e9c2 3103 	strd	r3, r1, [r2, #12]
 80011aa:	4a11      	ldr	r2, [pc, #68]	@ (80011f0 <CAN_SendTemperatureStatistics.isra.0+0x5c>)
 80011ac:	7013      	strb	r3, [r2, #0]
 80011ae:	8801      	ldrh	r1, [r0, #0]
 80011b0:	7051      	strb	r1, [r2, #1]
 80011b2:	8841      	ldrh	r1, [r0, #2]
 80011b4:	7193      	strb	r3, [r2, #6]
 80011b6:	7091      	strb	r1, [r2, #2]
 80011b8:	79c1      	ldrb	r1, [r0, #7]
 80011ba:	4610      	mov	r0, r2
 80011bc:	70d1      	strb	r1, [r2, #3]
 80011be:	2101      	movs	r1, #1
 80011c0:	7111      	strb	r1, [r2, #4]
 80011c2:	7151      	strb	r1, [r2, #5]
 80011c4:	2107      	movs	r1, #7
 80011c6:	f812 4b01 	ldrb.w	r4, [r2], #1
 80011ca:	3901      	subs	r1, #1
 80011cc:	4423      	add	r3, r4
 80011ce:	f011 01ff 	ands.w	r1, r1, #255	@ 0xff
 80011d2:	b2db      	uxtb	r3, r3
 80011d4:	d1f7      	bne.n	80011c6 <CAN_SendTemperatureStatistics.isra.0+0x32>
 80011d6:	3341      	adds	r3, #65	@ 0x41
 80011d8:	71c3      	strb	r3, [r0, #7]
 80011da:	4a05      	ldr	r2, [pc, #20]	@ (80011f0 <CAN_SendTemperatureStatistics.isra.0+0x5c>)
 80011dc:	4b05      	ldr	r3, [pc, #20]	@ (80011f4 <CAN_SendTemperatureStatistics.isra.0+0x60>)
 80011de:	4902      	ldr	r1, [pc, #8]	@ (80011e8 <CAN_SendTemperatureStatistics.isra.0+0x54>)
 80011e0:	4805      	ldr	r0, [pc, #20]	@ (80011f8 <CAN_SendTemperatureStatistics.isra.0+0x64>)
 80011e2:	bc10      	pop	{r4}
 80011e4:	f001 ba06 	b.w	80025f4 <HAL_CAN_AddTxMessage>
 80011e8:	20000200 	.word	0x20000200
 80011ec:	1839f380 	.word	0x1839f380
 80011f0:	200001f8 	.word	0x200001f8
 80011f4:	200001f4 	.word	0x200001f4
 80011f8:	20000300 	.word	0x20000300

080011fc <MUX_DisableAll>:
 80011fc:	b508      	push	{r3, lr}
 80011fe:	2180      	movs	r1, #128	@ 0x80
 8001200:	2000      	movs	r0, #0
 8001202:	f7ff ff7b 	bl	80010fc <MUX_WriteRaw>
 8001206:	2180      	movs	r1, #128	@ 0x80
 8001208:	2001      	movs	r0, #1
 800120a:	f7ff ff77 	bl	80010fc <MUX_WriteRaw>
 800120e:	e8bd 4008 	ldmia.w	sp!, {r3, lr}
 8001212:	2180      	movs	r1, #128	@ 0x80
 8001214:	2002      	movs	r0, #2
 8001216:	f7ff bf71 	b.w	80010fc <MUX_WriteRaw>
	...

0800121c <_write>:
 800121c:	b510      	push	{r4, lr}
 800121e:	4614      	mov	r4, r2
 8001220:	f04f 33ff 	mov.w	r3, #4294967295	@ 0xffffffff
 8001224:	b292      	uxth	r2, r2
 8001226:	4802      	ldr	r0, [pc, #8]	@ (8001230 <_write+0x14>)
 8001228:	f002 fa41 	bl	80036ae <HAL_UART_Transmit>
 800122c:	4620      	mov	r0, r4
 800122e:	bd10      	pop	{r4, pc}
 8001230:	20000218 	.word	0x20000218

08001234 <SystemClock_Config>:
 8001234:	b510      	push	{r4, lr}
 8001236:	b094      	sub	sp, #80	@ 0x50
 8001238:	2214      	movs	r2, #20
 800123a:	2100      	movs	r1, #0
 800123c:	a80c      	add	r0, sp, #48	@ 0x30
 800123e:	f002 ffab 	bl	8004198 <memset>
 8001242:	2214      	movs	r2, #20
 8001244:	2100      	movs	r1, #0
 8001246:	eb0d 0002 	add.w	r0, sp, r2
 800124a:	f002 ffa5 	bl	8004198 <memset>
 800124e:	2210      	movs	r2, #16
 8001250:	2100      	movs	r1, #0
 8001252:	a801      	add	r0, sp, #4
 8001254:	f002 ffa0 	bl	8004198 <memset>
 8001258:	2402      	movs	r4, #2
 800125a:	f44f 3380 	mov.w	r3, #65536	@ 0x10000
 800125e:	2201      	movs	r2, #1
 8001260:	e9cd 4311 	strd	r4, r3, [sp, #68]	@ 0x44
 8001264:	e9cd 230a 	strd	r2, r3, [sp, #40]	@ 0x28
 8001268:	f44f 13e0 	mov.w	r3, #1835008	@ 0x1c0000
 800126c:	a80a      	add	r0, sp, #40	@ 0x28
 800126e:	920e      	str	r2, [sp, #56]	@ 0x38
 8001270:	9313      	str	r3, [sp, #76]	@ 0x4c
 8001272:	f001 fb39 	bl	80028e8 <HAL_RCC_OscConfig>
 8001276:	b108      	cbz	r0, 800127c <SystemClock_Config+0x48>
 8001278:	b672      	cpsid	i
 800127a:	e7fe      	b.n	800127a <SystemClock_Config+0x46>
 800127c:	230f      	movs	r3, #15
 800127e:	2280      	movs	r2, #128	@ 0x80
 8001280:	e9cd 3405 	strd	r3, r4, [sp, #20]
 8001284:	f44f 6380 	mov.w	r3, #1024	@ 0x400
 8001288:	9009      	str	r0, [sp, #36]	@ 0x24
 800128a:	4621      	mov	r1, r4
 800128c:	a805      	add	r0, sp, #20
 800128e:	e9cd 2307 	strd	r2, r3, [sp, #28]
 8001292:	f001 fcf1 	bl	8002c78 <HAL_RCC_ClockConfig>
 8001296:	b108      	cbz	r0, 800129c <SystemClock_Config+0x68>
 8001298:	b672      	cpsid	i
 800129a:	e7fe      	b.n	800129a <SystemClock_Config+0x66>
 800129c:	f44f 4300 	mov.w	r3, #32768	@ 0x8000
 80012a0:	a801      	add	r0, sp, #4
 80012a2:	9401      	str	r4, [sp, #4]
 80012a4:	9303      	str	r3, [sp, #12]
 80012a6:	f001 fdb1 	bl	8002e0c <HAL_RCCEx_PeriphCLKConfig>
 80012aa:	b108      	cbz	r0, 80012b0 <SystemClock_Config+0x7c>
 80012ac:	b672      	cpsid	i
 80012ae:	e7fe      	b.n	80012ae <SystemClock_Config+0x7a>
 80012b0:	f001 fcb6 	bl	8002c20 <HAL_RCC_EnableCSS>
 80012b4:	b014      	add	sp, #80	@ 0x50
 80012b6:	bd10      	pop	{r4, pc}

080012b8 <main>:
 80012b8:	e92d 4880 	stmdb	sp!, {r7, fp, lr}
 80012bc:	b0a1      	sub	sp, #132	@ 0x84
 80012be:	f000 fd5b 	bl	8001d78 <HAL_Init>
 80012c2:	f7ff ffb7 	bl	8001234 <SystemClock_Config>
 80012c6:	2210      	movs	r2, #16
 80012c8:	2100      	movs	r1, #0
 80012ca:	a816      	add	r0, sp, #88	@ 0x58
 80012cc:	f002 ff64 	bl	8004198 <memset>
 80012d0:	4b99      	ldr	r3, [pc, #612]	@ (8001538 <main+0x280>)
 80012d2:	2107      	movs	r1, #7
 80012d4:	699a      	ldr	r2, [r3, #24]
 80012d6:	4899      	ldr	r0, [pc, #612]	@ (800153c <main+0x284>)
 80012d8:	f042 0220 	orr.w	r2, r2, #32
 80012dc:	619a      	str	r2, [r3, #24]
 80012de:	699a      	ldr	r2, [r3, #24]
 80012e0:	2400      	movs	r4, #0
 80012e2:	f002 0220 	and.w	r2, r2, #32
 80012e6:	920e      	str	r2, [sp, #56]	@ 0x38
 80012e8:	9a0e      	ldr	r2, [sp, #56]	@ 0x38
 80012ea:	699a      	ldr	r2, [r3, #24]
 80012ec:	2507      	movs	r5, #7
 80012ee:	f042 0204 	orr.w	r2, r2, #4
 80012f2:	619a      	str	r2, [r3, #24]
 80012f4:	699a      	ldr	r2, [r3, #24]
 80012f6:	2602      	movs	r6, #2
 80012f8:	f002 0204 	and.w	r2, r2, #4
 80012fc:	920f      	str	r2, [sp, #60]	@ 0x3c
 80012fe:	9a0f      	ldr	r2, [sp, #60]	@ 0x3c
 8001300:	699a      	ldr	r2, [r3, #24]
 8001302:	2701      	movs	r7, #1
 8001304:	f042 0208 	orr.w	r2, r2, #8
 8001308:	619a      	str	r2, [r3, #24]
 800130a:	699b      	ldr	r3, [r3, #24]
 800130c:	2201      	movs	r2, #1
 800130e:	f003 0308 	and.w	r3, r3, #8
 8001312:	9310      	str	r3, [sp, #64]	@ 0x40
 8001314:	9b10      	ldr	r3, [sp, #64]	@ 0x40
 8001316:	f001 fae1 	bl	80028dc <HAL_GPIO_WritePin>
 800131a:	2311      	movs	r3, #17
 800131c:	4887      	ldr	r0, [pc, #540]	@ (800153c <main+0x284>)
 800131e:	a916      	add	r1, sp, #88	@ 0x58
 8001320:	e9cd 5316 	strd	r5, r3, [sp, #88]	@ 0x58
 8001324:	e9cd 4618 	strd	r4, r6, [sp, #96]	@ 0x60
 8001328:	f001 fa04 	bl	8002734 <HAL_GPIO_Init>
 800132c:	4a84      	ldr	r2, [pc, #528]	@ (8001540 <main+0x288>)
 800132e:	4b85      	ldr	r3, [pc, #532]	@ (8001544 <main+0x28c>)
 8001330:	4610      	mov	r0, r2
 8001332:	6013      	str	r3, [r2, #0]
 8001334:	f44f 2360 	mov.w	r3, #917504	@ 0xe0000
 8001338:	e9cd 4416 	strd	r4, r4, [sp, #88]	@ 0x58
 800133c:	9418      	str	r4, [sp, #96]	@ 0x60
 800133e:	6094      	str	r4, [r2, #8]
 8001340:	7314      	strb	r4, [r2, #12]
 8001342:	7514      	strb	r4, [r2, #20]
 8001344:	61d3      	str	r3, [r2, #28]
 8001346:	6054      	str	r4, [r2, #4]
 8001348:	6117      	str	r7, [r2, #16]
 800134a:	f000 ff35 	bl	80021b8 <HAL_ADC_Init>
 800134e:	b108      	cbz	r0, 8001354 <main+0x9c>
 8001350:	b672      	cpsid	i
 8001352:	e7fe      	b.n	8001352 <main+0x9a>
 8001354:	487a      	ldr	r0, [pc, #488]	@ (8001540 <main+0x288>)
 8001356:	a916      	add	r1, sp, #88	@ 0x58
 8001358:	e9cd 6716 	strd	r6, r7, [sp, #88]	@ 0x58
 800135c:	9518      	str	r5, [sp, #96]	@ 0x60
 800135e:	f000 fde9 	bl	8001f34 <HAL_ADC_ConfigChannel>
 8001362:	4603      	mov	r3, r0
 8001364:	b108      	cbz	r0, 800136a <main+0xb2>
 8001366:	b672      	cpsid	i
 8001368:	e7fe      	b.n	8001368 <main+0xb0>
 800136a:	f44f 7282 	mov.w	r2, #260	@ 0x104
 800136e:	4876      	ldr	r0, [pc, #472]	@ (8001548 <main+0x290>)
 8001370:	f8df e1d8 	ldr.w	lr, [pc, #472]	@ 800154c <main+0x294>
 8001374:	e9c0 3304 	strd	r3, r3, [r0, #16]
 8001378:	e9c0 e200 	strd	lr, r2, [r0]
 800137c:	f44f 4200 	mov.w	r2, #32768	@ 0x8000
 8001380:	e9c0 3308 	strd	r3, r3, [r0, #32]
 8001384:	e9c0 2302 	strd	r2, r3, [r0, #8]
 8001388:	6283      	str	r3, [r0, #40]	@ 0x28
 800138a:	2208      	movs	r2, #8
 800138c:	230a      	movs	r3, #10
 800138e:	f44f 7800 	mov.w	r8, #512	@ 0x200
 8001392:	62c3      	str	r3, [r0, #44]	@ 0x2c
 8001394:	e9c0 8206 	strd	r8, r2, [r0, #24]
 8001398:	f001 fe88 	bl	80030ac <HAL_SPI_Init>
 800139c:	4603      	mov	r3, r0
 800139e:	b108      	cbz	r0, 80013a4 <main+0xec>
 80013a0:	b672      	cpsid	i
 80013a2:	e7fe      	b.n	80013a2 <main+0xea>
 80013a4:	f44f 32e1 	mov.w	r2, #115200	@ 0x1c200
 80013a8:	4869      	ldr	r0, [pc, #420]	@ (8001550 <main+0x298>)
 80013aa:	f8df c1a8 	ldr.w	ip, [pc, #424]	@ 8001554 <main+0x29c>
 80013ae:	e9c0 3302 	strd	r3, r3, [r0, #8]
 80013b2:	e9c0 c200 	strd	ip, r2, [r0]
 80013b6:	220c      	movs	r2, #12
 80013b8:	6103      	str	r3, [r0, #16]
 80013ba:	e9c0 2305 	strd	r2, r3, [r0, #20]
 80013be:	61c3      	str	r3, [r0, #28]
 80013c0:	f002 f946 	bl	8003650 <HAL_UART_Init>
 80013c4:	b108      	cbz	r0, 80013ca <main+0x112>
 80013c6:	b672      	cpsid	i
 80013c8:	e7fe      	b.n	80013c8 <main+0x110>
 80013ca:	2303      	movs	r3, #3
 80013cc:	4c62      	ldr	r4, [pc, #392]	@ (8001558 <main+0x2a0>)
 80013ce:	4d63      	ldr	r5, [pc, #396]	@ (800155c <main+0x2a4>)
 80013d0:	f44f 2640 	mov.w	r6, #786432	@ 0xc0000
 80013d4:	e9c4 5300 	strd	r5, r3, [r4]
 80013d8:	f44f 1340 	mov.w	r3, #3145728	@ 0x300000
 80013dc:	e9c4 0002 	strd	r0, r0, [r4, #8]
 80013e0:	61a0      	str	r0, [r4, #24]
 80013e2:	83a0      	strh	r0, [r4, #28]
 80013e4:	4620      	mov	r0, r4
 80013e6:	e9c4 6304 	strd	r6, r3, [r4, #16]
 80013ea:	f000 ffed 	bl	80023c8 <HAL_CAN_Init>
 80013ee:	4605      	mov	r5, r0
 80013f0:	b108      	cbz	r0, 80013f6 <main+0x13e>
 80013f2:	b672      	cpsid	i
 80013f4:	e7fe      	b.n	80013f4 <main+0x13c>
 80013f6:	4601      	mov	r1, r0
 80013f8:	2210      	movs	r2, #16
 80013fa:	a816      	add	r0, sp, #88	@ 0x58
 80013fc:	f002 fecc 	bl	8004198 <memset>
 8001400:	4e57      	ldr	r6, [pc, #348]	@ (8001560 <main+0x2a8>)
 8001402:	4b58      	ldr	r3, [pc, #352]	@ (8001564 <main+0x2ac>)
 8001404:	f10d 084c 	add.w	r8, sp, #76	@ 0x4c
 8001408:	e9c6 3500 	strd	r3, r5, [r6]
 800140c:	f64f 73ff 	movw	r3, #65535	@ 0xffff
 8001410:	9513      	str	r5, [sp, #76]	@ 0x4c
 8001412:	4630      	mov	r0, r6
 8001414:	f8c8 5004 	str.w	r5, [r8, #4]
 8001418:	e9c6 3503 	strd	r3, r5, [r6, #12]
 800141c:	60b5      	str	r5, [r6, #8]
 800141e:	61b5      	str	r5, [r6, #24]
 8001420:	f001 ff7e 	bl	8003320 <HAL_TIM_Base_Init>
 8001424:	b108      	cbz	r0, 800142a <main+0x172>
 8001426:	b672      	cpsid	i
 8001428:	e7fe      	b.n	8001428 <main+0x170>
 800142a:	f44f 5380 	mov.w	r3, #4096	@ 0x1000
 800142e:	4630      	mov	r0, r6
 8001430:	a916      	add	r1, sp, #88	@ 0x58
 8001432:	9316      	str	r3, [sp, #88]	@ 0x58
 8001434:	f001 ffaa 	bl	800338c <HAL_TIM_ConfigClockSource>
 8001438:	b108      	cbz	r0, 800143e <main+0x186>
 800143a:	b672      	cpsid	i
 800143c:	e7fe      	b.n	800143c <main+0x184>
 800143e:	4641      	mov	r1, r8
 8001440:	e9cd 0013 	strd	r0, r0, [sp, #76]	@ 0x4c
 8001444:	4630      	mov	r0, r6
 8001446:	f002 f83b 	bl	80034c0 <HAL_TIMEx_MasterConfigSynchronization>
 800144a:	4601      	mov	r1, r0
 800144c:	b108      	cbz	r0, 8001452 <main+0x19a>
 800144e:	b672      	cpsid	i
 8001450:	e7fe      	b.n	8001450 <main+0x198>
 8001452:	4a45      	ldr	r2, [pc, #276]	@ (8001568 <main+0x2b0>)
 8001454:	f8d2 30fc 	ldr.w	r3, [r2, #252]	@ 0xfc
 8001458:	f043 7380 	orr.w	r3, r3, #16777216	@ 0x1000000
 800145c:	f8c2 30fc 	str.w	r3, [r2, #252]	@ 0xfc
 8001460:	4b42      	ldr	r3, [pc, #264]	@ (800156c <main+0x2b4>)
 8001462:	6058      	str	r0, [r3, #4]
 8001464:	681a      	ldr	r2, [r3, #0]
 8001466:	a816      	add	r0, sp, #88	@ 0x58
 8001468:	f042 0201 	orr.w	r2, r2, #1
 800146c:	601a      	str	r2, [r3, #0]
 800146e:	221c      	movs	r2, #28
 8001470:	f002 fe92 	bl	8004198 <memset>
 8001474:	230e      	movs	r3, #14
 8001476:	4620      	mov	r0, r4
 8001478:	a916      	add	r1, sp, #88	@ 0x58
 800147a:	e9cd 771d 	strd	r7, r7, [sp, #116]	@ 0x74
 800147e:	931f      	str	r3, [sp, #124]	@ 0x7c
 8001480:	f001 f81d 	bl	80024be <HAL_CAN_ConfigFilter>
 8001484:	b108      	cbz	r0, 800148a <main+0x1d2>
 8001486:	b672      	cpsid	i
 8001488:	e7fe      	b.n	8001488 <main+0x1d0>
 800148a:	4620      	mov	r0, r4
 800148c:	f001 f887 	bl	800259e <HAL_CAN_Start>
 8001490:	482b      	ldr	r0, [pc, #172]	@ (8001540 <main+0x288>)
 8001492:	f000 ff29 	bl	80022e8 <HAL_ADCEx_Calibration_Start>
 8001496:	b108      	cbz	r0, 800149c <main+0x1e4>
 8001498:	b672      	cpsid	i
 800149a:	e7fe      	b.n	800149a <main+0x1e2>
 800149c:	2402      	movs	r4, #2
 800149e:	2301      	movs	r3, #1
 80014a0:	e9cd 4316 	strd	r4, r3, [sp, #88]	@ 0x58
 80014a4:	2307      	movs	r3, #7
 80014a6:	4826      	ldr	r0, [pc, #152]	@ (8001540 <main+0x288>)
 80014a8:	a916      	add	r1, sp, #88	@ 0x58
 80014aa:	9318      	str	r3, [sp, #96]	@ 0x60
 80014ac:	f000 fd42 	bl	8001f34 <HAL_ADC_ConfigChannel>
 80014b0:	4604      	mov	r4, r0
 80014b2:	b108      	cbz	r0, 80014b8 <main+0x200>
 80014b4:	b672      	cpsid	i
 80014b6:	e7fe      	b.n	80014b6 <main+0x1fe>
 80014b8:	f7ff fea0 	bl	80011fc <MUX_DisableAll>
 80014bc:	200a      	movs	r0, #10
 80014be:	f000 fc7f 	bl	8001dc0 <HAL_Delay>
 80014c2:	f04f 1314 	mov.w	r3, #1310740	@ 0x140014
 80014c6:	a816      	add	r0, sp, #88	@ 0x58
 80014c8:	f8ad 4052 	strh.w	r4, [sp, #82]	@ 0x52
 80014cc:	f88d 4054 	strb.w	r4, [sp, #84]	@ 0x54
 80014d0:	9316      	str	r3, [sp, #88]	@ 0x58
 80014d2:	f8ad 405e 	strh.w	r4, [sp, #94]	@ 0x5e
 80014d6:	f88d 4060 	strb.w	r4, [sp, #96]	@ 0x60
 80014da:	f7ff fe5b 	bl	8001194 <CAN_SendTemperatureStatistics.isra.0>
 80014de:	4b24      	ldr	r3, [pc, #144]	@ (8001570 <main+0x2b8>)
 80014e0:	f04f 0a00 	mov.w	sl, #0
 80014e4:	9305      	str	r3, [sp, #20]
 80014e6:	f44f 7396 	mov.w	r3, #300	@ 0x12c
 80014ea:	e9cd 3a03 	strd	r3, sl, [sp, #12]
 80014ee:	fa5f f38a 	uxtb.w	r3, sl
 80014f2:	930a      	str	r3, [sp, #40]	@ 0x28
 80014f4:	ea4f 134a 	mov.w	r3, sl, lsl #5
 80014f8:	b29b      	uxth	r3, r3
 80014fa:	930b      	str	r3, [sp, #44]	@ 0x2c
 80014fc:	2300      	movs	r3, #0
 80014fe:	9302      	str	r3, [sp, #8]
 8001500:	f1ba 0f02 	cmp.w	sl, #2
 8001504:	d136      	bne.n	8001574 <main+0x2bc>
 8001506:	9b02      	ldr	r3, [sp, #8]
 8001508:	2b19      	cmp	r3, #25
 800150a:	d933      	bls.n	8001574 <main+0x2bc>
 800150c:	9b02      	ldr	r3, [sp, #8]
 800150e:	3301      	adds	r3, #1
 8001510:	2b20      	cmp	r3, #32
 8001512:	9302      	str	r3, [sp, #8]
 8001514:	d1f4      	bne.n	8001500 <main+0x248>
 8001516:	f10a 0a01 	add.w	sl, sl, #1
 800151a:	f1ba 0f03 	cmp.w	sl, #3
 800151e:	d1e6      	bne.n	80014ee <main+0x236>
 8001520:	9b04      	ldr	r3, [sp, #16]
 8001522:	2b4b      	cmp	r3, #75	@ 0x4b
 8001524:	dd05      	ble.n	8001532 <main+0x27a>
 8001526:	f04f 1350 	mov.w	r3, #5242960	@ 0x500050
 800152a:	a813      	add	r0, sp, #76	@ 0x4c
 800152c:	9313      	str	r3, [sp, #76]	@ 0x4c
 800152e:	f7ff fe31 	bl	8001194 <CAN_SendTemperatureStatistics.isra.0>
 8001532:	f7ff fe63 	bl	80011fc <MUX_DisableAll>
 8001536:	e7d2      	b.n	80014de <main+0x226>
 8001538:	40021000 	.word	0x40021000
 800153c:	40010c00 	.word	0x40010c00
 8001540:	20000328 	.word	0x20000328
 8001544:	40012400 	.word	0x40012400
 8001548:	200002a8 	.word	0x200002a8
 800154c:	40013000 	.word	0x40013000
 8001550:	20000218 	.word	0x20000218
 8001554:	40013800 	.word	0x40013800
 8001558:	20000300 	.word	0x20000300
 800155c:	40006400 	.word	0x40006400
 8001560:	20000260 	.word	0x20000260
 8001564:	40000800 	.word	0x40000800
 8001568:	e000ed00 	.word	0xe000ed00
 800156c:	e0001000 	.word	0xe0001000
 8001570:	fffffed4 	.word	0xfffffed4
 8001574:	2400      	movs	r4, #0
 8001576:	9b0a      	ldr	r3, [sp, #40]	@ 0x28
 8001578:	b2e0      	uxtb	r0, r4
 800157a:	4283      	cmp	r3, r0
 800157c:	f040 8102 	bne.w	8001784 <main+0x4cc>
 8001580:	3401      	adds	r4, #1
 8001582:	2c03      	cmp	r4, #3
 8001584:	d1f7      	bne.n	8001576 <main+0x2be>
 8001586:	f89d 1008 	ldrb.w	r1, [sp, #8]
 800158a:	980a      	ldr	r0, [sp, #40]	@ 0x28
 800158c:	f7ff fdb6 	bl	80010fc <MUX_WriteRaw>
 8001590:	4604      	mov	r4, r0
 8001592:	2800      	cmp	r0, #0
 8001594:	d1ba      	bne.n	800150c <main+0x254>
 8001596:	2005      	movs	r0, #5
 8001598:	f000 fc12 	bl	8001dc0 <HAL_Delay>
 800159c:	2000      	movs	r0, #0
 800159e:	2100      	movs	r1, #0
 80015a0:	9a02      	ldr	r2, [sp, #8]
 80015a2:	9b0b      	ldr	r3, [sp, #44]	@ 0x2c
 80015a4:	f1ba 0f02 	cmp.w	sl, #2
 80015a8:	4413      	add	r3, r2
 80015aa:	4a83      	ldr	r2, [pc, #524]	@ (80017b8 <main+0x500>)
 80015ac:	b29b      	uxth	r3, r3
 80015ae:	eb02 1203 	add.w	r2, r2, r3, lsl #4
 80015b2:	e9c2 0100 	strd	r0, r1, [r2]
 80015b6:	e9c2 0102 	strd	r0, r1, [r2, #8]
 80015ba:	f040 8111 	bne.w	80017e0 <main+0x528>
 80015be:	9a02      	ldr	r2, [sp, #8]
 80015c0:	2a04      	cmp	r2, #4
 80015c2:	f040 810d 	bne.w	80017e0 <main+0x528>
 80015c6:	f44f 73fa 	mov.w	r3, #500	@ 0x1f4
 80015ca:	4625      	mov	r5, r4
 80015cc:	4699      	mov	r9, r3
 80015ce:	46a3      	mov	fp, r4
 80015d0:	46a0      	mov	r8, r4
 80015d2:	9411      	str	r4, [sp, #68]	@ 0x44
 80015d4:	9401      	str	r4, [sp, #4]
 80015d6:	f8cd 4047 	str.w	r4, [sp, #71]	@ 0x47
 80015da:	4e78      	ldr	r6, [pc, #480]	@ (80017bc <main+0x504>)
 80015dc:	f7ff fdbc 	bl	8001158 <ADC1_ReadRaw>
 80015e0:	4637      	mov	r7, r6
 80015e2:	e8f7 2304 	ldrd	r2, r3, [r7], #16
 80015e6:	e9cd 2306 	strd	r2, r3, [sp, #24]
 80015ea:	e957 2302 	ldrd	r2, r3, [r7, #-8]
 80015ee:	e9cd 2308 	strd	r2, r3, [sp, #32]
 80015f2:	f7fe fef7 	bl	80003e4 <__aeabi_ui2d>
 80015f6:	a368      	add	r3, pc, #416	@ (adr r3, 8001798 <main+0x4e0>)
 80015f8:	e9d3 2300 	ldrd	r2, r3, [r3]
 80015fc:	e9cd 010c 	strd	r0, r1, [sp, #48]	@ 0x30
 8001600:	e9dd 0106 	ldrd	r0, r1, [sp, #24]
 8001604:	f7fe ff68 	bl	80004d8 <__aeabi_dmul>
 8001608:	4602      	mov	r2, r0
 800160a:	460b      	mov	r3, r1
 800160c:	e9dd 010c 	ldrd	r0, r1, [sp, #48]	@ 0x30
 8001610:	f7fe fdac 	bl	800016c <__adddf3>
 8001614:	a362      	add	r3, pc, #392	@ (adr r3, 80017a0 <main+0x4e8>)
 8001616:	e9d3 2300 	ldrd	r2, r3, [r3]
 800161a:	e9cd 010c 	strd	r0, r1, [sp, #48]	@ 0x30
 800161e:	e9dd 0108 	ldrd	r0, r1, [sp, #32]
 8001622:	f7fe ff59 	bl	80004d8 <__aeabi_dmul>
 8001626:	4602      	mov	r2, r0
 8001628:	460b      	mov	r3, r1
 800162a:	e9dd 010c 	ldrd	r0, r1, [sp, #48]	@ 0x30
 800162e:	f7fe fd9b 	bl	8000168 <__aeabi_dsub>
 8001632:	e9dd 2306 	ldrd	r2, r3, [sp, #24]
 8001636:	e947 2302 	strd	r2, r3, [r7, #-8]
 800163a:	4602      	mov	r2, r0
 800163c:	460b      	mov	r3, r1
 800163e:	e9c6 2300 	strd	r2, r3, [r6]
 8001642:	a359      	add	r3, pc, #356	@ (adr r3, 80017a8 <main+0x4f0>)
 8001644:	e9d3 2300 	ldrd	r2, r3, [r3]
 8001648:	e9cd 010c 	strd	r0, r1, [sp, #48]	@ 0x30
 800164c:	f7fe ff44 	bl	80004d8 <__aeabi_dmul>
 8001650:	a357      	add	r3, pc, #348	@ (adr r3, 80017b0 <main+0x4f8>)
 8001652:	e9d3 2300 	ldrd	r2, r3, [r3]
 8001656:	4606      	mov	r6, r0
 8001658:	460f      	mov	r7, r1
 800165a:	e9dd 0106 	ldrd	r0, r1, [sp, #24]
 800165e:	f7fe ff3b 	bl	80004d8 <__aeabi_dmul>
 8001662:	4602      	mov	r2, r0
 8001664:	460b      	mov	r3, r1
 8001666:	4630      	mov	r0, r6
 8001668:	4639      	mov	r1, r7
 800166a:	f7fe fd7f 	bl	800016c <__adddf3>
 800166e:	a34e      	add	r3, pc, #312	@ (adr r3, 80017a8 <main+0x4f0>)
 8001670:	e9d3 2300 	ldrd	r2, r3, [r3]
 8001674:	4606      	mov	r6, r0
 8001676:	460f      	mov	r7, r1
 8001678:	e9dd 0108 	ldrd	r0, r1, [sp, #32]
 800167c:	f7fe ff2c 	bl	80004d8 <__aeabi_dmul>
 8001680:	4602      	mov	r2, r0
 8001682:	460b      	mov	r3, r1
 8001684:	4630      	mov	r0, r6
 8001686:	4639      	mov	r1, r7
 8001688:	f7fe fd70 	bl	800016c <__adddf3>
 800168c:	2200      	movs	r2, #0
 800168e:	4b4c      	ldr	r3, [pc, #304]	@ (80017c0 <main+0x508>)
 8001690:	f7fe fd6c 	bl	800016c <__adddf3>
 8001694:	f7ff f9f8 	bl	8000a88 <__aeabi_d2uiz>
 8001698:	b286      	uxth	r6, r0
 800169a:	f104 0380 	add.w	r3, r4, #128	@ 0x80
 800169e:	4630      	mov	r0, r6
 80016a0:	eb0d 0703 	add.w	r7, sp, r3
 80016a4:	f7ff fac6 	bl	8000c34 <__aeabi_ui2f>
 80016a8:	4946      	ldr	r1, [pc, #280]	@ (80017c4 <main+0x50c>)
 80016aa:	f7ff fb1b 	bl	8000ce4 <__aeabi_fmul>
 80016ae:	4946      	ldr	r1, [pc, #280]	@ (80017c8 <main+0x510>)
 80016b0:	f7ff fbcc 	bl	8000e4c <__aeabi_fdiv>
 80016b4:	4945      	ldr	r1, [pc, #276]	@ (80017cc <main+0x514>)
 80016b6:	f7ff fb15 	bl	8000ce4 <__aeabi_fmul>
 80016ba:	f7ff fcff 	bl	80010bc <__aeabi_f2uiz>
 80016be:	3401      	adds	r4, #1
 80016c0:	b2e4      	uxtb	r4, r4
 80016c2:	2c07      	cmp	r4, #7
 80016c4:	f807 0c3c 	strb.w	r0, [r7, #-60]
 80016c8:	d137      	bne.n	800173a <main+0x482>
 80016ca:	4a41      	ldr	r2, [pc, #260]	@ (80017d0 <main+0x518>)
 80016cc:	f108 53c8 	add.w	r3, r8, #419430400	@ 0x19000000
 80016d0:	f5a3 4330 	sub.w	r3, r3, #45056	@ 0xb000
 80016d4:	6053      	str	r3, [r2, #4]
 80016d6:	2104      	movs	r1, #4
 80016d8:	2300      	movs	r3, #0
 80016da:	e9c2 1302 	strd	r1, r3, [r2, #8]
 80016de:	2108      	movs	r1, #8
 80016e0:	7513      	strb	r3, [r2, #20]
 80016e2:	6111      	str	r1, [r2, #16]
 80016e4:	4a3b      	ldr	r2, [pc, #236]	@ (80017d4 <main+0x51c>)
 80016e6:	f89d 1044 	ldrb.w	r1, [sp, #68]	@ 0x44
 80016ea:	7011      	strb	r1, [r2, #0]
 80016ec:	f89d 1045 	ldrb.w	r1, [sp, #69]	@ 0x45
 80016f0:	7051      	strb	r1, [r2, #1]
 80016f2:	f89d 1046 	ldrb.w	r1, [sp, #70]	@ 0x46
 80016f6:	7091      	strb	r1, [r2, #2]
 80016f8:	f89d 1047 	ldrb.w	r1, [sp, #71]	@ 0x47
 80016fc:	70d1      	strb	r1, [r2, #3]
 80016fe:	f89d 1048 	ldrb.w	r1, [sp, #72]	@ 0x48
 8001702:	7111      	strb	r1, [r2, #4]
 8001704:	f89d 1049 	ldrb.w	r1, [sp, #73]	@ 0x49
 8001708:	7151      	strb	r1, [r2, #5]
 800170a:	f89d 104a 	ldrb.w	r1, [sp, #74]	@ 0x4a
 800170e:	7191      	strb	r1, [r2, #6]
 8001710:	f812 1b01 	ldrb.w	r1, [r2], #1
 8001714:	3c01      	subs	r4, #1
 8001716:	440b      	add	r3, r1
 8001718:	f014 04ff 	ands.w	r4, r4, #255	@ 0xff
 800171c:	b2db      	uxtb	r3, r3
 800171e:	d1f7      	bne.n	8001710 <main+0x458>
 8001720:	4a2c      	ldr	r2, [pc, #176]	@ (80017d4 <main+0x51c>)
 8001722:	3341      	adds	r3, #65	@ 0x41
 8001724:	71d3      	strb	r3, [r2, #7]
 8001726:	492a      	ldr	r1, [pc, #168]	@ (80017d0 <main+0x518>)
 8001728:	4b2b      	ldr	r3, [pc, #172]	@ (80017d8 <main+0x520>)
 800172a:	482c      	ldr	r0, [pc, #176]	@ (80017dc <main+0x524>)
 800172c:	f000 ff62 	bl	80025f4 <HAL_CAN_AddTxMessage>
 8001730:	f108 0801 	add.w	r8, r8, #1
 8001734:	9411      	str	r4, [sp, #68]	@ 0x44
 8001736:	f8cd 4047 	str.w	r4, [sp, #71]	@ 0x47
 800173a:	f240 4219 	movw	r2, #1049	@ 0x419
 800173e:	f5a6 63ef 	sub.w	r3, r6, #1912	@ 0x778
 8001742:	b29b      	uxth	r3, r3
 8001744:	4293      	cmp	r3, r2
 8001746:	bf89      	itett	hi
 8001748:	9b01      	ldrhi	r3, [sp, #4]
 800174a:	3501      	addls	r5, #1
 800174c:	3301      	addhi	r3, #1
 800174e:	9301      	strhi	r3, [sp, #4]
 8001750:	464b      	mov	r3, r9
 8001752:	bf9c      	itt	ls
 8001754:	44b3      	addls	fp, r6
 8001756:	b2ad      	uxthls	r5, r5
 8001758:	3b01      	subs	r3, #1
 800175a:	4699      	mov	r9, r3
 800175c:	f47f af3d 	bne.w	80015da <main+0x322>
 8001760:	9b01      	ldr	r3, [sp, #4]
 8001762:	f5b3 7fd4 	cmp.w	r3, #424	@ 0x1a8
 8001766:	f340 80b0 	ble.w	80018ca <main+0x612>
 800176a:	9b04      	ldr	r3, [sp, #16]
 800176c:	3301      	adds	r3, #1
 800176e:	b25b      	sxtb	r3, r3
 8001770:	9304      	str	r3, [sp, #16]
 8001772:	9b03      	ldr	r3, [sp, #12]
 8001774:	f5b3 7f96 	cmp.w	r3, #300	@ 0x12c
 8001778:	f43f aec8 	beq.w	800150c <main+0x254>
 800177c:	9b05      	ldr	r3, [sp, #20]
 800177e:	f513 7f96 	cmn.w	r3, #300	@ 0x12c
 8001782:	e118      	b.n	80019b6 <main+0x6fe>
 8001784:	2180      	movs	r1, #128	@ 0x80
 8001786:	f7ff fcb9 	bl	80010fc <MUX_WriteRaw>
 800178a:	2800      	cmp	r0, #0
 800178c:	f43f aef8 	beq.w	8001580 <main+0x2c8>
 8001790:	e6bc      	b.n	800150c <main+0x254>
 8001792:	bf00      	nop
 8001794:	f3af 8000 	nop.w
 8001798:	27651b4e 	.word	0x27651b4e
 800179c:	3ffd29c2 	.word	0x3ffd29c2
 80017a0:	2ca4a201 	.word	0x2ca4a201
 80017a4:	3feaca31 	.word	0x3feaca31
 80017a8:	732b3d3d 	.word	0x732b3d3d
 80017ac:	3f6dab37 	.word	0x3f6dab37
 80017b0:	732b3d3d 	.word	0x732b3d3d
 80017b4:	3f7dab37 	.word	0x3f7dab37
 80017b8:	20000358 	.word	0x20000358
 80017bc:	20000798 	.word	0x20000798
 80017c0:	3fe00000 	.word	0x3fe00000
 80017c4:	40400000 	.word	0x40400000
 80017c8:	457ff000 	.word	0x457ff000
 80017cc:	42c80000 	.word	0x42c80000
 80017d0:	20000200 	.word	0x20000200
 80017d4:	200001f8 	.word	0x200001f8
 80017d8:	200001f4 	.word	0x200001f4
 80017dc:	20000300 	.word	0x20000300
 80017e0:	f44f 76fa 	mov.w	r6, #500	@ 0x1f4
 80017e4:	4625      	mov	r5, r4
 80017e6:	46a3      	mov	fp, r4
 80017e8:	9401      	str	r4, [sp, #4]
 80017ea:	4c85      	ldr	r4, [pc, #532]	@ (8001a00 <main+0x748>)
 80017ec:	eb04 1403 	add.w	r4, r4, r3, lsl #4
 80017f0:	f7ff fcb2 	bl	8001158 <ADC1_ReadRaw>
 80017f4:	e9d4 2300 	ldrd	r2, r3, [r4]
 80017f8:	e9cd 2306 	strd	r2, r3, [sp, #24]
 80017fc:	e9d4 2302 	ldrd	r2, r3, [r4, #8]
 8001800:	e9cd 2308 	strd	r2, r3, [sp, #32]
 8001804:	f7fe fdee 	bl	80003e4 <__aeabi_ui2d>
 8001808:	a375      	add	r3, pc, #468	@ (adr r3, 80019e0 <main+0x728>)
 800180a:	e9d3 2300 	ldrd	r2, r3, [r3]
 800180e:	4680      	mov	r8, r0
 8001810:	4689      	mov	r9, r1
 8001812:	e9dd 0106 	ldrd	r0, r1, [sp, #24]
 8001816:	f7fe fe5f 	bl	80004d8 <__aeabi_dmul>
 800181a:	4602      	mov	r2, r0
 800181c:	460b      	mov	r3, r1
 800181e:	4640      	mov	r0, r8
 8001820:	4649      	mov	r1, r9
 8001822:	f7fe fca3 	bl	800016c <__adddf3>
 8001826:	a370      	add	r3, pc, #448	@ (adr r3, 80019e8 <main+0x730>)
 8001828:	e9d3 2300 	ldrd	r2, r3, [r3]
 800182c:	4680      	mov	r8, r0
 800182e:	4689      	mov	r9, r1
 8001830:	e9dd 0108 	ldrd	r0, r1, [sp, #32]
 8001834:	f7fe fe50 	bl	80004d8 <__aeabi_dmul>
 8001838:	4602      	mov	r2, r0
 800183a:	460b      	mov	r3, r1
 800183c:	4640      	mov	r0, r8
 800183e:	4649      	mov	r1, r9
 8001840:	f7fe fc92 	bl	8000168 <__aeabi_dsub>
 8001844:	e9dd 7806 	ldrd	r7, r8, [sp, #24]
 8001848:	4602      	mov	r2, r0
 800184a:	460b      	mov	r3, r1
 800184c:	e9c4 7802 	strd	r7, r8, [r4, #8]
 8001850:	e9c4 2300 	strd	r2, r3, [r4]
 8001854:	a366      	add	r3, pc, #408	@ (adr r3, 80019f0 <main+0x738>)
 8001856:	e9d3 2300 	ldrd	r2, r3, [r3]
 800185a:	f7fe fe3d 	bl	80004d8 <__aeabi_dmul>
 800185e:	a366      	add	r3, pc, #408	@ (adr r3, 80019f8 <main+0x740>)
 8001860:	e9d3 2300 	ldrd	r2, r3, [r3]
 8001864:	4680      	mov	r8, r0
 8001866:	4689      	mov	r9, r1
 8001868:	e9dd 0106 	ldrd	r0, r1, [sp, #24]
 800186c:	f7fe fe34 	bl	80004d8 <__aeabi_dmul>
 8001870:	4602      	mov	r2, r0
 8001872:	460b      	mov	r3, r1
 8001874:	4640      	mov	r0, r8
 8001876:	4649      	mov	r1, r9
 8001878:	f7fe fc78 	bl	800016c <__adddf3>
 800187c:	a35c      	add	r3, pc, #368	@ (adr r3, 80019f0 <main+0x738>)
 800187e:	e9d3 2300 	ldrd	r2, r3, [r3]
 8001882:	4680      	mov	r8, r0
 8001884:	4689      	mov	r9, r1
 8001886:	e9dd 0108 	ldrd	r0, r1, [sp, #32]
 800188a:	f7fe fe25 	bl	80004d8 <__aeabi_dmul>
 800188e:	4602      	mov	r2, r0
 8001890:	460b      	mov	r3, r1
 8001892:	4640      	mov	r0, r8
 8001894:	4649      	mov	r1, r9
 8001896:	f7fe fc69 	bl	800016c <__adddf3>
 800189a:	2200      	movs	r2, #0
 800189c:	4b59      	ldr	r3, [pc, #356]	@ (8001a04 <main+0x74c>)
 800189e:	f7fe fc65 	bl	800016c <__adddf3>
 80018a2:	f7ff f8f1 	bl	8000a88 <__aeabi_d2uiz>
 80018a6:	f240 4219 	movw	r2, #1049	@ 0x419
 80018aa:	b280      	uxth	r0, r0
 80018ac:	f5a0 63ef 	sub.w	r3, r0, #1912	@ 0x778
 80018b0:	b29b      	uxth	r3, r3
 80018b2:	4293      	cmp	r3, r2
 80018b4:	bf89      	itett	hi
 80018b6:	9b01      	ldrhi	r3, [sp, #4]
 80018b8:	3501      	addls	r5, #1
 80018ba:	3301      	addhi	r3, #1
 80018bc:	9301      	strhi	r3, [sp, #4]
 80018be:	bf9c      	itt	ls
 80018c0:	4483      	addls	fp, r0
 80018c2:	b2ad      	uxthls	r5, r5
 80018c4:	3e01      	subs	r6, #1
 80018c6:	d193      	bne.n	80017f0 <main+0x538>
 80018c8:	e74a      	b.n	8001760 <main+0x4a8>
 80018ca:	fbbb f0f5 	udiv	r0, fp, r5
 80018ce:	f7ff f9b1 	bl	8000c34 <__aeabi_ui2f>
 80018d2:	494d      	ldr	r1, [pc, #308]	@ (8001a08 <main+0x750>)
 80018d4:	f7ff fa06 	bl	8000ce4 <__aeabi_fmul>
 80018d8:	494c      	ldr	r1, [pc, #304]	@ (8001a0c <main+0x754>)
 80018da:	f7ff fab7 	bl	8000e4c <__aeabi_fdiv>
 80018de:	494c      	ldr	r1, [pc, #304]	@ (8001a10 <main+0x758>)
 80018e0:	4604      	mov	r4, r0
 80018e2:	f7ff fbb1 	bl	8001048 <__aeabi_fcmpge>
 80018e6:	2800      	cmp	r0, #0
 80018e8:	f47f af43 	bne.w	8001772 <main+0x4ba>
 80018ec:	4620      	mov	r0, r4
 80018ee:	4949      	ldr	r1, [pc, #292]	@ (8001a14 <main+0x75c>)
 80018f0:	f7ff fba0 	bl	8001034 <__aeabi_fcmple>
 80018f4:	2800      	cmp	r0, #0
 80018f6:	f47f af3c 	bne.w	8001772 <main+0x4ba>
 80018fa:	4680      	mov	r8, r0
 80018fc:	f8df 9118 	ldr.w	r9, [pc, #280]	@ 8001a18 <main+0x760>
 8001900:	f859 5b04 	ldr.w	r5, [r9], #4
 8001904:	4620      	mov	r0, r4
 8001906:	4629      	mov	r1, r5
 8001908:	4646      	mov	r6, r8
 800190a:	f108 0801 	add.w	r8, r8, #1
 800190e:	f7ff fb91 	bl	8001034 <__aeabi_fcmple>
 8001912:	2800      	cmp	r0, #0
 8001914:	d05e      	beq.n	80019d4 <main+0x71c>
 8001916:	f8d9 7000 	ldr.w	r7, [r9]
 800191a:	4620      	mov	r0, r4
 800191c:	4639      	mov	r1, r7
 800191e:	f7ff fb93 	bl	8001048 <__aeabi_fcmpge>
 8001922:	2800      	cmp	r0, #0
 8001924:	d056      	beq.n	80019d4 <main+0x71c>
 8001926:	4b3d      	ldr	r3, [pc, #244]	@ (8001a1c <main+0x764>)
 8001928:	f853 9026 	ldr.w	r9, [r3, r6, lsl #2]
 800192c:	f853 0028 	ldr.w	r0, [r3, r8, lsl #2]
 8001930:	4649      	mov	r1, r9
 8001932:	f7ff f8cd 	bl	8000ad0 <__aeabi_fsub>
 8001936:	4629      	mov	r1, r5
 8001938:	4606      	mov	r6, r0
 800193a:	4620      	mov	r0, r4
 800193c:	f7ff f8c8 	bl	8000ad0 <__aeabi_fsub>
 8001940:	4601      	mov	r1, r0
 8001942:	4630      	mov	r0, r6
 8001944:	f7ff f9ce 	bl	8000ce4 <__aeabi_fmul>
 8001948:	4629      	mov	r1, r5
 800194a:	4604      	mov	r4, r0
 800194c:	4638      	mov	r0, r7
 800194e:	f7ff f8bf 	bl	8000ad0 <__aeabi_fsub>
 8001952:	4601      	mov	r1, r0
 8001954:	4620      	mov	r0, r4
 8001956:	f7ff fa79 	bl	8000e4c <__aeabi_fdiv>
 800195a:	4649      	mov	r1, r9
 800195c:	f7ff f8ba 	bl	8000ad4 <__addsf3>
 8001960:	2100      	movs	r1, #0
 8001962:	4604      	mov	r4, r0
 8001964:	f7ff fb7a 	bl	800105c <__aeabi_fcmpgt>
 8001968:	2800      	cmp	r0, #0
 800196a:	f43f af02 	beq.w	8001772 <main+0x4ba>
 800196e:	4620      	mov	r0, r4
 8001970:	492b      	ldr	r1, [pc, #172]	@ (8001a20 <main+0x768>)
 8001972:	f7ff fb55 	bl	8001020 <__aeabi_fcmplt>
 8001976:	2800      	cmp	r0, #0
 8001978:	f43f aefb 	beq.w	8001772 <main+0x4ba>
 800197c:	9803      	ldr	r0, [sp, #12]
 800197e:	f7ff f95d 	bl	8000c3c <__aeabi_i2f>
 8001982:	4621      	mov	r1, r4
 8001984:	f7ff fb6a 	bl	800105c <__aeabi_fcmpgt>
 8001988:	b120      	cbz	r0, 8001994 <main+0x6dc>
 800198a:	4620      	mov	r0, r4
 800198c:	f7ff fb70 	bl	8001070 <__aeabi_f2iz>
 8001990:	b203      	sxth	r3, r0
 8001992:	9303      	str	r3, [sp, #12]
 8001994:	9805      	ldr	r0, [sp, #20]
 8001996:	f7ff f951 	bl	8000c3c <__aeabi_i2f>
 800199a:	4621      	mov	r1, r4
 800199c:	f7ff fb40 	bl	8001020 <__aeabi_fcmplt>
 80019a0:	2800      	cmp	r0, #0
 80019a2:	f43f aee6 	beq.w	8001772 <main+0x4ba>
 80019a6:	4620      	mov	r0, r4
 80019a8:	f7ff fb62 	bl	8001070 <__aeabi_f2iz>
 80019ac:	b203      	sxth	r3, r0
 80019ae:	9305      	str	r3, [sp, #20]
 80019b0:	9b03      	ldr	r3, [sp, #12]
 80019b2:	f5b3 7f96 	cmp.w	r3, #300	@ 0x12c
 80019b6:	f43f ada9 	beq.w	800150c <main+0x254>
 80019ba:	9b04      	ldr	r3, [sp, #16]
 80019bc:	a813      	add	r0, sp, #76	@ 0x4c
 80019be:	f88d 3053 	strb.w	r3, [sp, #83]	@ 0x53
 80019c2:	9b03      	ldr	r3, [sp, #12]
 80019c4:	f8ad 304c 	strh.w	r3, [sp, #76]	@ 0x4c
 80019c8:	9b05      	ldr	r3, [sp, #20]
 80019ca:	f8ad 304e 	strh.w	r3, [sp, #78]	@ 0x4e
 80019ce:	f7ff fbe1 	bl	8001194 <CAN_SendTemperatureStatistics.isra.0>
 80019d2:	e59b      	b.n	800150c <main+0x254>
 80019d4:	f1b8 0f20 	cmp.w	r8, #32
 80019d8:	d192      	bne.n	8001900 <main+0x648>
 80019da:	e6ca      	b.n	8001772 <main+0x4ba>
 80019dc:	f3af 8000 	nop.w
 80019e0:	27651b4e 	.word	0x27651b4e
 80019e4:	3ffd29c2 	.word	0x3ffd29c2
 80019e8:	2ca4a201 	.word	0x2ca4a201
 80019ec:	3feaca31 	.word	0x3feaca31
 80019f0:	732b3d3d 	.word	0x732b3d3d
 80019f4:	3f6dab37 	.word	0x3f6dab37
 80019f8:	732b3d3d 	.word	0x732b3d3d
 80019fc:	3f7dab37 	.word	0x3f7dab37
 8001a00:	20000358 	.word	0x20000358
 8001a04:	3fe00000 	.word	0x3fe00000
 8001a08:	40400000 	.word	0x40400000
 8001a0c:	457ff000 	.word	0x457ff000
 8001a10:	401c28f6 	.word	0x401c28f6
 8001a14:	3fa66666 	.word	0x3fa66666
 8001a18:	0800613c 	.word	0x0800613c
 8001a1c:	080060b8 	.word	0x080060b8
 8001a20:	42aa0000 	.word	0x42aa0000

08001a24 <HAL_MspInit>:
 8001a24:	4b0e      	ldr	r3, [pc, #56]	@ (8001a60 <HAL_MspInit+0x3c>)
 8001a26:	b082      	sub	sp, #8
 8001a28:	699a      	ldr	r2, [r3, #24]
 8001a2a:	f042 0201 	orr.w	r2, r2, #1
 8001a2e:	619a      	str	r2, [r3, #24]
 8001a30:	699a      	ldr	r2, [r3, #24]
 8001a32:	f002 0201 	and.w	r2, r2, #1
 8001a36:	9200      	str	r2, [sp, #0]
 8001a38:	9a00      	ldr	r2, [sp, #0]
 8001a3a:	69da      	ldr	r2, [r3, #28]
 8001a3c:	f042 5280 	orr.w	r2, r2, #268435456	@ 0x10000000
 8001a40:	61da      	str	r2, [r3, #28]
 8001a42:	69db      	ldr	r3, [r3, #28]
 8001a44:	4a07      	ldr	r2, [pc, #28]	@ (8001a64 <HAL_MspInit+0x40>)
 8001a46:	f003 5380 	and.w	r3, r3, #268435456	@ 0x10000000
 8001a4a:	9301      	str	r3, [sp, #4]
 8001a4c:	9b01      	ldr	r3, [sp, #4]
 8001a4e:	6853      	ldr	r3, [r2, #4]
 8001a50:	f023 63e0 	bic.w	r3, r3, #117440512	@ 0x7000000
 8001a54:	f043 7300 	orr.w	r3, r3, #33554432	@ 0x2000000
 8001a58:	6053      	str	r3, [r2, #4]
 8001a5a:	b002      	add	sp, #8
 8001a5c:	4770      	bx	lr
 8001a5e:	bf00      	nop
 8001a60:	40021000 	.word	0x40021000
 8001a64:	40010000 	.word	0x40010000

08001a68 <HAL_ADC_MspInit>:
 8001a68:	b510      	push	{r4, lr}
 8001a6a:	4604      	mov	r4, r0
 8001a6c:	b086      	sub	sp, #24
 8001a6e:	2210      	movs	r2, #16
 8001a70:	2100      	movs	r1, #0
 8001a72:	a802      	add	r0, sp, #8
 8001a74:	f002 fb90 	bl	8004198 <memset>
 8001a78:	6822      	ldr	r2, [r4, #0]
 8001a7a:	4b10      	ldr	r3, [pc, #64]	@ (8001abc <HAL_ADC_MspInit+0x54>)
 8001a7c:	429a      	cmp	r2, r3
 8001a7e:	d11b      	bne.n	8001ab8 <HAL_ADC_MspInit+0x50>
 8001a80:	f503 436c 	add.w	r3, r3, #60416	@ 0xec00
 8001a84:	699a      	ldr	r2, [r3, #24]
 8001a86:	480e      	ldr	r0, [pc, #56]	@ (8001ac0 <HAL_ADC_MspInit+0x58>)
 8001a88:	f442 7200 	orr.w	r2, r2, #512	@ 0x200
 8001a8c:	619a      	str	r2, [r3, #24]
 8001a8e:	699a      	ldr	r2, [r3, #24]
 8001a90:	a902      	add	r1, sp, #8
 8001a92:	f402 7200 	and.w	r2, r2, #512	@ 0x200
 8001a96:	9200      	str	r2, [sp, #0]
 8001a98:	9a00      	ldr	r2, [sp, #0]
 8001a9a:	699a      	ldr	r2, [r3, #24]
 8001a9c:	f042 0204 	orr.w	r2, r2, #4
 8001aa0:	619a      	str	r2, [r3, #24]
 8001aa2:	699b      	ldr	r3, [r3, #24]
 8001aa4:	2204      	movs	r2, #4
 8001aa6:	f003 0304 	and.w	r3, r3, #4
 8001aaa:	9301      	str	r3, [sp, #4]
 8001aac:	9b01      	ldr	r3, [sp, #4]
 8001aae:	2303      	movs	r3, #3
 8001ab0:	e9cd 2302 	strd	r2, r3, [sp, #8]
 8001ab4:	f000 fe3e 	bl	8002734 <HAL_GPIO_Init>
 8001ab8:	b006      	add	sp, #24
 8001aba:	bd10      	pop	{r4, pc}
 8001abc:	40012400 	.word	0x40012400
 8001ac0:	40010800 	.word	0x40010800

08001ac4 <HAL_CAN_MspInit>:
 8001ac4:	b510      	push	{r4, lr}
 8001ac6:	4604      	mov	r4, r0
 8001ac8:	b086      	sub	sp, #24
 8001aca:	2210      	movs	r2, #16
 8001acc:	2100      	movs	r1, #0
 8001ace:	a802      	add	r0, sp, #8
 8001ad0:	f002 fb62 	bl	8004198 <memset>
 8001ad4:	6822      	ldr	r2, [r4, #0]
 8001ad6:	4b15      	ldr	r3, [pc, #84]	@ (8001b2c <HAL_CAN_MspInit+0x68>)
 8001ad8:	429a      	cmp	r2, r3
 8001ada:	d125      	bne.n	8001b28 <HAL_CAN_MspInit+0x64>
 8001adc:	f503 33d6 	add.w	r3, r3, #109568	@ 0x1ac00
 8001ae0:	69da      	ldr	r2, [r3, #28]
 8001ae2:	4813      	ldr	r0, [pc, #76]	@ (8001b30 <HAL_CAN_MspInit+0x6c>)
 8001ae4:	f042 7200 	orr.w	r2, r2, #33554432	@ 0x2000000
 8001ae8:	61da      	str	r2, [r3, #28]
 8001aea:	69da      	ldr	r2, [r3, #28]
 8001aec:	a902      	add	r1, sp, #8
 8001aee:	f002 7200 	and.w	r2, r2, #33554432	@ 0x2000000
 8001af2:	9200      	str	r2, [sp, #0]
 8001af4:	9a00      	ldr	r2, [sp, #0]
 8001af6:	699a      	ldr	r2, [r3, #24]
 8001af8:	f042 0204 	orr.w	r2, r2, #4
 8001afc:	619a      	str	r2, [r3, #24]
 8001afe:	699b      	ldr	r3, [r3, #24]
 8001b00:	f003 0304 	and.w	r3, r3, #4
 8001b04:	9301      	str	r3, [sp, #4]
 8001b06:	9b01      	ldr	r3, [sp, #4]
 8001b08:	f44f 6300 	mov.w	r3, #2048	@ 0x800
 8001b0c:	9302      	str	r3, [sp, #8]
 8001b0e:	f000 fe11 	bl	8002734 <HAL_GPIO_Init>
 8001b12:	2302      	movs	r3, #2
 8001b14:	f44f 5280 	mov.w	r2, #4096	@ 0x1000
 8001b18:	e9cd 2302 	strd	r2, r3, [sp, #8]
 8001b1c:	2303      	movs	r3, #3
 8001b1e:	4804      	ldr	r0, [pc, #16]	@ (8001b30 <HAL_CAN_MspInit+0x6c>)
 8001b20:	a902      	add	r1, sp, #8
 8001b22:	9305      	str	r3, [sp, #20]
 8001b24:	f000 fe06 	bl	8002734 <HAL_GPIO_Init>
 8001b28:	b006      	add	sp, #24
 8001b2a:	bd10      	pop	{r4, pc}
 8001b2c:	40006400 	.word	0x40006400
 8001b30:	40010800 	.word	0x40010800

08001b34 <HAL_SPI_MspInit>:
 8001b34:	b510      	push	{r4, lr}
 8001b36:	4604      	mov	r4, r0
 8001b38:	b086      	sub	sp, #24
 8001b3a:	2210      	movs	r2, #16
 8001b3c:	2100      	movs	r1, #0
 8001b3e:	a802      	add	r0, sp, #8
 8001b40:	f002 fb2a 	bl	8004198 <memset>
 8001b44:	6822      	ldr	r2, [r4, #0]
 8001b46:	4b11      	ldr	r3, [pc, #68]	@ (8001b8c <HAL_SPI_MspInit+0x58>)
 8001b48:	429a      	cmp	r2, r3
 8001b4a:	d11d      	bne.n	8001b88 <HAL_SPI_MspInit+0x54>
 8001b4c:	f503 4360 	add.w	r3, r3, #57344	@ 0xe000
 8001b50:	699a      	ldr	r2, [r3, #24]
 8001b52:	480f      	ldr	r0, [pc, #60]	@ (8001b90 <HAL_SPI_MspInit+0x5c>)
 8001b54:	f442 5280 	orr.w	r2, r2, #4096	@ 0x1000
 8001b58:	619a      	str	r2, [r3, #24]
 8001b5a:	699a      	ldr	r2, [r3, #24]
 8001b5c:	a902      	add	r1, sp, #8
 8001b5e:	f402 5280 	and.w	r2, r2, #4096	@ 0x1000
 8001b62:	9200      	str	r2, [sp, #0]
 8001b64:	9a00      	ldr	r2, [sp, #0]
 8001b66:	699a      	ldr	r2, [r3, #24]
 8001b68:	f042 0204 	orr.w	r2, r2, #4
 8001b6c:	619a      	str	r2, [r3, #24]
 8001b6e:	699b      	ldr	r3, [r3, #24]
 8001b70:	22a0      	movs	r2, #160	@ 0xa0
 8001b72:	f003 0304 	and.w	r3, r3, #4
 8001b76:	9301      	str	r3, [sp, #4]
 8001b78:	9b01      	ldr	r3, [sp, #4]
 8001b7a:	2302      	movs	r3, #2
 8001b7c:	e9cd 2302 	strd	r2, r3, [sp, #8]
 8001b80:	2303      	movs	r3, #3
 8001b82:	9305      	str	r3, [sp, #20]
 8001b84:	f000 fdd6 	bl	8002734 <HAL_GPIO_Init>
 8001b88:	b006      	add	sp, #24
 8001b8a:	bd10      	pop	{r4, pc}
 8001b8c:	40013000 	.word	0x40013000
 8001b90:	40010800 	.word	0x40010800

08001b94 <HAL_TIM_Base_MspInit>:
 8001b94:	6802      	ldr	r2, [r0, #0]
 8001b96:	4b08      	ldr	r3, [pc, #32]	@ (8001bb8 <HAL_TIM_Base_MspInit+0x24>)
 8001b98:	b082      	sub	sp, #8
 8001b9a:	429a      	cmp	r2, r3
 8001b9c:	d10a      	bne.n	8001bb4 <HAL_TIM_Base_MspInit+0x20>
 8001b9e:	f503 3302 	add.w	r3, r3, #133120	@ 0x20800
 8001ba2:	69da      	ldr	r2, [r3, #28]
 8001ba4:	f042 0204 	orr.w	r2, r2, #4
 8001ba8:	61da      	str	r2, [r3, #28]
 8001baa:	69db      	ldr	r3, [r3, #28]
 8001bac:	f003 0304 	and.w	r3, r3, #4
 8001bb0:	9301      	str	r3, [sp, #4]
 8001bb2:	9b01      	ldr	r3, [sp, #4]
 8001bb4:	b002      	add	sp, #8
 8001bb6:	4770      	bx	lr
 8001bb8:	40000800 	.word	0x40000800

08001bbc <HAL_UART_MspInit>:
 8001bbc:	b510      	push	{r4, lr}
 8001bbe:	4604      	mov	r4, r0
 8001bc0:	b086      	sub	sp, #24
 8001bc2:	2210      	movs	r2, #16
 8001bc4:	2100      	movs	r1, #0
 8001bc6:	a802      	add	r0, sp, #8
 8001bc8:	f002 fae6 	bl	8004198 <memset>
 8001bcc:	6822      	ldr	r2, [r4, #0]
 8001bce:	4b17      	ldr	r3, [pc, #92]	@ (8001c2c <HAL_UART_MspInit+0x70>)
 8001bd0:	429a      	cmp	r2, r3
 8001bd2:	d128      	bne.n	8001c26 <HAL_UART_MspInit+0x6a>
 8001bd4:	f503 4358 	add.w	r3, r3, #55296	@ 0xd800
 8001bd8:	699a      	ldr	r2, [r3, #24]
 8001bda:	4815      	ldr	r0, [pc, #84]	@ (8001c30 <HAL_UART_MspInit+0x74>)
 8001bdc:	f442 4280 	orr.w	r2, r2, #16384	@ 0x4000
 8001be0:	619a      	str	r2, [r3, #24]
 8001be2:	699a      	ldr	r2, [r3, #24]
 8001be4:	a902      	add	r1, sp, #8
 8001be6:	f402 4280 	and.w	r2, r2, #16384	@ 0x4000
 8001bea:	9200      	str	r2, [sp, #0]
 8001bec:	9a00      	ldr	r2, [sp, #0]
 8001bee:	699a      	ldr	r2, [r3, #24]
 8001bf0:	f042 0204 	orr.w	r2, r2, #4
 8001bf4:	619a      	str	r2, [r3, #24]
 8001bf6:	699b      	ldr	r3, [r3, #24]
 8001bf8:	f44f 7200 	mov.w	r2, #512	@ 0x200
 8001bfc:	f003 0304 	and.w	r3, r3, #4
 8001c00:	9301      	str	r3, [sp, #4]
 8001c02:	9b01      	ldr	r3, [sp, #4]
 8001c04:	2302      	movs	r3, #2
 8001c06:	e9cd 2302 	strd	r2, r3, [sp, #8]
 8001c0a:	2303      	movs	r3, #3
 8001c0c:	9305      	str	r3, [sp, #20]
 8001c0e:	f000 fd91 	bl	8002734 <HAL_GPIO_Init>
 8001c12:	f44f 6180 	mov.w	r1, #1024	@ 0x400
 8001c16:	2300      	movs	r3, #0
 8001c18:	4805      	ldr	r0, [pc, #20]	@ (8001c30 <HAL_UART_MspInit+0x74>)
 8001c1a:	e9cd 1302 	strd	r1, r3, [sp, #8]
 8001c1e:	a902      	add	r1, sp, #8
 8001c20:	9304      	str	r3, [sp, #16]
 8001c22:	f000 fd87 	bl	8002734 <HAL_GPIO_Init>
 8001c26:	b006      	add	sp, #24
 8001c28:	bd10      	pop	{r4, pc}
 8001c2a:	bf00      	nop
 8001c2c:	40013800 	.word	0x40013800
 8001c30:	40010800 	.word	0x40010800

08001c34 <NMI_Handler>:
 8001c34:	b508      	push	{r3, lr}
 8001c36:	f001 f8dd 	bl	8002df4 <HAL_RCC_NMI_IRQHandler>
 8001c3a:	e7fe      	b.n	8001c3a <NMI_Handler+0x6>

08001c3c <HardFault_Handler>:
 8001c3c:	e7fe      	b.n	8001c3c <HardFault_Handler>

08001c3e <MemManage_Handler>:
 8001c3e:	e7fe      	b.n	8001c3e <MemManage_Handler>

08001c40 <BusFault_Handler>:
 8001c40:	e7fe      	b.n	8001c40 <BusFault_Handler>

08001c42 <UsageFault_Handler>:
 8001c42:	e7fe      	b.n	8001c42 <UsageFault_Handler>

08001c44 <SVC_Handler>:
 8001c44:	4770      	bx	lr

08001c46 <DebugMon_Handler>:
 8001c46:	4770      	bx	lr

08001c48 <PendSV_Handler>:
 8001c48:	4770      	bx	lr

08001c4a <SysTick_Handler>:
 8001c4a:	f000 b8a7 	b.w	8001d9c <HAL_IncTick>

08001c4e <_getpid>:
 8001c4e:	2001      	movs	r0, #1
 8001c50:	4770      	bx	lr

08001c52 <_kill>:
 8001c52:	b508      	push	{r3, lr}
 8001c54:	f002 faa8 	bl	80041a8 <__errno>
 8001c58:	2316      	movs	r3, #22
 8001c5a:	6003      	str	r3, [r0, #0]
 8001c5c:	f04f 30ff 	mov.w	r0, #4294967295	@ 0xffffffff
 8001c60:	bd08      	pop	{r3, pc}

08001c62 <_exit>:
 8001c62:	b508      	push	{r3, lr}
 8001c64:	f002 faa0 	bl	80041a8 <__errno>
 8001c68:	2316      	movs	r3, #22
 8001c6a:	6003      	str	r3, [r0, #0]
 8001c6c:	e7fe      	b.n	8001c6c <_exit+0xa>

08001c6e <_read>:
 8001c6e:	b570      	push	{r4, r5, r6, lr}
 8001c70:	460d      	mov	r5, r1
 8001c72:	4614      	mov	r4, r2
 8001c74:	460e      	mov	r6, r1
 8001c76:	1b73      	subs	r3, r6, r5
 8001c78:	429c      	cmp	r4, r3
 8001c7a:	dc01      	bgt.n	8001c80 <_read+0x12>
 8001c7c:	4620      	mov	r0, r4
 8001c7e:	bd70      	pop	{r4, r5, r6, pc}
 8001c80:	f3af 8000 	nop.w
 8001c84:	f806 0b01 	strb.w	r0, [r6], #1
 8001c88:	e7f5      	b.n	8001c76 <_read+0x8>

08001c8a <_close>:
 8001c8a:	f04f 30ff 	mov.w	r0, #4294967295	@ 0xffffffff
 8001c8e:	4770      	bx	lr

08001c90 <_fstat>:
 8001c90:	f44f 5300 	mov.w	r3, #8192	@ 0x2000
 8001c94:	2000      	movs	r0, #0
 8001c96:	604b      	str	r3, [r1, #4]
 8001c98:	4770      	bx	lr

08001c9a <_isatty>:
 8001c9a:	2001      	movs	r0, #1
 8001c9c:	4770      	bx	lr

08001c9e <_lseek>:
 8001c9e:	2000      	movs	r0, #0
 8001ca0:	4770      	bx	lr
	...

08001ca4 <_sbrk>:
 8001ca4:	4a0a      	ldr	r2, [pc, #40]	@ (8001cd0 <_sbrk+0x2c>)
 8001ca6:	4603      	mov	r3, r0
 8001ca8:	6810      	ldr	r0, [r2, #0]
 8001caa:	b510      	push	{r4, lr}
 8001cac:	b908      	cbnz	r0, 8001cb2 <_sbrk+0xe>
 8001cae:	4809      	ldr	r0, [pc, #36]	@ (8001cd4 <_sbrk+0x30>)
 8001cb0:	6010      	str	r0, [r2, #0]
 8001cb2:	4909      	ldr	r1, [pc, #36]	@ (8001cd8 <_sbrk+0x34>)
 8001cb4:	4c09      	ldr	r4, [pc, #36]	@ (8001cdc <_sbrk+0x38>)
 8001cb6:	4403      	add	r3, r0
 8001cb8:	1b09      	subs	r1, r1, r4
 8001cba:	428b      	cmp	r3, r1
 8001cbc:	d906      	bls.n	8001ccc <_sbrk+0x28>
 8001cbe:	f002 fa73 	bl	80041a8 <__errno>
 8001cc2:	230c      	movs	r3, #12
 8001cc4:	6003      	str	r3, [r0, #0]
 8001cc6:	f04f 30ff 	mov.w	r0, #4294967295	@ 0xffffffff
 8001cca:	bd10      	pop	{r4, pc}
 8001ccc:	6013      	str	r3, [r2, #0]
 8001cce:	e7fc      	b.n	8001cca <_sbrk+0x26>
 8001cd0:	20000958 	.word	0x20000958
 8001cd4:	20000ab0 	.word	0x20000ab0
 8001cd8:	20005000 	.word	0x20005000
 8001cdc:	00000400 	.word	0x00000400

08001ce0 <SystemInit>:
 8001ce0:	4770      	bx	lr
	...

08001ce4 <Reset_Handler>:
 8001ce4:	f7ff fffc 	bl	8001ce0 <SystemInit>
 8001ce8:	480b      	ldr	r0, [pc, #44]	@ (8001d18 <LoopFillZerobss+0xe>)
 8001cea:	490c      	ldr	r1, [pc, #48]	@ (8001d1c <LoopFillZerobss+0x12>)
 8001cec:	4a0c      	ldr	r2, [pc, #48]	@ (8001d20 <LoopFillZerobss+0x16>)
 8001cee:	2300      	movs	r3, #0
 8001cf0:	e002      	b.n	8001cf8 <LoopCopyDataInit>

08001cf2 <CopyDataInit>:
 8001cf2:	58d4      	ldr	r4, [r2, r3]
 8001cf4:	50c4      	str	r4, [r0, r3]
 8001cf6:	3304      	adds	r3, #4

08001cf8 <LoopCopyDataInit>:
 8001cf8:	18c4      	adds	r4, r0, r3
 8001cfa:	428c      	cmp	r4, r1
 8001cfc:	d3f9      	bcc.n	8001cf2 <CopyDataInit>
 8001cfe:	4a09      	ldr	r2, [pc, #36]	@ (8001d24 <LoopFillZerobss+0x1a>)
 8001d00:	4c09      	ldr	r4, [pc, #36]	@ (8001d28 <LoopFillZerobss+0x1e>)
 8001d02:	2300      	movs	r3, #0
 8001d04:	e001      	b.n	8001d0a <LoopFillZerobss>

08001d06 <FillZerobss>:
 8001d06:	6013      	str	r3, [r2, #0]
 8001d08:	3204      	adds	r2, #4

08001d0a <LoopFillZerobss>:
 8001d0a:	42a2      	cmp	r2, r4
 8001d0c:	d3fb      	bcc.n	8001d06 <FillZerobss>
 8001d0e:	f002 fa51 	bl	80041b4 <__libc_init_array>
 8001d12:	f7ff fad1 	bl	80012b8 <main>
 8001d16:	4770      	bx	lr
 8001d18:	20000000 	.word	0x20000000
 8001d1c:	200001d4 	.word	0x200001d4
 8001d20:	08006594 	.word	0x08006594
 8001d24:	200001d8 	.word	0x200001d8
 8001d28:	20000aac 	.word	0x20000aac

08001d2c <ADC1_2_IRQHandler>:
 8001d2c:	e7fe      	b.n	8001d2c <ADC1_2_IRQHandler>
	...

08001d30 <HAL_InitTick>:
 8001d30:	b538      	push	{r3, r4, r5, lr}
 8001d32:	4b0e      	ldr	r3, [pc, #56]	@ (8001d6c <HAL_InitTick+0x3c>)
 8001d34:	4605      	mov	r5, r0
 8001d36:	781a      	ldrb	r2, [r3, #0]
 8001d38:	f44f 737a 	mov.w	r3, #1000	@ 0x3e8
 8001d3c:	fbb3 f3f2 	udiv	r3, r3, r2
 8001d40:	4a0b      	ldr	r2, [pc, #44]	@ (8001d70 <HAL_InitTick+0x40>)
 8001d42:	6810      	ldr	r0, [r2, #0]
 8001d44:	fbb0 f0f3 	udiv	r0, r0, r3
 8001d48:	f000 fce0 	bl	800270c <HAL_SYSTICK_Config>
 8001d4c:	4604      	mov	r4, r0
 8001d4e:	b958      	cbnz	r0, 8001d68 <HAL_InitTick+0x38>
 8001d50:	2d0f      	cmp	r5, #15
 8001d52:	d809      	bhi.n	8001d68 <HAL_InitTick+0x38>
 8001d54:	4602      	mov	r2, r0
 8001d56:	4629      	mov	r1, r5
 8001d58:	f04f 30ff 	mov.w	r0, #4294967295	@ 0xffffffff
 8001d5c:	f000 fca6 	bl	80026ac <HAL_NVIC_SetPriority>
 8001d60:	4620      	mov	r0, r4
 8001d62:	4b04      	ldr	r3, [pc, #16]	@ (8001d74 <HAL_InitTick+0x44>)
 8001d64:	601d      	str	r5, [r3, #0]
 8001d66:	bd38      	pop	{r3, r4, r5, pc}
 8001d68:	2001      	movs	r0, #1
 8001d6a:	e7fc      	b.n	8001d66 <HAL_InitTick+0x36>
 8001d6c:	20000004 	.word	0x20000004
 8001d70:	20000000 	.word	0x20000000
 8001d74:	20000008 	.word	0x20000008

08001d78 <HAL_Init>:
 8001d78:	4a07      	ldr	r2, [pc, #28]	@ (8001d98 <HAL_Init+0x20>)
 8001d7a:	b508      	push	{r3, lr}
 8001d7c:	6813      	ldr	r3, [r2, #0]
 8001d7e:	2003      	movs	r0, #3
 8001d80:	f043 0310 	orr.w	r3, r3, #16
 8001d84:	6013      	str	r3, [r2, #0]
 8001d86:	f000 fc7f 	bl	8002688 <HAL_NVIC_SetPriorityGrouping>
 8001d8a:	200f      	movs	r0, #15
 8001d8c:	f7ff ffd0 	bl	8001d30 <HAL_InitTick>
 8001d90:	f7ff fe48 	bl	8001a24 <HAL_MspInit>
 8001d94:	2000      	movs	r0, #0
 8001d96:	bd08      	pop	{r3, pc}
 8001d98:	40022000 	.word	0x40022000

08001d9c <HAL_IncTick>:
 8001d9c:	4a03      	ldr	r2, [pc, #12]	@ (8001dac <HAL_IncTick+0x10>)
 8001d9e:	4b04      	ldr	r3, [pc, #16]	@ (8001db0 <HAL_IncTick+0x14>)
 8001da0:	6811      	ldr	r1, [r2, #0]
 8001da2:	781b      	ldrb	r3, [r3, #0]
 8001da4:	440b      	add	r3, r1
 8001da6:	6013      	str	r3, [r2, #0]
 8001da8:	4770      	bx	lr
 8001daa:	bf00      	nop
 8001dac:	2000095c 	.word	0x2000095c
 8001db0:	20000004 	.word	0x20000004

08001db4 <HAL_GetTick>:
 8001db4:	4b01      	ldr	r3, [pc, #4]	@ (8001dbc <HAL_GetTick+0x8>)
 8001db6:	6818      	ldr	r0, [r3, #0]
 8001db8:	4770      	bx	lr
 8001dba:	bf00      	nop
 8001dbc:	2000095c 	.word	0x2000095c

08001dc0 <HAL_Delay>:
 8001dc0:	b538      	push	{r3, r4, r5, lr}
 8001dc2:	4604      	mov	r4, r0
 8001dc4:	f7ff fff6 	bl	8001db4 <HAL_GetTick>
 8001dc8:	4605      	mov	r5, r0
 8001dca:	1c63      	adds	r3, r4, #1
 8001dcc:	bf1e      	ittt	ne
 8001dce:	4b04      	ldrne	r3, [pc, #16]	@ (8001de0 <HAL_Delay+0x20>)
 8001dd0:	781b      	ldrbne	r3, [r3, #0]
 8001dd2:	18e4      	addne	r4, r4, r3
 8001dd4:	f7ff ffee 	bl	8001db4 <HAL_GetTick>
 8001dd8:	1b43      	subs	r3, r0, r5
 8001dda:	42a3      	cmp	r3, r4
 8001ddc:	d3fa      	bcc.n	8001dd4 <HAL_Delay+0x14>
 8001dde:	bd38      	pop	{r3, r4, r5, pc}
 8001de0:	20000004 	.word	0x20000004

08001de4 <HAL_ADC_PollForConversion>:
 8001de4:	b5f7      	push	{r0, r1, r2, r4, r5, r6, r7, lr}
 8001de6:	2600      	movs	r6, #0
 8001de8:	4604      	mov	r4, r0
 8001dea:	460d      	mov	r5, r1
 8001dec:	9601      	str	r6, [sp, #4]
 8001dee:	f7ff ffe1 	bl	8001db4 <HAL_GetTick>
 8001df2:	6823      	ldr	r3, [r4, #0]
 8001df4:	4607      	mov	r7, r0
 8001df6:	689a      	ldr	r2, [r3, #8]
 8001df8:	05d1      	lsls	r1, r2, #23
 8001dfa:	d508      	bpl.n	8001e0e <HAL_ADC_PollForConversion+0x2a>
 8001dfc:	2001      	movs	r0, #1
 8001dfe:	6aa3      	ldr	r3, [r4, #40]	@ 0x28
 8001e00:	f884 6024 	strb.w	r6, [r4, #36]	@ 0x24
 8001e04:	f043 0320 	orr.w	r3, r3, #32
 8001e08:	62a3      	str	r3, [r4, #40]	@ 0x28
 8001e0a:	b003      	add	sp, #12
 8001e0c:	bdf0      	pop	{r4, r5, r6, r7, pc}
 8001e0e:	685a      	ldr	r2, [r3, #4]
 8001e10:	05d2      	lsls	r2, r2, #23
 8001e12:	d403      	bmi.n	8001e1c <HAL_ADC_PollForConversion+0x38>
 8001e14:	6adb      	ldr	r3, [r3, #44]	@ 0x2c
 8001e16:	f413 0f70 	tst.w	r3, #15728640	@ 0xf00000
 8001e1a:	d03d      	beq.n	8001e98 <HAL_ADC_PollForConversion+0xb4>
 8001e1c:	4b3d      	ldr	r3, [pc, #244]	@ (8001f14 <HAL_ADC_PollForConversion+0x130>)
 8001e1e:	2002      	movs	r0, #2
 8001e20:	681e      	ldr	r6, [r3, #0]
 8001e22:	f001 f86d 	bl	8002f00 <HAL_RCCEx_GetPeriphCLKFreq>
 8001e26:	6823      	ldr	r3, [r4, #0]
 8001e28:	4a3b      	ldr	r2, [pc, #236]	@ (8001f18 <HAL_ADC_PollForConversion+0x134>)
 8001e2a:	6919      	ldr	r1, [r3, #16]
 8001e2c:	fbb6 f6f0 	udiv	r6, r6, r0
 8001e30:	4211      	tst	r1, r2
 8001e32:	4a3a      	ldr	r2, [pc, #232]	@ (8001f1c <HAL_ADC_PollForConversion+0x138>)
 8001e34:	d151      	bne.n	8001eda <HAL_ADC_PollForConversion+0xf6>
 8001e36:	68d8      	ldr	r0, [r3, #12]
 8001e38:	4939      	ldr	r1, [pc, #228]	@ (8001f20 <HAL_ADC_PollForConversion+0x13c>)
 8001e3a:	4208      	tst	r0, r1
 8001e3c:	d14d      	bne.n	8001eda <HAL_ADC_PollForConversion+0xf6>
 8001e3e:	6919      	ldr	r1, [r3, #16]
 8001e40:	4211      	tst	r1, r2
 8001e42:	d15b      	bne.n	8001efc <HAL_ADC_PollForConversion+0x118>
 8001e44:	68da      	ldr	r2, [r3, #12]
 8001e46:	4b37      	ldr	r3, [pc, #220]	@ (8001f24 <HAL_ADC_PollForConversion+0x140>)
 8001e48:	421a      	tst	r2, r3
 8001e4a:	bf0c      	ite	eq
 8001e4c:	2314      	moveq	r3, #20
 8001e4e:	2329      	movne	r3, #41	@ 0x29
 8001e50:	435e      	muls	r6, r3
 8001e52:	9b01      	ldr	r3, [sp, #4]
 8001e54:	42b3      	cmp	r3, r6
 8001e56:	d223      	bcs.n	8001ea0 <HAL_ADC_PollForConversion+0xbc>
 8001e58:	1c6a      	adds	r2, r5, #1
 8001e5a:	d004      	beq.n	8001e66 <HAL_ADC_PollForConversion+0x82>
 8001e5c:	2d00      	cmp	r5, #0
 8001e5e:	d153      	bne.n	8001f08 <HAL_ADC_PollForConversion+0x124>
 8001e60:	9b01      	ldr	r3, [sp, #4]
 8001e62:	42b3      	cmp	r3, r6
 8001e64:	d30a      	bcc.n	8001e7c <HAL_ADC_PollForConversion+0x98>
 8001e66:	9b01      	ldr	r3, [sp, #4]
 8001e68:	3301      	adds	r3, #1
 8001e6a:	9301      	str	r3, [sp, #4]
 8001e6c:	e7f1      	b.n	8001e52 <HAL_ADC_PollForConversion+0x6e>
 8001e6e:	1c6e      	adds	r6, r5, #1
 8001e70:	d013      	beq.n	8001e9a <HAL_ADC_PollForConversion+0xb6>
 8001e72:	b965      	cbnz	r5, 8001e8e <HAL_ADC_PollForConversion+0xaa>
 8001e74:	6823      	ldr	r3, [r4, #0]
 8001e76:	681b      	ldr	r3, [r3, #0]
 8001e78:	0798      	lsls	r0, r3, #30
 8001e7a:	d40d      	bmi.n	8001e98 <HAL_ADC_PollForConversion+0xb4>
 8001e7c:	6aa3      	ldr	r3, [r4, #40]	@ 0x28
 8001e7e:	2003      	movs	r0, #3
 8001e80:	f043 0304 	orr.w	r3, r3, #4
 8001e84:	62a3      	str	r3, [r4, #40]	@ 0x28
 8001e86:	2300      	movs	r3, #0
 8001e88:	f884 3024 	strb.w	r3, [r4, #36]	@ 0x24
 8001e8c:	e7bd      	b.n	8001e0a <HAL_ADC_PollForConversion+0x26>
 8001e8e:	f7ff ff91 	bl	8001db4 <HAL_GetTick>
 8001e92:	1bc0      	subs	r0, r0, r7
 8001e94:	42a8      	cmp	r0, r5
 8001e96:	d8ed      	bhi.n	8001e74 <HAL_ADC_PollForConversion+0x90>
 8001e98:	6822      	ldr	r2, [r4, #0]
 8001e9a:	6813      	ldr	r3, [r2, #0]
 8001e9c:	0799      	lsls	r1, r3, #30
 8001e9e:	d5e6      	bpl.n	8001e6e <HAL_ADC_PollForConversion+0x8a>
 8001ea0:	f06f 0312 	mvn.w	r3, #18
 8001ea4:	6822      	ldr	r2, [r4, #0]
 8001ea6:	6013      	str	r3, [r2, #0]
 8001ea8:	6aa3      	ldr	r3, [r4, #40]	@ 0x28
 8001eaa:	f443 7300 	orr.w	r3, r3, #512	@ 0x200
 8001eae:	62a3      	str	r3, [r4, #40]	@ 0x28
 8001eb0:	6893      	ldr	r3, [r2, #8]
 8001eb2:	f403 2360 	and.w	r3, r3, #917504	@ 0xe0000
 8001eb6:	f5b3 2f60 	cmp.w	r3, #917504	@ 0xe0000
 8001eba:	d10c      	bne.n	8001ed6 <HAL_ADC_PollForConversion+0xf2>
 8001ebc:	7b23      	ldrb	r3, [r4, #12]
 8001ebe:	b953      	cbnz	r3, 8001ed6 <HAL_ADC_PollForConversion+0xf2>
 8001ec0:	6aa3      	ldr	r3, [r4, #40]	@ 0x28
 8001ec2:	f423 7380 	bic.w	r3, r3, #256	@ 0x100
 8001ec6:	62a3      	str	r3, [r4, #40]	@ 0x28
 8001ec8:	6aa3      	ldr	r3, [r4, #40]	@ 0x28
 8001eca:	04db      	lsls	r3, r3, #19
 8001ecc:	d403      	bmi.n	8001ed6 <HAL_ADC_PollForConversion+0xf2>
 8001ece:	6aa3      	ldr	r3, [r4, #40]	@ 0x28
 8001ed0:	f043 0301 	orr.w	r3, r3, #1
 8001ed4:	62a3      	str	r3, [r4, #40]	@ 0x28
 8001ed6:	2000      	movs	r0, #0
 8001ed8:	e797      	b.n	8001e0a <HAL_ADC_PollForConversion+0x26>
 8001eda:	6919      	ldr	r1, [r3, #16]
 8001edc:	4211      	tst	r1, r2
 8001ede:	d103      	bne.n	8001ee8 <HAL_ADC_PollForConversion+0x104>
 8001ee0:	68d9      	ldr	r1, [r3, #12]
 8001ee2:	4a10      	ldr	r2, [pc, #64]	@ (8001f24 <HAL_ADC_PollForConversion+0x140>)
 8001ee4:	4211      	tst	r1, r2
 8001ee6:	d00b      	beq.n	8001f00 <HAL_ADC_PollForConversion+0x11c>
 8001ee8:	6919      	ldr	r1, [r3, #16]
 8001eea:	4a0f      	ldr	r2, [pc, #60]	@ (8001f28 <HAL_ADC_PollForConversion+0x144>)
 8001eec:	4211      	tst	r1, r2
 8001eee:	d109      	bne.n	8001f04 <HAL_ADC_PollForConversion+0x120>
 8001ef0:	68db      	ldr	r3, [r3, #12]
 8001ef2:	4213      	tst	r3, r2
 8001ef4:	bf0c      	ite	eq
 8001ef6:	2354      	moveq	r3, #84	@ 0x54
 8001ef8:	23fc      	movne	r3, #252	@ 0xfc
 8001efa:	e7a9      	b.n	8001e50 <HAL_ADC_PollForConversion+0x6c>
 8001efc:	2329      	movs	r3, #41	@ 0x29
 8001efe:	e7a7      	b.n	8001e50 <HAL_ADC_PollForConversion+0x6c>
 8001f00:	2354      	movs	r3, #84	@ 0x54
 8001f02:	e7a5      	b.n	8001e50 <HAL_ADC_PollForConversion+0x6c>
 8001f04:	23fc      	movs	r3, #252	@ 0xfc
 8001f06:	e7a3      	b.n	8001e50 <HAL_ADC_PollForConversion+0x6c>
 8001f08:	f7ff ff54 	bl	8001db4 <HAL_GetTick>
 8001f0c:	1bc0      	subs	r0, r0, r7
 8001f0e:	42a8      	cmp	r0, r5
 8001f10:	d8a6      	bhi.n	8001e60 <HAL_ADC_PollForConversion+0x7c>
 8001f12:	e7a8      	b.n	8001e66 <HAL_ADC_PollForConversion+0x82>
 8001f14:	20000000 	.word	0x20000000
 8001f18:	24924924 	.word	0x24924924
 8001f1c:	12492492 	.word	0x12492492
 8001f20:	00924924 	.word	0x00924924
 8001f24:	00492492 	.word	0x00492492
 8001f28:	00249249 	.word	0x00249249

08001f2c <HAL_ADC_GetValue>:
 8001f2c:	6803      	ldr	r3, [r0, #0]
 8001f2e:	6cd8      	ldr	r0, [r3, #76]	@ 0x4c
 8001f30:	4770      	bx	lr
	...

08001f34 <HAL_ADC_ConfigChannel>:
 8001f34:	2300      	movs	r3, #0
 8001f36:	b573      	push	{r0, r1, r4, r5, r6, lr}
 8001f38:	9301      	str	r3, [sp, #4]
 8001f3a:	f890 3024 	ldrb.w	r3, [r0, #36]	@ 0x24
 8001f3e:	4604      	mov	r4, r0
 8001f40:	2b01      	cmp	r3, #1
 8001f42:	d06c      	beq.n	800201e <HAL_ADC_ConfigChannel+0xea>
 8001f44:	2301      	movs	r3, #1
 8001f46:	f880 3024 	strb.w	r3, [r0, #36]	@ 0x24
 8001f4a:	684d      	ldr	r5, [r1, #4]
 8001f4c:	6802      	ldr	r2, [r0, #0]
 8001f4e:	2d06      	cmp	r5, #6
 8001f50:	6808      	ldr	r0, [r1, #0]
 8001f52:	eb05 0385 	add.w	r3, r5, r5, lsl #2
 8001f56:	d822      	bhi.n	8001f9e <HAL_ADC_ConfigChannel+0x6a>
 8001f58:	261f      	movs	r6, #31
 8001f5a:	6b55      	ldr	r5, [r2, #52]	@ 0x34
 8001f5c:	3b05      	subs	r3, #5
 8001f5e:	409e      	lsls	r6, r3
 8001f60:	ea25 0506 	bic.w	r5, r5, r6
 8001f64:	fa00 f303 	lsl.w	r3, r0, r3
 8001f68:	432b      	orrs	r3, r5
 8001f6a:	6353      	str	r3, [r2, #52]	@ 0x34
 8001f6c:	2809      	cmp	r0, #9
 8001f6e:	688b      	ldr	r3, [r1, #8]
 8001f70:	eb00 0540 	add.w	r5, r0, r0, lsl #1
 8001f74:	f04f 0107 	mov.w	r1, #7
 8001f78:	d929      	bls.n	8001fce <HAL_ADC_ConfigChannel+0x9a>
 8001f7a:	68d6      	ldr	r6, [r2, #12]
 8001f7c:	3d1e      	subs	r5, #30
 8001f7e:	40a9      	lsls	r1, r5
 8001f80:	ea26 0101 	bic.w	r1, r6, r1
 8001f84:	40ab      	lsls	r3, r5
 8001f86:	430b      	orrs	r3, r1
 8001f88:	60d3      	str	r3, [r2, #12]
 8001f8a:	f1a0 0310 	sub.w	r3, r0, #16
 8001f8e:	2b01      	cmp	r3, #1
 8001f90:	d925      	bls.n	8001fde <HAL_ADC_ConfigChannel+0xaa>
 8001f92:	2000      	movs	r0, #0
 8001f94:	2300      	movs	r3, #0
 8001f96:	f884 3024 	strb.w	r3, [r4, #36]	@ 0x24
 8001f9a:	b002      	add	sp, #8
 8001f9c:	bd70      	pop	{r4, r5, r6, pc}
 8001f9e:	2d0c      	cmp	r5, #12
 8001fa0:	f04f 051f 	mov.w	r5, #31
 8001fa4:	d809      	bhi.n	8001fba <HAL_ADC_ConfigChannel+0x86>
 8001fa6:	6b16      	ldr	r6, [r2, #48]	@ 0x30
 8001fa8:	3b23      	subs	r3, #35	@ 0x23
 8001faa:	409d      	lsls	r5, r3
 8001fac:	ea26 0505 	bic.w	r5, r6, r5
 8001fb0:	fa00 f303 	lsl.w	r3, r0, r3
 8001fb4:	432b      	orrs	r3, r5
 8001fb6:	6313      	str	r3, [r2, #48]	@ 0x30
 8001fb8:	e7d8      	b.n	8001f6c <HAL_ADC_ConfigChannel+0x38>
 8001fba:	6ad6      	ldr	r6, [r2, #44]	@ 0x2c
 8001fbc:	3b41      	subs	r3, #65	@ 0x41
 8001fbe:	409d      	lsls	r5, r3
 8001fc0:	ea26 0505 	bic.w	r5, r6, r5
 8001fc4:	fa00 f303 	lsl.w	r3, r0, r3
 8001fc8:	432b      	orrs	r3, r5
 8001fca:	62d3      	str	r3, [r2, #44]	@ 0x2c
 8001fcc:	e7ce      	b.n	8001f6c <HAL_ADC_ConfigChannel+0x38>
 8001fce:	6910      	ldr	r0, [r2, #16]
 8001fd0:	40a9      	lsls	r1, r5
 8001fd2:	ea20 0101 	bic.w	r1, r0, r1
 8001fd6:	40ab      	lsls	r3, r5
 8001fd8:	430b      	orrs	r3, r1
 8001fda:	6113      	str	r3, [r2, #16]
 8001fdc:	e7d9      	b.n	8001f92 <HAL_ADC_ConfigChannel+0x5e>
 8001fde:	4b11      	ldr	r3, [pc, #68]	@ (8002024 <HAL_ADC_ConfigChannel+0xf0>)
 8001fe0:	429a      	cmp	r2, r3
 8001fe2:	d116      	bne.n	8002012 <HAL_ADC_ConfigChannel+0xde>
 8001fe4:	6893      	ldr	r3, [r2, #8]
 8001fe6:	021b      	lsls	r3, r3, #8
 8001fe8:	d4d3      	bmi.n	8001f92 <HAL_ADC_ConfigChannel+0x5e>
 8001fea:	6893      	ldr	r3, [r2, #8]
 8001fec:	2810      	cmp	r0, #16
 8001fee:	f443 0300 	orr.w	r3, r3, #8388608	@ 0x800000
 8001ff2:	6093      	str	r3, [r2, #8]
 8001ff4:	d1cd      	bne.n	8001f92 <HAL_ADC_ConfigChannel+0x5e>
 8001ff6:	4b0c      	ldr	r3, [pc, #48]	@ (8002028 <HAL_ADC_ConfigChannel+0xf4>)
 8001ff8:	4a0c      	ldr	r2, [pc, #48]	@ (800202c <HAL_ADC_ConfigChannel+0xf8>)
 8001ffa:	681b      	ldr	r3, [r3, #0]
 8001ffc:	fbb3 f3f2 	udiv	r3, r3, r2
 8002000:	220a      	movs	r2, #10
 8002002:	4353      	muls	r3, r2
 8002004:	9301      	str	r3, [sp, #4]
 8002006:	9b01      	ldr	r3, [sp, #4]
 8002008:	2b00      	cmp	r3, #0
 800200a:	d0c2      	beq.n	8001f92 <HAL_ADC_ConfigChannel+0x5e>
 800200c:	9b01      	ldr	r3, [sp, #4]
 800200e:	3b01      	subs	r3, #1
 8002010:	e7f8      	b.n	8002004 <HAL_ADC_ConfigChannel+0xd0>
 8002012:	6aa3      	ldr	r3, [r4, #40]	@ 0x28
 8002014:	2001      	movs	r0, #1
 8002016:	f043 0320 	orr.w	r3, r3, #32
 800201a:	62a3      	str	r3, [r4, #40]	@ 0x28
 800201c:	e7ba      	b.n	8001f94 <HAL_ADC_ConfigChannel+0x60>
 800201e:	2002      	movs	r0, #2
 8002020:	e7bb      	b.n	8001f9a <HAL_ADC_ConfigChannel+0x66>
 8002022:	bf00      	nop
 8002024:	40012400 	.word	0x40012400
 8002028:	20000000 	.word	0x20000000
 800202c:	000f4240 	.word	0x000f4240

08002030 <ADC_Enable>:
 8002030:	2300      	movs	r3, #0
 8002032:	b537      	push	{r0, r1, r2, r4, r5, lr}
 8002034:	9301      	str	r3, [sp, #4]
 8002036:	6803      	ldr	r3, [r0, #0]
 8002038:	4604      	mov	r4, r0
 800203a:	689a      	ldr	r2, [r3, #8]
 800203c:	07d2      	lsls	r2, r2, #31
 800203e:	d502      	bpl.n	8002046 <ADC_Enable+0x16>
 8002040:	2000      	movs	r0, #0
 8002042:	b003      	add	sp, #12
 8002044:	bd30      	pop	{r4, r5, pc}
 8002046:	689a      	ldr	r2, [r3, #8]
 8002048:	f042 0201 	orr.w	r2, r2, #1
 800204c:	609a      	str	r2, [r3, #8]
 800204e:	4b14      	ldr	r3, [pc, #80]	@ (80020a0 <ADC_Enable+0x70>)
 8002050:	4a14      	ldr	r2, [pc, #80]	@ (80020a4 <ADC_Enable+0x74>)
 8002052:	681b      	ldr	r3, [r3, #0]
 8002054:	fbb3 f3f2 	udiv	r3, r3, r2
 8002058:	9301      	str	r3, [sp, #4]
 800205a:	9b01      	ldr	r3, [sp, #4]
 800205c:	b9e3      	cbnz	r3, 8002098 <ADC_Enable+0x68>
 800205e:	f7ff fea9 	bl	8001db4 <HAL_GetTick>
 8002062:	4605      	mov	r5, r0
 8002064:	6823      	ldr	r3, [r4, #0]
 8002066:	689b      	ldr	r3, [r3, #8]
 8002068:	07db      	lsls	r3, r3, #31
 800206a:	d4e9      	bmi.n	8002040 <ADC_Enable+0x10>
 800206c:	f7ff fea2 	bl	8001db4 <HAL_GetTick>
 8002070:	1b40      	subs	r0, r0, r5
 8002072:	2802      	cmp	r0, #2
 8002074:	d9f6      	bls.n	8002064 <ADC_Enable+0x34>
 8002076:	6823      	ldr	r3, [r4, #0]
 8002078:	689b      	ldr	r3, [r3, #8]
 800207a:	f013 0301 	ands.w	r3, r3, #1
 800207e:	d1f1      	bne.n	8002064 <ADC_Enable+0x34>
 8002080:	6aa2      	ldr	r2, [r4, #40]	@ 0x28
 8002082:	2001      	movs	r0, #1
 8002084:	f042 0210 	orr.w	r2, r2, #16
 8002088:	62a2      	str	r2, [r4, #40]	@ 0x28
 800208a:	6ae2      	ldr	r2, [r4, #44]	@ 0x2c
 800208c:	f884 3024 	strb.w	r3, [r4, #36]	@ 0x24
 8002090:	f042 0201 	orr.w	r2, r2, #1
 8002094:	62e2      	str	r2, [r4, #44]	@ 0x2c
 8002096:	e7d4      	b.n	8002042 <ADC_Enable+0x12>
 8002098:	9b01      	ldr	r3, [sp, #4]
 800209a:	3b01      	subs	r3, #1
 800209c:	e7dc      	b.n	8002058 <ADC_Enable+0x28>
 800209e:	bf00      	nop
 80020a0:	20000000 	.word	0x20000000
 80020a4:	000f4240 	.word	0x000f4240

080020a8 <HAL_ADC_Start>:
 80020a8:	b510      	push	{r4, lr}
 80020aa:	f890 3024 	ldrb.w	r3, [r0, #36]	@ 0x24
 80020ae:	4604      	mov	r4, r0
 80020b0:	2b01      	cmp	r3, #1
 80020b2:	d054      	beq.n	800215e <HAL_ADC_Start+0xb6>
 80020b4:	2301      	movs	r3, #1
 80020b6:	f880 3024 	strb.w	r3, [r0, #36]	@ 0x24
 80020ba:	f7ff ffb9 	bl	8002030 <ADC_Enable>
 80020be:	2800      	cmp	r0, #0
 80020c0:	d149      	bne.n	8002156 <HAL_ADC_Start+0xae>
 80020c2:	6aa3      	ldr	r3, [r4, #40]	@ 0x28
 80020c4:	4a27      	ldr	r2, [pc, #156]	@ (8002164 <HAL_ADC_Start+0xbc>)
 80020c6:	f423 7340 	bic.w	r3, r3, #768	@ 0x300
 80020ca:	f023 0301 	bic.w	r3, r3, #1
 80020ce:	f443 7380 	orr.w	r3, r3, #256	@ 0x100
 80020d2:	62a3      	str	r3, [r4, #40]	@ 0x28
 80020d4:	6823      	ldr	r3, [r4, #0]
 80020d6:	4293      	cmp	r3, r2
 80020d8:	d104      	bne.n	80020e4 <HAL_ADC_Start+0x3c>
 80020da:	4923      	ldr	r1, [pc, #140]	@ (8002168 <HAL_ADC_Start+0xc0>)
 80020dc:	684a      	ldr	r2, [r1, #4]
 80020de:	f412 2f70 	tst.w	r2, #983040	@ 0xf0000
 80020e2:	d12e      	bne.n	8002142 <HAL_ADC_Start+0x9a>
 80020e4:	6aa2      	ldr	r2, [r4, #40]	@ 0x28
 80020e6:	f422 1280 	bic.w	r2, r2, #1048576	@ 0x100000
 80020ea:	62a2      	str	r2, [r4, #40]	@ 0x28
 80020ec:	685a      	ldr	r2, [r3, #4]
 80020ee:	0552      	lsls	r2, r2, #21
 80020f0:	bf41      	itttt	mi
 80020f2:	6aa2      	ldrmi	r2, [r4, #40]	@ 0x28
 80020f4:	f422 5240 	bicmi.w	r2, r2, #12288	@ 0x3000
 80020f8:	f442 5280 	orrmi.w	r2, r2, #4096	@ 0x1000
 80020fc:	62a2      	strmi	r2, [r4, #40]	@ 0x28
 80020fe:	6aa2      	ldr	r2, [r4, #40]	@ 0x28
 8002100:	f412 5280 	ands.w	r2, r2, #4096	@ 0x1000
 8002104:	bf1c      	itt	ne
 8002106:	6ae2      	ldrne	r2, [r4, #44]	@ 0x2c
 8002108:	f022 0206 	bicne.w	r2, r2, #6
 800210c:	62e2      	str	r2, [r4, #44]	@ 0x2c
 800210e:	2200      	movs	r2, #0
 8002110:	f884 2024 	strb.w	r2, [r4, #36]	@ 0x24
 8002114:	f06f 0202 	mvn.w	r2, #2
 8002118:	601a      	str	r2, [r3, #0]
 800211a:	689a      	ldr	r2, [r3, #8]
 800211c:	f402 2260 	and.w	r2, r2, #917504	@ 0xe0000
 8002120:	f5b2 2f60 	cmp.w	r2, #917504	@ 0xe0000
 8002124:	d113      	bne.n	800214e <HAL_ADC_Start+0xa6>
 8002126:	4a0f      	ldr	r2, [pc, #60]	@ (8002164 <HAL_ADC_Start+0xbc>)
 8002128:	4293      	cmp	r3, r2
 800212a:	d105      	bne.n	8002138 <HAL_ADC_Start+0x90>
 800212c:	f5a2 6280 	sub.w	r2, r2, #1024	@ 0x400
 8002130:	6852      	ldr	r2, [r2, #4]
 8002132:	f412 2f70 	tst.w	r2, #983040	@ 0xf0000
 8002136:	d10a      	bne.n	800214e <HAL_ADC_Start+0xa6>
 8002138:	689a      	ldr	r2, [r3, #8]
 800213a:	f442 02a0 	orr.w	r2, r2, #5242880	@ 0x500000
 800213e:	609a      	str	r2, [r3, #8]
 8002140:	bd10      	pop	{r4, pc}
 8002142:	6aa2      	ldr	r2, [r4, #40]	@ 0x28
 8002144:	f442 1280 	orr.w	r2, r2, #1048576	@ 0x100000
 8002148:	62a2      	str	r2, [r4, #40]	@ 0x28
 800214a:	684a      	ldr	r2, [r1, #4]
 800214c:	e7cf      	b.n	80020ee <HAL_ADC_Start+0x46>
 800214e:	689a      	ldr	r2, [r3, #8]
 8002150:	f442 1280 	orr.w	r2, r2, #1048576	@ 0x100000
 8002154:	e7f3      	b.n	800213e <HAL_ADC_Start+0x96>
 8002156:	2300      	movs	r3, #0
 8002158:	f884 3024 	strb.w	r3, [r4, #36]	@ 0x24
 800215c:	e7f0      	b.n	8002140 <HAL_ADC_Start+0x98>
 800215e:	2002      	movs	r0, #2
 8002160:	e7ee      	b.n	8002140 <HAL_ADC_Start+0x98>
 8002162:	bf00      	nop
 8002164:	40012800 	.word	0x40012800
 8002168:	40012400 	.word	0x40012400

0800216c <ADC_ConversionStop_Disable>:
 800216c:	b538      	push	{r3, r4, r5, lr}
 800216e:	6803      	ldr	r3, [r0, #0]
 8002170:	4604      	mov	r4, r0
 8002172:	689a      	ldr	r2, [r3, #8]
 8002174:	07d1      	lsls	r1, r2, #31
 8002176:	d401      	bmi.n	800217c <ADC_ConversionStop_Disable+0x10>
 8002178:	2000      	movs	r0, #0
 800217a:	bd38      	pop	{r3, r4, r5, pc}
 800217c:	689a      	ldr	r2, [r3, #8]
 800217e:	f022 0201 	bic.w	r2, r2, #1
 8002182:	609a      	str	r2, [r3, #8]
 8002184:	f7ff fe16 	bl	8001db4 <HAL_GetTick>
 8002188:	4605      	mov	r5, r0
 800218a:	6823      	ldr	r3, [r4, #0]
 800218c:	689b      	ldr	r3, [r3, #8]
 800218e:	07db      	lsls	r3, r3, #31
 8002190:	d5f2      	bpl.n	8002178 <ADC_ConversionStop_Disable+0xc>
 8002192:	f7ff fe0f 	bl	8001db4 <HAL_GetTick>
 8002196:	1b40      	subs	r0, r0, r5
 8002198:	2802      	cmp	r0, #2
 800219a:	d9f6      	bls.n	800218a <ADC_ConversionStop_Disable+0x1e>
 800219c:	6823      	ldr	r3, [r4, #0]
 800219e:	689b      	ldr	r3, [r3, #8]
 80021a0:	07da      	lsls	r2, r3, #31
 80021a2:	d5f2      	bpl.n	800218a <ADC_ConversionStop_Disable+0x1e>
 80021a4:	6aa3      	ldr	r3, [r4, #40]	@ 0x28
 80021a6:	2001      	movs	r0, #1
 80021a8:	f043 0310 	orr.w	r3, r3, #16
 80021ac:	62a3      	str	r3, [r4, #40]	@ 0x28
 80021ae:	6ae3      	ldr	r3, [r4, #44]	@ 0x2c
 80021b0:	f043 0301 	orr.w	r3, r3, #1
 80021b4:	62e3      	str	r3, [r4, #44]	@ 0x2c
 80021b6:	e7e0      	b.n	800217a <ADC_ConversionStop_Disable+0xe>

080021b8 <HAL_ADC_Init>:
 80021b8:	b5f8      	push	{r3, r4, r5, r6, r7, lr}
 80021ba:	4604      	mov	r4, r0
 80021bc:	2800      	cmp	r0, #0
 80021be:	d06d      	beq.n	800229c <HAL_ADC_Init+0xe4>
 80021c0:	6a83      	ldr	r3, [r0, #40]	@ 0x28
 80021c2:	b923      	cbnz	r3, 80021ce <HAL_ADC_Init+0x16>
 80021c4:	62c3      	str	r3, [r0, #44]	@ 0x2c
 80021c6:	f880 3024 	strb.w	r3, [r0, #36]	@ 0x24
 80021ca:	f7ff fc4d 	bl	8001a68 <HAL_ADC_MspInit>
 80021ce:	4620      	mov	r0, r4
 80021d0:	f7ff ffcc 	bl	800216c <ADC_ConversionStop_Disable>
 80021d4:	6aa3      	ldr	r3, [r4, #40]	@ 0x28
 80021d6:	f013 0310 	ands.w	r3, r3, #16
 80021da:	d161      	bne.n	80022a0 <HAL_ADC_Init+0xe8>
 80021dc:	2800      	cmp	r0, #0
 80021de:	d15f      	bne.n	80022a0 <HAL_ADC_Init+0xe8>
 80021e0:	6aa2      	ldr	r2, [r4, #40]	@ 0x28
 80021e2:	6861      	ldr	r1, [r4, #4]
 80021e4:	f422 5288 	bic.w	r2, r2, #4352	@ 0x1100
 80021e8:	f022 0202 	bic.w	r2, r2, #2
 80021ec:	f042 0202 	orr.w	r2, r2, #2
 80021f0:	69e5      	ldr	r5, [r4, #28]
 80021f2:	68a6      	ldr	r6, [r4, #8]
 80021f4:	62a2      	str	r2, [r4, #40]	@ 0x28
 80021f6:	7b22      	ldrb	r2, [r4, #12]
 80021f8:	4329      	orrs	r1, r5
 80021fa:	f5b6 7f80 	cmp.w	r6, #256	@ 0x100
 80021fe:	ea41 0142 	orr.w	r1, r1, r2, lsl #1
 8002202:	d036      	beq.n	8002272 <HAL_ADC_Init+0xba>
 8002204:	1e77      	subs	r7, r6, #1
 8002206:	427d      	negs	r5, r7
 8002208:	417d      	adcs	r5, r7
 800220a:	022d      	lsls	r5, r5, #8
 800220c:	7d27      	ldrb	r7, [r4, #20]
 800220e:	2f01      	cmp	r7, #1
 8002210:	d106      	bne.n	8002220 <HAL_ADC_Init+0x68>
 8002212:	bb82      	cbnz	r2, 8002276 <HAL_ADC_Init+0xbe>
 8002214:	69a2      	ldr	r2, [r4, #24]
 8002216:	3a01      	subs	r2, #1
 8002218:	ea45 3242 	orr.w	r2, r5, r2, lsl #13
 800221c:	f442 6500 	orr.w	r5, r2, #2048	@ 0x800
 8002220:	6822      	ldr	r2, [r4, #0]
 8002222:	f5b6 7f80 	cmp.w	r6, #256	@ 0x100
 8002226:	6857      	ldr	r7, [r2, #4]
 8002228:	f427 4769 	bic.w	r7, r7, #59648	@ 0xe900
 800222c:	ea45 0507 	orr.w	r5, r5, r7
 8002230:	6055      	str	r5, [r2, #4]
 8002232:	6897      	ldr	r7, [r2, #8]
 8002234:	4d1d      	ldr	r5, [pc, #116]	@ (80022ac <HAL_ADC_Init+0xf4>)
 8002236:	ea05 0507 	and.w	r5, r5, r7
 800223a:	ea45 0501 	orr.w	r5, r5, r1
 800223e:	6095      	str	r5, [r2, #8]
 8002240:	d001      	beq.n	8002246 <HAL_ADC_Init+0x8e>
 8002242:	2e01      	cmp	r6, #1
 8002244:	d102      	bne.n	800224c <HAL_ADC_Init+0x94>
 8002246:	6923      	ldr	r3, [r4, #16]
 8002248:	3b01      	subs	r3, #1
 800224a:	051b      	lsls	r3, r3, #20
 800224c:	6ad5      	ldr	r5, [r2, #44]	@ 0x2c
 800224e:	f425 0570 	bic.w	r5, r5, #15728640	@ 0xf00000
 8002252:	432b      	orrs	r3, r5
 8002254:	62d3      	str	r3, [r2, #44]	@ 0x2c
 8002256:	6892      	ldr	r2, [r2, #8]
 8002258:	4b15      	ldr	r3, [pc, #84]	@ (80022b0 <HAL_ADC_Init+0xf8>)
 800225a:	4013      	ands	r3, r2
 800225c:	4299      	cmp	r1, r3
 800225e:	d113      	bne.n	8002288 <HAL_ADC_Init+0xd0>
 8002260:	2300      	movs	r3, #0
 8002262:	62e3      	str	r3, [r4, #44]	@ 0x2c
 8002264:	6aa3      	ldr	r3, [r4, #40]	@ 0x28
 8002266:	f023 0303 	bic.w	r3, r3, #3
 800226a:	f043 0301 	orr.w	r3, r3, #1
 800226e:	62a3      	str	r3, [r4, #40]	@ 0x28
 8002270:	bdf8      	pop	{r3, r4, r5, r6, r7, pc}
 8002272:	4635      	mov	r5, r6
 8002274:	e7ca      	b.n	800220c <HAL_ADC_Init+0x54>
 8002276:	6aa2      	ldr	r2, [r4, #40]	@ 0x28
 8002278:	f042 0220 	orr.w	r2, r2, #32
 800227c:	62a2      	str	r2, [r4, #40]	@ 0x28
 800227e:	6ae2      	ldr	r2, [r4, #44]	@ 0x2c
 8002280:	f042 0201 	orr.w	r2, r2, #1
 8002284:	62e2      	str	r2, [r4, #44]	@ 0x2c
 8002286:	e7cb      	b.n	8002220 <HAL_ADC_Init+0x68>
 8002288:	6aa3      	ldr	r3, [r4, #40]	@ 0x28
 800228a:	f023 0312 	bic.w	r3, r3, #18
 800228e:	f043 0310 	orr.w	r3, r3, #16
 8002292:	62a3      	str	r3, [r4, #40]	@ 0x28
 8002294:	6ae3      	ldr	r3, [r4, #44]	@ 0x2c
 8002296:	f043 0301 	orr.w	r3, r3, #1
 800229a:	62e3      	str	r3, [r4, #44]	@ 0x2c
 800229c:	2001      	movs	r0, #1
 800229e:	e7e7      	b.n	8002270 <HAL_ADC_Init+0xb8>
 80022a0:	6aa3      	ldr	r3, [r4, #40]	@ 0x28
 80022a2:	f043 0310 	orr.w	r3, r3, #16
 80022a6:	62a3      	str	r3, [r4, #40]	@ 0x28
 80022a8:	e7f8      	b.n	800229c <HAL_ADC_Init+0xe4>
 80022aa:	bf00      	nop
 80022ac:	ffe1f7fd 	.word	0xffe1f7fd
 80022b0:	ff1f0efe 	.word	0xff1f0efe

080022b4 <HAL_ADC_Stop>:
 80022b4:	b510      	push	{r4, lr}
 80022b6:	f890 3024 	ldrb.w	r3, [r0, #36]	@ 0x24
 80022ba:	4604      	mov	r4, r0
 80022bc:	2b01      	cmp	r3, #1
 80022be:	d011      	beq.n	80022e4 <HAL_ADC_Stop+0x30>
 80022c0:	2301      	movs	r3, #1
 80022c2:	f880 3024 	strb.w	r3, [r0, #36]	@ 0x24
 80022c6:	f7ff ff51 	bl	800216c <ADC_ConversionStop_Disable>
 80022ca:	b938      	cbnz	r0, 80022dc <HAL_ADC_Stop+0x28>
 80022cc:	6aa3      	ldr	r3, [r4, #40]	@ 0x28
 80022ce:	f423 5388 	bic.w	r3, r3, #4352	@ 0x1100
 80022d2:	f023 0301 	bic.w	r3, r3, #1
 80022d6:	f043 0301 	orr.w	r3, r3, #1
 80022da:	62a3      	str	r3, [r4, #40]	@ 0x28
 80022dc:	2300      	movs	r3, #0
 80022de:	f884 3024 	strb.w	r3, [r4, #36]	@ 0x24
 80022e2:	bd10      	pop	{r4, pc}
 80022e4:	2002      	movs	r0, #2
 80022e6:	e7fc      	b.n	80022e2 <HAL_ADC_Stop+0x2e>

080022e8 <HAL_ADCEx_Calibration_Start>:
 80022e8:	2300      	movs	r3, #0
 80022ea:	b573      	push	{r0, r1, r4, r5, r6, lr}
 80022ec:	9301      	str	r3, [sp, #4]
 80022ee:	f890 3024 	ldrb.w	r3, [r0, #36]	@ 0x24
 80022f2:	4604      	mov	r4, r0
 80022f4:	2b01      	cmp	r3, #1
 80022f6:	d062      	beq.n	80023be <HAL_ADCEx_Calibration_Start+0xd6>
 80022f8:	2301      	movs	r3, #1
 80022fa:	f880 3024 	strb.w	r3, [r0, #36]	@ 0x24
 80022fe:	f7ff ff35 	bl	800216c <ADC_ConversionStop_Disable>
 8002302:	4620      	mov	r0, r4
 8002304:	f7ff fe94 	bl	8002030 <ADC_Enable>
 8002308:	4605      	mov	r5, r0
 800230a:	2800      	cmp	r0, #0
 800230c:	d12f      	bne.n	800236e <HAL_ADCEx_Calibration_Start+0x86>
 800230e:	6aa3      	ldr	r3, [r4, #40]	@ 0x28
 8002310:	2002      	movs	r0, #2
 8002312:	f423 5388 	bic.w	r3, r3, #4352	@ 0x1100
 8002316:	f023 0302 	bic.w	r3, r3, #2
 800231a:	f043 0302 	orr.w	r3, r3, #2
 800231e:	62a3      	str	r3, [r4, #40]	@ 0x28
 8002320:	4b28      	ldr	r3, [pc, #160]	@ (80023c4 <HAL_ADCEx_Calibration_Start+0xdc>)
 8002322:	681e      	ldr	r6, [r3, #0]
 8002324:	f000 fdec 	bl	8002f00 <HAL_RCCEx_GetPeriphCLKFreq>
 8002328:	fbb6 f6f0 	udiv	r6, r6, r0
 800232c:	0076      	lsls	r6, r6, #1
 800232e:	9601      	str	r6, [sp, #4]
 8002330:	9b01      	ldr	r3, [sp, #4]
 8002332:	bb03      	cbnz	r3, 8002376 <HAL_ADCEx_Calibration_Start+0x8e>
 8002334:	6822      	ldr	r2, [r4, #0]
 8002336:	6893      	ldr	r3, [r2, #8]
 8002338:	f043 0308 	orr.w	r3, r3, #8
 800233c:	6093      	str	r3, [r2, #8]
 800233e:	f7ff fd39 	bl	8001db4 <HAL_GetTick>
 8002342:	4606      	mov	r6, r0
 8002344:	6823      	ldr	r3, [r4, #0]
 8002346:	689a      	ldr	r2, [r3, #8]
 8002348:	0711      	lsls	r1, r2, #28
 800234a:	d418      	bmi.n	800237e <HAL_ADCEx_Calibration_Start+0x96>
 800234c:	689a      	ldr	r2, [r3, #8]
 800234e:	f042 0204 	orr.w	r2, r2, #4
 8002352:	609a      	str	r2, [r3, #8]
 8002354:	f7ff fd2e 	bl	8001db4 <HAL_GetTick>
 8002358:	4606      	mov	r6, r0
 800235a:	6823      	ldr	r3, [r4, #0]
 800235c:	689b      	ldr	r3, [r3, #8]
 800235e:	075b      	lsls	r3, r3, #29
 8002360:	d423      	bmi.n	80023aa <HAL_ADCEx_Calibration_Start+0xc2>
 8002362:	6aa3      	ldr	r3, [r4, #40]	@ 0x28
 8002364:	f023 0303 	bic.w	r3, r3, #3
 8002368:	f043 0301 	orr.w	r3, r3, #1
 800236c:	62a3      	str	r3, [r4, #40]	@ 0x28
 800236e:	2300      	movs	r3, #0
 8002370:	f884 3024 	strb.w	r3, [r4, #36]	@ 0x24
 8002374:	e016      	b.n	80023a4 <HAL_ADCEx_Calibration_Start+0xbc>
 8002376:	9b01      	ldr	r3, [sp, #4]
 8002378:	3b01      	subs	r3, #1
 800237a:	9301      	str	r3, [sp, #4]
 800237c:	e7d8      	b.n	8002330 <HAL_ADCEx_Calibration_Start+0x48>
 800237e:	f7ff fd19 	bl	8001db4 <HAL_GetTick>
 8002382:	1b80      	subs	r0, r0, r6
 8002384:	280a      	cmp	r0, #10
 8002386:	d9dd      	bls.n	8002344 <HAL_ADCEx_Calibration_Start+0x5c>
 8002388:	6823      	ldr	r3, [r4, #0]
 800238a:	689b      	ldr	r3, [r3, #8]
 800238c:	0718      	lsls	r0, r3, #28
 800238e:	d5d9      	bpl.n	8002344 <HAL_ADCEx_Calibration_Start+0x5c>
 8002390:	6aa3      	ldr	r3, [r4, #40]	@ 0x28
 8002392:	2501      	movs	r5, #1
 8002394:	f023 0312 	bic.w	r3, r3, #18
 8002398:	f043 0310 	orr.w	r3, r3, #16
 800239c:	62a3      	str	r3, [r4, #40]	@ 0x28
 800239e:	2300      	movs	r3, #0
 80023a0:	f884 3024 	strb.w	r3, [r4, #36]	@ 0x24
 80023a4:	4628      	mov	r0, r5
 80023a6:	b002      	add	sp, #8
 80023a8:	bd70      	pop	{r4, r5, r6, pc}
 80023aa:	f7ff fd03 	bl	8001db4 <HAL_GetTick>
 80023ae:	1b80      	subs	r0, r0, r6
 80023b0:	280a      	cmp	r0, #10
 80023b2:	d9d2      	bls.n	800235a <HAL_ADCEx_Calibration_Start+0x72>
 80023b4:	6823      	ldr	r3, [r4, #0]
 80023b6:	689b      	ldr	r3, [r3, #8]
 80023b8:	075a      	lsls	r2, r3, #29
 80023ba:	d5ce      	bpl.n	800235a <HAL_ADCEx_Calibration_Start+0x72>
 80023bc:	e7e8      	b.n	8002390 <HAL_ADCEx_Calibration_Start+0xa8>
 80023be:	2502      	movs	r5, #2
 80023c0:	e7f0      	b.n	80023a4 <HAL_ADCEx_Calibration_Start+0xbc>
 80023c2:	bf00      	nop
 80023c4:	20000000 	.word	0x20000000

080023c8 <HAL_CAN_Init>:
 80023c8:	b538      	push	{r3, r4, r5, lr}
 80023ca:	4604      	mov	r4, r0
 80023cc:	2800      	cmp	r0, #0
 80023ce:	d06e      	beq.n	80024ae <HAL_CAN_Init+0xe6>
 80023d0:	f890 3020 	ldrb.w	r3, [r0, #32]
 80023d4:	b90b      	cbnz	r3, 80023da <HAL_CAN_Init+0x12>
 80023d6:	f7ff fb75 	bl	8001ac4 <HAL_CAN_MspInit>
 80023da:	6822      	ldr	r2, [r4, #0]
 80023dc:	6813      	ldr	r3, [r2, #0]
 80023de:	f043 0301 	orr.w	r3, r3, #1
 80023e2:	6013      	str	r3, [r2, #0]
 80023e4:	f7ff fce6 	bl	8001db4 <HAL_GetTick>
 80023e8:	4605      	mov	r5, r0
 80023ea:	6823      	ldr	r3, [r4, #0]
 80023ec:	685a      	ldr	r2, [r3, #4]
 80023ee:	07d1      	lsls	r1, r2, #31
 80023f0:	d551      	bpl.n	8002496 <HAL_CAN_Init+0xce>
 80023f2:	681a      	ldr	r2, [r3, #0]
 80023f4:	f022 0202 	bic.w	r2, r2, #2
 80023f8:	601a      	str	r2, [r3, #0]
 80023fa:	f7ff fcdb 	bl	8001db4 <HAL_GetTick>
 80023fe:	4605      	mov	r5, r0
 8002400:	6823      	ldr	r3, [r4, #0]
 8002402:	685a      	ldr	r2, [r3, #4]
 8002404:	0792      	lsls	r2, r2, #30
 8002406:	d454      	bmi.n	80024b2 <HAL_CAN_Init+0xea>
 8002408:	7e22      	ldrb	r2, [r4, #24]
 800240a:	2000      	movs	r0, #0
 800240c:	2a01      	cmp	r2, #1
 800240e:	681a      	ldr	r2, [r3, #0]
 8002410:	bf0c      	ite	eq
 8002412:	f042 0280 	orreq.w	r2, r2, #128	@ 0x80
 8002416:	f022 0280 	bicne.w	r2, r2, #128	@ 0x80
 800241a:	601a      	str	r2, [r3, #0]
 800241c:	7e62      	ldrb	r2, [r4, #25]
 800241e:	2a01      	cmp	r2, #1
 8002420:	681a      	ldr	r2, [r3, #0]
 8002422:	bf0c      	ite	eq
 8002424:	f042 0240 	orreq.w	r2, r2, #64	@ 0x40
 8002428:	f022 0240 	bicne.w	r2, r2, #64	@ 0x40
 800242c:	601a      	str	r2, [r3, #0]
 800242e:	7ea2      	ldrb	r2, [r4, #26]
 8002430:	2a01      	cmp	r2, #1
 8002432:	681a      	ldr	r2, [r3, #0]
 8002434:	bf0c      	ite	eq
 8002436:	f042 0220 	orreq.w	r2, r2, #32
 800243a:	f022 0220 	bicne.w	r2, r2, #32
 800243e:	601a      	str	r2, [r3, #0]
 8002440:	7ee2      	ldrb	r2, [r4, #27]
 8002442:	2a01      	cmp	r2, #1
 8002444:	681a      	ldr	r2, [r3, #0]
 8002446:	bf0c      	ite	eq
 8002448:	f022 0210 	biceq.w	r2, r2, #16
 800244c:	f042 0210 	orrne.w	r2, r2, #16
 8002450:	601a      	str	r2, [r3, #0]
 8002452:	7f22      	ldrb	r2, [r4, #28]
 8002454:	2a01      	cmp	r2, #1
 8002456:	681a      	ldr	r2, [r3, #0]
 8002458:	bf0c      	ite	eq
 800245a:	f042 0208 	orreq.w	r2, r2, #8
 800245e:	f022 0208 	bicne.w	r2, r2, #8
 8002462:	601a      	str	r2, [r3, #0]
 8002464:	7f62      	ldrb	r2, [r4, #29]
 8002466:	2a01      	cmp	r2, #1
 8002468:	681a      	ldr	r2, [r3, #0]
 800246a:	bf0c      	ite	eq
 800246c:	f042 0204 	orreq.w	r2, r2, #4
 8002470:	f022 0204 	bicne.w	r2, r2, #4
 8002474:	601a      	str	r2, [r3, #0]
 8002476:	e9d4 2102 	ldrd	r2, r1, [r4, #8]
 800247a:	430a      	orrs	r2, r1
 800247c:	6921      	ldr	r1, [r4, #16]
 800247e:	430a      	orrs	r2, r1
 8002480:	6961      	ldr	r1, [r4, #20]
 8002482:	430a      	orrs	r2, r1
 8002484:	6861      	ldr	r1, [r4, #4]
 8002486:	3901      	subs	r1, #1
 8002488:	430a      	orrs	r2, r1
 800248a:	61da      	str	r2, [r3, #28]
 800248c:	2301      	movs	r3, #1
 800248e:	6260      	str	r0, [r4, #36]	@ 0x24
 8002490:	f884 3020 	strb.w	r3, [r4, #32]
 8002494:	e00c      	b.n	80024b0 <HAL_CAN_Init+0xe8>
 8002496:	f7ff fc8d 	bl	8001db4 <HAL_GetTick>
 800249a:	1b40      	subs	r0, r0, r5
 800249c:	280a      	cmp	r0, #10
 800249e:	d9a4      	bls.n	80023ea <HAL_CAN_Init+0x22>
 80024a0:	6a63      	ldr	r3, [r4, #36]	@ 0x24
 80024a2:	f443 3300 	orr.w	r3, r3, #131072	@ 0x20000
 80024a6:	6263      	str	r3, [r4, #36]	@ 0x24
 80024a8:	2305      	movs	r3, #5
 80024aa:	f884 3020 	strb.w	r3, [r4, #32]
 80024ae:	2001      	movs	r0, #1
 80024b0:	bd38      	pop	{r3, r4, r5, pc}
 80024b2:	f7ff fc7f 	bl	8001db4 <HAL_GetTick>
 80024b6:	1b40      	subs	r0, r0, r5
 80024b8:	280a      	cmp	r0, #10
 80024ba:	d9a1      	bls.n	8002400 <HAL_CAN_Init+0x38>
 80024bc:	e7f0      	b.n	80024a0 <HAL_CAN_Init+0xd8>

080024be <HAL_CAN_ConfigFilter>:
 80024be:	b570      	push	{r4, r5, r6, lr}
 80024c0:	f890 3020 	ldrb.w	r3, [r0, #32]
 80024c4:	3b01      	subs	r3, #1
 80024c6:	2b01      	cmp	r3, #1
 80024c8:	d863      	bhi.n	8002592 <HAL_CAN_ConfigFilter+0xd4>
 80024ca:	6803      	ldr	r3, [r0, #0]
 80024cc:	2001      	movs	r0, #1
 80024ce:	f8d3 2200 	ldr.w	r2, [r3, #512]	@ 0x200
 80024d2:	f042 0201 	orr.w	r2, r2, #1
 80024d6:	f8c3 2200 	str.w	r2, [r3, #512]	@ 0x200
 80024da:	694a      	ldr	r2, [r1, #20]
 80024dc:	f8d3 521c 	ldr.w	r5, [r3, #540]	@ 0x21c
 80024e0:	f002 041f 	and.w	r4, r2, #31
 80024e4:	40a0      	lsls	r0, r4
 80024e6:	ea25 0500 	bic.w	r5, r5, r0
 80024ea:	f8c3 521c 	str.w	r5, [r3, #540]	@ 0x21c
 80024ee:	69cd      	ldr	r5, [r1, #28]
 80024f0:	43c4      	mvns	r4, r0
 80024f2:	bb95      	cbnz	r5, 800255a <HAL_CAN_ConfigFilter+0x9c>
 80024f4:	f8d3 520c 	ldr.w	r5, [r3, #524]	@ 0x20c
 80024f8:	68ce      	ldr	r6, [r1, #12]
 80024fa:	4025      	ands	r5, r4
 80024fc:	f8c3 520c 	str.w	r5, [r3, #524]	@ 0x20c
 8002500:	888d      	ldrh	r5, [r1, #4]
 8002502:	eb03 02c2 	add.w	r2, r3, r2, lsl #3
 8002506:	ea45 4506 	orr.w	r5, r5, r6, lsl #16
 800250a:	f8c2 5240 	str.w	r5, [r2, #576]	@ 0x240
 800250e:	688e      	ldr	r6, [r1, #8]
 8002510:	880d      	ldrh	r5, [r1, #0]
 8002512:	ea45 4506 	orr.w	r5, r5, r6, lsl #16
 8002516:	f8c2 5244 	str.w	r5, [r2, #580]	@ 0x244
 800251a:	698a      	ldr	r2, [r1, #24]
 800251c:	bb7a      	cbnz	r2, 800257e <HAL_CAN_ConfigFilter+0xc0>
 800251e:	f8d3 2204 	ldr.w	r2, [r3, #516]	@ 0x204
 8002522:	4022      	ands	r2, r4
 8002524:	f8c3 2204 	str.w	r2, [r3, #516]	@ 0x204
 8002528:	690a      	ldr	r2, [r1, #16]
 800252a:	bb62      	cbnz	r2, 8002586 <HAL_CAN_ConfigFilter+0xc8>
 800252c:	f8d3 2214 	ldr.w	r2, [r3, #532]	@ 0x214
 8002530:	4014      	ands	r4, r2
 8002532:	f8c3 4214 	str.w	r4, [r3, #532]	@ 0x214
 8002536:	6a0a      	ldr	r2, [r1, #32]
 8002538:	2a01      	cmp	r2, #1
 800253a:	bf04      	itt	eq
 800253c:	f8d3 221c 	ldreq.w	r2, [r3, #540]	@ 0x21c
 8002540:	4302      	orreq	r2, r0
 8002542:	f04f 0000 	mov.w	r0, #0
 8002546:	bf08      	it	eq
 8002548:	f8c3 221c 	streq.w	r2, [r3, #540]	@ 0x21c
 800254c:	f8d3 2200 	ldr.w	r2, [r3, #512]	@ 0x200
 8002550:	f022 0201 	bic.w	r2, r2, #1
 8002554:	f8c3 2200 	str.w	r2, [r3, #512]	@ 0x200
 8002558:	bd70      	pop	{r4, r5, r6, pc}
 800255a:	2d01      	cmp	r5, #1
 800255c:	d1dd      	bne.n	800251a <HAL_CAN_ConfigFilter+0x5c>
 800255e:	f8d3 520c 	ldr.w	r5, [r3, #524]	@ 0x20c
 8002562:	680e      	ldr	r6, [r1, #0]
 8002564:	4305      	orrs	r5, r0
 8002566:	f8c3 520c 	str.w	r5, [r3, #524]	@ 0x20c
 800256a:	888d      	ldrh	r5, [r1, #4]
 800256c:	eb03 02c2 	add.w	r2, r3, r2, lsl #3
 8002570:	ea45 4506 	orr.w	r5, r5, r6, lsl #16
 8002574:	f8c2 5240 	str.w	r5, [r2, #576]	@ 0x240
 8002578:	688e      	ldr	r6, [r1, #8]
 800257a:	898d      	ldrh	r5, [r1, #12]
 800257c:	e7c9      	b.n	8002512 <HAL_CAN_ConfigFilter+0x54>
 800257e:	f8d3 2204 	ldr.w	r2, [r3, #516]	@ 0x204
 8002582:	4302      	orrs	r2, r0
 8002584:	e7ce      	b.n	8002524 <HAL_CAN_ConfigFilter+0x66>
 8002586:	f8d3 2214 	ldr.w	r2, [r3, #532]	@ 0x214
 800258a:	4302      	orrs	r2, r0
 800258c:	f8c3 2214 	str.w	r2, [r3, #532]	@ 0x214
 8002590:	e7d1      	b.n	8002536 <HAL_CAN_ConfigFilter+0x78>
 8002592:	6a43      	ldr	r3, [r0, #36]	@ 0x24
 8002594:	f443 2380 	orr.w	r3, r3, #262144	@ 0x40000
 8002598:	6243      	str	r3, [r0, #36]	@ 0x24
 800259a:	2001      	movs	r0, #1
 800259c:	e7dc      	b.n	8002558 <HAL_CAN_ConfigFilter+0x9a>

0800259e <HAL_CAN_Start>:
 800259e:	b538      	push	{r3, r4, r5, lr}
 80025a0:	f890 3020 	ldrb.w	r3, [r0, #32]
 80025a4:	4604      	mov	r4, r0
 80025a6:	2b01      	cmp	r3, #1
 80025a8:	d11f      	bne.n	80025ea <HAL_CAN_Start+0x4c>
 80025aa:	2302      	movs	r3, #2
 80025ac:	6802      	ldr	r2, [r0, #0]
 80025ae:	f880 3020 	strb.w	r3, [r0, #32]
 80025b2:	6813      	ldr	r3, [r2, #0]
 80025b4:	f023 0301 	bic.w	r3, r3, #1
 80025b8:	6013      	str	r3, [r2, #0]
 80025ba:	f7ff fbfb 	bl	8001db4 <HAL_GetTick>
 80025be:	4605      	mov	r5, r0
 80025c0:	6823      	ldr	r3, [r4, #0]
 80025c2:	6858      	ldr	r0, [r3, #4]
 80025c4:	f010 0001 	ands.w	r0, r0, #1
 80025c8:	d101      	bne.n	80025ce <HAL_CAN_Start+0x30>
 80025ca:	6260      	str	r0, [r4, #36]	@ 0x24
 80025cc:	bd38      	pop	{r3, r4, r5, pc}
 80025ce:	f7ff fbf1 	bl	8001db4 <HAL_GetTick>
 80025d2:	1b40      	subs	r0, r0, r5
 80025d4:	280a      	cmp	r0, #10
 80025d6:	d9f3      	bls.n	80025c0 <HAL_CAN_Start+0x22>
 80025d8:	6a63      	ldr	r3, [r4, #36]	@ 0x24
 80025da:	f443 3300 	orr.w	r3, r3, #131072	@ 0x20000
 80025de:	6263      	str	r3, [r4, #36]	@ 0x24
 80025e0:	2305      	movs	r3, #5
 80025e2:	f884 3020 	strb.w	r3, [r4, #32]
 80025e6:	2001      	movs	r0, #1
 80025e8:	e7f0      	b.n	80025cc <HAL_CAN_Start+0x2e>
 80025ea:	6a43      	ldr	r3, [r0, #36]	@ 0x24
 80025ec:	f443 2300 	orr.w	r3, r3, #524288	@ 0x80000
 80025f0:	6243      	str	r3, [r0, #36]	@ 0x24
 80025f2:	e7f8      	b.n	80025e6 <HAL_CAN_Start+0x48>

080025f4 <HAL_CAN_AddTxMessage>:
 80025f4:	b5f0      	push	{r4, r5, r6, r7, lr}
 80025f6:	f890 5020 	ldrb.w	r5, [r0, #32]
 80025fa:	6804      	ldr	r4, [r0, #0]
 80025fc:	3d01      	subs	r5, #1
 80025fe:	2d01      	cmp	r5, #1
 8002600:	68a6      	ldr	r6, [r4, #8]
 8002602:	d83c      	bhi.n	800267e <HAL_CAN_AddTxMessage+0x8a>
 8002604:	f016 5fe0 	tst.w	r6, #469762048	@ 0x1c000000
 8002608:	d033      	beq.n	8002672 <HAL_CAN_AddTxMessage+0x7e>
 800260a:	2501      	movs	r5, #1
 800260c:	f3c6 6001 	ubfx	r0, r6, #24, #2
 8002610:	4085      	lsls	r5, r0
 8002612:	601d      	str	r5, [r3, #0]
 8002614:	e9d1 5702 	ldrd	r5, r7, [r1, #8]
 8002618:	f100 0318 	add.w	r3, r0, #24
 800261c:	bb15      	cbnz	r5, 8002664 <HAL_CAN_AddTxMessage+0x70>
 800261e:	680d      	ldr	r5, [r1, #0]
 8002620:	011b      	lsls	r3, r3, #4
 8002622:	ea47 5745 	orr.w	r7, r7, r5, lsl #21
 8002626:	50e7      	str	r7, [r4, r3]
 8002628:	eb04 1300 	add.w	r3, r4, r0, lsl #4
 800262c:	0105      	lsls	r5, r0, #4
 800262e:	2000      	movs	r0, #0
 8002630:	690e      	ldr	r6, [r1, #16]
 8002632:	442c      	add	r4, r5
 8002634:	f8c3 6184 	str.w	r6, [r3, #388]	@ 0x184
 8002638:	7d09      	ldrb	r1, [r1, #20]
 800263a:	2901      	cmp	r1, #1
 800263c:	bf02      	ittt	eq
 800263e:	f8d3 1184 	ldreq.w	r1, [r3, #388]	@ 0x184
 8002642:	f441 7180 	orreq.w	r1, r1, #256	@ 0x100
 8002646:	f8c3 1184 	streq.w	r1, [r3, #388]	@ 0x184
 800264a:	6851      	ldr	r1, [r2, #4]
 800264c:	f8c4 118c 	str.w	r1, [r4, #396]	@ 0x18c
 8002650:	6812      	ldr	r2, [r2, #0]
 8002652:	f8c4 2188 	str.w	r2, [r4, #392]	@ 0x188
 8002656:	f8d3 2180 	ldr.w	r2, [r3, #384]	@ 0x180
 800265a:	f042 0201 	orr.w	r2, r2, #1
 800265e:	f8c3 2180 	str.w	r2, [r3, #384]	@ 0x180
 8002662:	bdf0      	pop	{r4, r5, r6, r7, pc}
 8002664:	684e      	ldr	r6, [r1, #4]
 8002666:	433d      	orrs	r5, r7
 8002668:	ea45 05c6 	orr.w	r5, r5, r6, lsl #3
 800266c:	011b      	lsls	r3, r3, #4
 800266e:	50e5      	str	r5, [r4, r3]
 8002670:	e7da      	b.n	8002628 <HAL_CAN_AddTxMessage+0x34>
 8002672:	6a43      	ldr	r3, [r0, #36]	@ 0x24
 8002674:	f443 1300 	orr.w	r3, r3, #2097152	@ 0x200000
 8002678:	6243      	str	r3, [r0, #36]	@ 0x24
 800267a:	2001      	movs	r0, #1
 800267c:	e7f1      	b.n	8002662 <HAL_CAN_AddTxMessage+0x6e>
 800267e:	6a43      	ldr	r3, [r0, #36]	@ 0x24
 8002680:	f443 2380 	orr.w	r3, r3, #262144	@ 0x40000
 8002684:	e7f8      	b.n	8002678 <HAL_CAN_AddTxMessage+0x84>
	...

08002688 <HAL_NVIC_SetPriorityGrouping>:
 8002688:	4907      	ldr	r1, [pc, #28]	@ (80026a8 <HAL_NVIC_SetPriorityGrouping+0x20>)
 800268a:	0203      	lsls	r3, r0, #8
 800268c:	68ca      	ldr	r2, [r1, #12]
 800268e:	f403 63e0 	and.w	r3, r3, #1792	@ 0x700
 8002692:	f422 62e0 	bic.w	r2, r2, #1792	@ 0x700
 8002696:	0412      	lsls	r2, r2, #16
 8002698:	0c12      	lsrs	r2, r2, #16
 800269a:	4313      	orrs	r3, r2
 800269c:	f043 63bf 	orr.w	r3, r3, #100139008	@ 0x5f80000
 80026a0:	f443 3300 	orr.w	r3, r3, #131072	@ 0x20000
 80026a4:	60cb      	str	r3, [r1, #12]
 80026a6:	4770      	bx	lr
 80026a8:	e000ed00 	.word	0xe000ed00

080026ac <HAL_NVIC_SetPriority>:
 80026ac:	4b15      	ldr	r3, [pc, #84]	@ (8002704 <HAL_NVIC_SetPriority+0x58>)
 80026ae:	b530      	push	{r4, r5, lr}
 80026b0:	68dc      	ldr	r4, [r3, #12]
 80026b2:	f3c4 2402 	ubfx	r4, r4, #8, #3
 80026b6:	f1c4 0307 	rsb	r3, r4, #7
 80026ba:	1d25      	adds	r5, r4, #4
 80026bc:	2b04      	cmp	r3, #4
 80026be:	bf28      	it	cs
 80026c0:	2304      	movcs	r3, #4
 80026c2:	2d06      	cmp	r5, #6
 80026c4:	f04f 35ff 	mov.w	r5, #4294967295	@ 0xffffffff
 80026c8:	bf94      	ite	ls
 80026ca:	2400      	movls	r4, #0
 80026cc:	3c03      	subhi	r4, #3
 80026ce:	fa05 f303 	lsl.w	r3, r5, r3
 80026d2:	ea21 0303 	bic.w	r3, r1, r3
 80026d6:	40a5      	lsls	r5, r4
 80026d8:	ea22 0205 	bic.w	r2, r2, r5
 80026dc:	40a3      	lsls	r3, r4
 80026de:	2800      	cmp	r0, #0
 80026e0:	ea43 0302 	orr.w	r3, r3, r2
 80026e4:	bfac      	ite	ge
 80026e6:	f100 4060 	addge.w	r0, r0, #3758096384	@ 0xe0000000
 80026ea:	4a07      	ldrlt	r2, [pc, #28]	@ (8002708 <HAL_NVIC_SetPriority+0x5c>)
 80026ec:	ea4f 1303 	mov.w	r3, r3, lsl #4
 80026f0:	b2db      	uxtb	r3, r3
 80026f2:	bfab      	itete	ge
 80026f4:	f500 4061 	addge.w	r0, r0, #57600	@ 0xe100
 80026f8:	f000 000f 	andlt.w	r0, r0, #15
 80026fc:	f880 3300 	strbge.w	r3, [r0, #768]	@ 0x300
 8002700:	5413      	strblt	r3, [r2, r0]
 8002702:	bd30      	pop	{r4, r5, pc}
 8002704:	e000ed00 	.word	0xe000ed00
 8002708:	e000ed14 	.word	0xe000ed14

0800270c <HAL_SYSTICK_Config>:
 800270c:	3801      	subs	r0, #1
 800270e:	f1b0 7f80 	cmp.w	r0, #16777216	@ 0x1000000
 8002712:	d20b      	bcs.n	800272c <HAL_SYSTICK_Config+0x20>
 8002714:	f04f 23e0 	mov.w	r3, #3758153728	@ 0xe000e000
 8002718:	21f0      	movs	r1, #240	@ 0xf0
 800271a:	4a05      	ldr	r2, [pc, #20]	@ (8002730 <HAL_SYSTICK_Config+0x24>)
 800271c:	6158      	str	r0, [r3, #20]
 800271e:	f882 1023 	strb.w	r1, [r2, #35]	@ 0x23
 8002722:	2000      	movs	r0, #0
 8002724:	2207      	movs	r2, #7
 8002726:	6198      	str	r0, [r3, #24]
 8002728:	611a      	str	r2, [r3, #16]
 800272a:	4770      	bx	lr
 800272c:	2001      	movs	r0, #1
 800272e:	4770      	bx	lr
 8002730:	e000ed00 	.word	0xe000ed00

08002734 <HAL_GPIO_Init>:
 8002734:	e92d 4ff7 	stmdb	sp!, {r0, r1, r2, r4, r5, r6, r7, r8, r9, sl, fp, lr}
 8002738:	2400      	movs	r4, #0
 800273a:	f04f 0e0f 	mov.w	lr, #15
 800273e:	4626      	mov	r6, r4
 8002740:	f8df c184 	ldr.w	ip, [pc, #388]	@ 80028c8 <HAL_GPIO_Init+0x194>
 8002744:	4b61      	ldr	r3, [pc, #388]	@ (80028cc <HAL_GPIO_Init+0x198>)
 8002746:	f100 0804 	add.w	r8, r0, #4
 800274a:	680a      	ldr	r2, [r1, #0]
 800274c:	fa32 f506 	lsrs.w	r5, r2, r6
 8002750:	d102      	bne.n	8002758 <HAL_GPIO_Init+0x24>
 8002752:	b003      	add	sp, #12
 8002754:	e8bd 8ff0 	ldmia.w	sp!, {r4, r5, r6, r7, r8, r9, sl, fp, pc}
 8002758:	2501      	movs	r5, #1
 800275a:	fa05 f706 	lsl.w	r7, r5, r6
 800275e:	ea02 0507 	and.w	r5, r2, r7
 8002762:	ea37 0202 	bics.w	r2, r7, r2
 8002766:	d176      	bne.n	8002856 <HAL_GPIO_Init+0x122>
 8002768:	684a      	ldr	r2, [r1, #4]
 800276a:	2a03      	cmp	r2, #3
 800276c:	d807      	bhi.n	800277e <HAL_GPIO_Init+0x4a>
 800276e:	3a01      	subs	r2, #1
 8002770:	2a02      	cmp	r2, #2
 8002772:	f200 8083 	bhi.w	800287c <HAL_GPIO_Init+0x148>
 8002776:	e8df f002 	tbb	[pc, r2]
 800277a:	9691      	.short	0x9691
 800277c:	9c          	.byte	0x9c
 800277d:	00          	.byte	0x00
 800277e:	2a12      	cmp	r2, #18
 8002780:	f000 8094 	beq.w	80028ac <HAL_GPIO_Init+0x178>
 8002784:	d869      	bhi.n	800285a <HAL_GPIO_Init+0x126>
 8002786:	2a11      	cmp	r2, #17
 8002788:	f000 808a 	beq.w	80028a0 <HAL_GPIO_Init+0x16c>
 800278c:	2dff      	cmp	r5, #255	@ 0xff
 800278e:	bf94      	ite	ls
 8002790:	4681      	movls	r9, r0
 8002792:	46c1      	movhi	r9, r8
 8002794:	ea4f 0286 	mov.w	r2, r6, lsl #2
 8002798:	f8d9 7000 	ldr.w	r7, [r9]
 800279c:	bf88      	it	hi
 800279e:	3a20      	subhi	r2, #32
 80027a0:	fa0e fa02 	lsl.w	sl, lr, r2
 80027a4:	ea27 070a 	bic.w	r7, r7, sl
 80027a8:	fa04 f202 	lsl.w	r2, r4, r2
 80027ac:	4317      	orrs	r7, r2
 80027ae:	f8c9 7000 	str.w	r7, [r9]
 80027b2:	f8d1 9004 	ldr.w	r9, [r1, #4]
 80027b6:	f019 5f80 	tst.w	r9, #268435456	@ 0x10000000
 80027ba:	d04c      	beq.n	8002856 <HAL_GPIO_Init+0x122>
 80027bc:	f8dc 2018 	ldr.w	r2, [ip, #24]
 80027c0:	f026 0703 	bic.w	r7, r6, #3
 80027c4:	f042 0201 	orr.w	r2, r2, #1
 80027c8:	f8cc 2018 	str.w	r2, [ip, #24]
 80027cc:	f8dc 2018 	ldr.w	r2, [ip, #24]
 80027d0:	f107 4780 	add.w	r7, r7, #1073741824	@ 0x40000000
 80027d4:	f002 0201 	and.w	r2, r2, #1
 80027d8:	9201      	str	r2, [sp, #4]
 80027da:	f507 3780 	add.w	r7, r7, #65536	@ 0x10000
 80027de:	f006 0a03 	and.w	sl, r6, #3
 80027e2:	9a01      	ldr	r2, [sp, #4]
 80027e4:	ea4f 0a8a 	mov.w	sl, sl, lsl #2
 80027e8:	68ba      	ldr	r2, [r7, #8]
 80027ea:	fa0e fb0a 	lsl.w	fp, lr, sl
 80027ee:	ea22 0b0b 	bic.w	fp, r2, fp
 80027f2:	4a37      	ldr	r2, [pc, #220]	@ (80028d0 <HAL_GPIO_Init+0x19c>)
 80027f4:	4290      	cmp	r0, r2
 80027f6:	d060      	beq.n	80028ba <HAL_GPIO_Init+0x186>
 80027f8:	f502 6280 	add.w	r2, r2, #1024	@ 0x400
 80027fc:	4290      	cmp	r0, r2
 80027fe:	d05e      	beq.n	80028be <HAL_GPIO_Init+0x18a>
 8002800:	f502 6280 	add.w	r2, r2, #1024	@ 0x400
 8002804:	4290      	cmp	r0, r2
 8002806:	d05c      	beq.n	80028c2 <HAL_GPIO_Init+0x18e>
 8002808:	f502 6280 	add.w	r2, r2, #1024	@ 0x400
 800280c:	4290      	cmp	r0, r2
 800280e:	bf14      	ite	ne
 8002810:	2204      	movne	r2, #4
 8002812:	2203      	moveq	r2, #3
 8002814:	fa02 f20a 	lsl.w	r2, r2, sl
 8002818:	ea42 020b 	orr.w	r2, r2, fp
 800281c:	60ba      	str	r2, [r7, #8]
 800281e:	689a      	ldr	r2, [r3, #8]
 8002820:	f419 1f80 	tst.w	r9, #1048576	@ 0x100000
 8002824:	bf14      	ite	ne
 8002826:	432a      	orrne	r2, r5
 8002828:	43aa      	biceq	r2, r5
 800282a:	609a      	str	r2, [r3, #8]
 800282c:	68da      	ldr	r2, [r3, #12]
 800282e:	f419 1f00 	tst.w	r9, #2097152	@ 0x200000
 8002832:	bf14      	ite	ne
 8002834:	432a      	orrne	r2, r5
 8002836:	43aa      	biceq	r2, r5
 8002838:	60da      	str	r2, [r3, #12]
 800283a:	685a      	ldr	r2, [r3, #4]
 800283c:	f419 3f00 	tst.w	r9, #131072	@ 0x20000
 8002840:	bf14      	ite	ne
 8002842:	432a      	orrne	r2, r5
 8002844:	43aa      	biceq	r2, r5
 8002846:	605a      	str	r2, [r3, #4]
 8002848:	681a      	ldr	r2, [r3, #0]
 800284a:	f419 3f80 	tst.w	r9, #65536	@ 0x10000
 800284e:	bf14      	ite	ne
 8002850:	432a      	orrne	r2, r5
 8002852:	43aa      	biceq	r2, r5
 8002854:	601a      	str	r2, [r3, #0]
 8002856:	3601      	adds	r6, #1
 8002858:	e777      	b.n	800274a <HAL_GPIO_Init+0x16>
 800285a:	f8df 9078 	ldr.w	r9, [pc, #120]	@ 80028d4 <HAL_GPIO_Init+0x1a0>
 800285e:	454a      	cmp	r2, r9
 8002860:	d00c      	beq.n	800287c <HAL_GPIO_Init+0x148>
 8002862:	d814      	bhi.n	800288e <HAL_GPIO_Init+0x15a>
 8002864:	f5a9 1980 	sub.w	r9, r9, #1048576	@ 0x100000
 8002868:	454a      	cmp	r2, r9
 800286a:	d007      	beq.n	800287c <HAL_GPIO_Init+0x148>
 800286c:	f509 2970 	add.w	r9, r9, #983040	@ 0xf0000
 8002870:	454a      	cmp	r2, r9
 8002872:	d003      	beq.n	800287c <HAL_GPIO_Init+0x148>
 8002874:	f5a9 1980 	sub.w	r9, r9, #1048576	@ 0x100000
 8002878:	454a      	cmp	r2, r9
 800287a:	d187      	bne.n	800278c <HAL_GPIO_Init+0x58>
 800287c:	688a      	ldr	r2, [r1, #8]
 800287e:	b1d2      	cbz	r2, 80028b6 <HAL_GPIO_Init+0x182>
 8002880:	2a01      	cmp	r2, #1
 8002882:	f04f 0408 	mov.w	r4, #8
 8002886:	bf0c      	ite	eq
 8002888:	6107      	streq	r7, [r0, #16]
 800288a:	6147      	strne	r7, [r0, #20]
 800288c:	e77e      	b.n	800278c <HAL_GPIO_Init+0x58>
 800288e:	f8df 9048 	ldr.w	r9, [pc, #72]	@ 80028d8 <HAL_GPIO_Init+0x1a4>
 8002892:	454a      	cmp	r2, r9
 8002894:	d0f2      	beq.n	800287c <HAL_GPIO_Init+0x148>
 8002896:	f509 3980 	add.w	r9, r9, #65536	@ 0x10000
 800289a:	e7ed      	b.n	8002878 <HAL_GPIO_Init+0x144>
 800289c:	68cc      	ldr	r4, [r1, #12]
 800289e:	e775      	b.n	800278c <HAL_GPIO_Init+0x58>
 80028a0:	68cc      	ldr	r4, [r1, #12]
 80028a2:	3404      	adds	r4, #4
 80028a4:	e772      	b.n	800278c <HAL_GPIO_Init+0x58>
 80028a6:	68cc      	ldr	r4, [r1, #12]
 80028a8:	3408      	adds	r4, #8
 80028aa:	e76f      	b.n	800278c <HAL_GPIO_Init+0x58>
 80028ac:	68cc      	ldr	r4, [r1, #12]
 80028ae:	340c      	adds	r4, #12
 80028b0:	e76c      	b.n	800278c <HAL_GPIO_Init+0x58>
 80028b2:	2400      	movs	r4, #0
 80028b4:	e76a      	b.n	800278c <HAL_GPIO_Init+0x58>
 80028b6:	2404      	movs	r4, #4
 80028b8:	e768      	b.n	800278c <HAL_GPIO_Init+0x58>
 80028ba:	2200      	movs	r2, #0
 80028bc:	e7aa      	b.n	8002814 <HAL_GPIO_Init+0xe0>
 80028be:	2201      	movs	r2, #1
 80028c0:	e7a8      	b.n	8002814 <HAL_GPIO_Init+0xe0>
 80028c2:	2202      	movs	r2, #2
 80028c4:	e7a6      	b.n	8002814 <HAL_GPIO_Init+0xe0>
 80028c6:	bf00      	nop
 80028c8:	40021000 	.word	0x40021000
 80028cc:	40010400 	.word	0x40010400
 80028d0:	40010800 	.word	0x40010800
 80028d4:	10220000 	.word	0x10220000
 80028d8:	10310000 	.word	0x10310000

080028dc <HAL_GPIO_WritePin>:
 80028dc:	b10a      	cbz	r2, 80028e2 <HAL_GPIO_WritePin+0x6>
 80028de:	6101      	str	r1, [r0, #16]
 80028e0:	4770      	bx	lr
 80028e2:	0409      	lsls	r1, r1, #16
 80028e4:	e7fb      	b.n	80028de <HAL_GPIO_WritePin+0x2>
	...

080028e8 <HAL_RCC_OscConfig>:
 80028e8:	e92d 41f3 	stmdb	sp!, {r0, r1, r4, r5, r6, r7, r8, lr}
 80028ec:	4605      	mov	r5, r0
 80028ee:	b338      	cbz	r0, 8002940 <HAL_RCC_OscConfig+0x58>
 80028f0:	6803      	ldr	r3, [r0, #0]
 80028f2:	07db      	lsls	r3, r3, #31
 80028f4:	d410      	bmi.n	8002918 <HAL_RCC_OscConfig+0x30>
 80028f6:	682b      	ldr	r3, [r5, #0]
 80028f8:	079f      	lsls	r7, r3, #30
 80028fa:	d45e      	bmi.n	80029ba <HAL_RCC_OscConfig+0xd2>
 80028fc:	682b      	ldr	r3, [r5, #0]
 80028fe:	0719      	lsls	r1, r3, #28
 8002900:	f100 8095 	bmi.w	8002a2e <HAL_RCC_OscConfig+0x146>
 8002904:	682b      	ldr	r3, [r5, #0]
 8002906:	075a      	lsls	r2, r3, #29
 8002908:	f100 80c1 	bmi.w	8002a8e <HAL_RCC_OscConfig+0x1a6>
 800290c:	69eb      	ldr	r3, [r5, #28]
 800290e:	2b00      	cmp	r3, #0
 8002910:	f040 812c 	bne.w	8002b6c <HAL_RCC_OscConfig+0x284>
 8002914:	2000      	movs	r0, #0
 8002916:	e029      	b.n	800296c <HAL_RCC_OscConfig+0x84>
 8002918:	4c90      	ldr	r4, [pc, #576]	@ (8002b5c <HAL_RCC_OscConfig+0x274>)
 800291a:	6863      	ldr	r3, [r4, #4]
 800291c:	f003 030c 	and.w	r3, r3, #12
 8002920:	2b04      	cmp	r3, #4
 8002922:	d007      	beq.n	8002934 <HAL_RCC_OscConfig+0x4c>
 8002924:	6863      	ldr	r3, [r4, #4]
 8002926:	f003 030c 	and.w	r3, r3, #12
 800292a:	2b08      	cmp	r3, #8
 800292c:	d10a      	bne.n	8002944 <HAL_RCC_OscConfig+0x5c>
 800292e:	6863      	ldr	r3, [r4, #4]
 8002930:	03de      	lsls	r6, r3, #15
 8002932:	d507      	bpl.n	8002944 <HAL_RCC_OscConfig+0x5c>
 8002934:	6823      	ldr	r3, [r4, #0]
 8002936:	039c      	lsls	r4, r3, #14
 8002938:	d5dd      	bpl.n	80028f6 <HAL_RCC_OscConfig+0xe>
 800293a:	686b      	ldr	r3, [r5, #4]
 800293c:	2b00      	cmp	r3, #0
 800293e:	d1da      	bne.n	80028f6 <HAL_RCC_OscConfig+0xe>
 8002940:	2001      	movs	r0, #1
 8002942:	e013      	b.n	800296c <HAL_RCC_OscConfig+0x84>
 8002944:	686b      	ldr	r3, [r5, #4]
 8002946:	f5b3 3f80 	cmp.w	r3, #65536	@ 0x10000
 800294a:	d112      	bne.n	8002972 <HAL_RCC_OscConfig+0x8a>
 800294c:	6823      	ldr	r3, [r4, #0]
 800294e:	f443 3380 	orr.w	r3, r3, #65536	@ 0x10000
 8002952:	6023      	str	r3, [r4, #0]
 8002954:	f7ff fa2e 	bl	8001db4 <HAL_GetTick>
 8002958:	4606      	mov	r6, r0
 800295a:	6823      	ldr	r3, [r4, #0]
 800295c:	0398      	lsls	r0, r3, #14
 800295e:	d4ca      	bmi.n	80028f6 <HAL_RCC_OscConfig+0xe>
 8002960:	f7ff fa28 	bl	8001db4 <HAL_GetTick>
 8002964:	1b80      	subs	r0, r0, r6
 8002966:	2864      	cmp	r0, #100	@ 0x64
 8002968:	d9f7      	bls.n	800295a <HAL_RCC_OscConfig+0x72>
 800296a:	2003      	movs	r0, #3
 800296c:	b002      	add	sp, #8
 800296e:	e8bd 81f0 	ldmia.w	sp!, {r4, r5, r6, r7, r8, pc}
 8002972:	b99b      	cbnz	r3, 800299c <HAL_RCC_OscConfig+0xb4>
 8002974:	6823      	ldr	r3, [r4, #0]
 8002976:	f423 3380 	bic.w	r3, r3, #65536	@ 0x10000
 800297a:	6023      	str	r3, [r4, #0]
 800297c:	6823      	ldr	r3, [r4, #0]
 800297e:	f423 2380 	bic.w	r3, r3, #262144	@ 0x40000
 8002982:	6023      	str	r3, [r4, #0]
 8002984:	f7ff fa16 	bl	8001db4 <HAL_GetTick>
 8002988:	4606      	mov	r6, r0
 800298a:	6823      	ldr	r3, [r4, #0]
 800298c:	0399      	lsls	r1, r3, #14
 800298e:	d5b2      	bpl.n	80028f6 <HAL_RCC_OscConfig+0xe>
 8002990:	f7ff fa10 	bl	8001db4 <HAL_GetTick>
 8002994:	1b80      	subs	r0, r0, r6
 8002996:	2864      	cmp	r0, #100	@ 0x64
 8002998:	d9f7      	bls.n	800298a <HAL_RCC_OscConfig+0xa2>
 800299a:	e7e6      	b.n	800296a <HAL_RCC_OscConfig+0x82>
 800299c:	f5b3 2fa0 	cmp.w	r3, #327680	@ 0x50000
 80029a0:	6823      	ldr	r3, [r4, #0]
 80029a2:	d103      	bne.n	80029ac <HAL_RCC_OscConfig+0xc4>
 80029a4:	f443 2380 	orr.w	r3, r3, #262144	@ 0x40000
 80029a8:	6023      	str	r3, [r4, #0]
 80029aa:	e7cf      	b.n	800294c <HAL_RCC_OscConfig+0x64>
 80029ac:	f423 3380 	bic.w	r3, r3, #65536	@ 0x10000
 80029b0:	6023      	str	r3, [r4, #0]
 80029b2:	6823      	ldr	r3, [r4, #0]
 80029b4:	f423 2380 	bic.w	r3, r3, #262144	@ 0x40000
 80029b8:	e7cb      	b.n	8002952 <HAL_RCC_OscConfig+0x6a>
 80029ba:	4c68      	ldr	r4, [pc, #416]	@ (8002b5c <HAL_RCC_OscConfig+0x274>)
 80029bc:	6863      	ldr	r3, [r4, #4]
 80029be:	f013 0f0c 	tst.w	r3, #12
 80029c2:	d007      	beq.n	80029d4 <HAL_RCC_OscConfig+0xec>
 80029c4:	6863      	ldr	r3, [r4, #4]
 80029c6:	f003 030c 	and.w	r3, r3, #12
 80029ca:	2b08      	cmp	r3, #8
 80029cc:	d110      	bne.n	80029f0 <HAL_RCC_OscConfig+0x108>
 80029ce:	6863      	ldr	r3, [r4, #4]
 80029d0:	03da      	lsls	r2, r3, #15
 80029d2:	d40d      	bmi.n	80029f0 <HAL_RCC_OscConfig+0x108>
 80029d4:	6823      	ldr	r3, [r4, #0]
 80029d6:	079b      	lsls	r3, r3, #30
 80029d8:	d502      	bpl.n	80029e0 <HAL_RCC_OscConfig+0xf8>
 80029da:	692b      	ldr	r3, [r5, #16]
 80029dc:	2b01      	cmp	r3, #1
 80029de:	d1af      	bne.n	8002940 <HAL_RCC_OscConfig+0x58>
 80029e0:	6823      	ldr	r3, [r4, #0]
 80029e2:	696a      	ldr	r2, [r5, #20]
 80029e4:	f023 03f8 	bic.w	r3, r3, #248	@ 0xf8
 80029e8:	ea43 03c2 	orr.w	r3, r3, r2, lsl #3
 80029ec:	6023      	str	r3, [r4, #0]
 80029ee:	e785      	b.n	80028fc <HAL_RCC_OscConfig+0x14>
 80029f0:	692a      	ldr	r2, [r5, #16]
 80029f2:	4b5b      	ldr	r3, [pc, #364]	@ (8002b60 <HAL_RCC_OscConfig+0x278>)
 80029f4:	b16a      	cbz	r2, 8002a12 <HAL_RCC_OscConfig+0x12a>
 80029f6:	2201      	movs	r2, #1
 80029f8:	601a      	str	r2, [r3, #0]
 80029fa:	f7ff f9db 	bl	8001db4 <HAL_GetTick>
 80029fe:	4606      	mov	r6, r0
 8002a00:	6823      	ldr	r3, [r4, #0]
 8002a02:	079f      	lsls	r7, r3, #30
 8002a04:	d4ec      	bmi.n	80029e0 <HAL_RCC_OscConfig+0xf8>
 8002a06:	f7ff f9d5 	bl	8001db4 <HAL_GetTick>
 8002a0a:	1b80      	subs	r0, r0, r6
 8002a0c:	2802      	cmp	r0, #2
 8002a0e:	d9f7      	bls.n	8002a00 <HAL_RCC_OscConfig+0x118>
 8002a10:	e7ab      	b.n	800296a <HAL_RCC_OscConfig+0x82>
 8002a12:	601a      	str	r2, [r3, #0]
 8002a14:	f7ff f9ce 	bl	8001db4 <HAL_GetTick>
 8002a18:	4606      	mov	r6, r0
 8002a1a:	6823      	ldr	r3, [r4, #0]
 8002a1c:	0798      	lsls	r0, r3, #30
 8002a1e:	f57f af6d 	bpl.w	80028fc <HAL_RCC_OscConfig+0x14>
 8002a22:	f7ff f9c7 	bl	8001db4 <HAL_GetTick>
 8002a26:	1b80      	subs	r0, r0, r6
 8002a28:	2802      	cmp	r0, #2
 8002a2a:	d9f6      	bls.n	8002a1a <HAL_RCC_OscConfig+0x132>
 8002a2c:	e79d      	b.n	800296a <HAL_RCC_OscConfig+0x82>
 8002a2e:	69aa      	ldr	r2, [r5, #24]
 8002a30:	4e4a      	ldr	r6, [pc, #296]	@ (8002b5c <HAL_RCC_OscConfig+0x274>)
 8002a32:	4b4b      	ldr	r3, [pc, #300]	@ (8002b60 <HAL_RCC_OscConfig+0x278>)
 8002a34:	b1e2      	cbz	r2, 8002a70 <HAL_RCC_OscConfig+0x188>
 8002a36:	2201      	movs	r2, #1
 8002a38:	f8c3 2480 	str.w	r2, [r3, #1152]	@ 0x480
 8002a3c:	f7ff f9ba 	bl	8001db4 <HAL_GetTick>
 8002a40:	4604      	mov	r4, r0
 8002a42:	6a73      	ldr	r3, [r6, #36]	@ 0x24
 8002a44:	079b      	lsls	r3, r3, #30
 8002a46:	d50d      	bpl.n	8002a64 <HAL_RCC_OscConfig+0x17c>
 8002a48:	f44f 52fa 	mov.w	r2, #8000	@ 0x1f40
 8002a4c:	4b45      	ldr	r3, [pc, #276]	@ (8002b64 <HAL_RCC_OscConfig+0x27c>)
 8002a4e:	681b      	ldr	r3, [r3, #0]
 8002a50:	fbb3 f3f2 	udiv	r3, r3, r2
 8002a54:	9301      	str	r3, [sp, #4]
 8002a56:	bf00      	nop
 8002a58:	9b01      	ldr	r3, [sp, #4]
 8002a5a:	1e5a      	subs	r2, r3, #1
 8002a5c:	9201      	str	r2, [sp, #4]
 8002a5e:	2b00      	cmp	r3, #0
 8002a60:	d1f9      	bne.n	8002a56 <HAL_RCC_OscConfig+0x16e>
 8002a62:	e74f      	b.n	8002904 <HAL_RCC_OscConfig+0x1c>
 8002a64:	f7ff f9a6 	bl	8001db4 <HAL_GetTick>
 8002a68:	1b00      	subs	r0, r0, r4
 8002a6a:	2802      	cmp	r0, #2
 8002a6c:	d9e9      	bls.n	8002a42 <HAL_RCC_OscConfig+0x15a>
 8002a6e:	e77c      	b.n	800296a <HAL_RCC_OscConfig+0x82>
 8002a70:	f8c3 2480 	str.w	r2, [r3, #1152]	@ 0x480
 8002a74:	f7ff f99e 	bl	8001db4 <HAL_GetTick>
 8002a78:	4604      	mov	r4, r0
 8002a7a:	6a73      	ldr	r3, [r6, #36]	@ 0x24
 8002a7c:	079f      	lsls	r7, r3, #30
 8002a7e:	f57f af41 	bpl.w	8002904 <HAL_RCC_OscConfig+0x1c>
 8002a82:	f7ff f997 	bl	8001db4 <HAL_GetTick>
 8002a86:	1b00      	subs	r0, r0, r4
 8002a88:	2802      	cmp	r0, #2
 8002a8a:	d9f6      	bls.n	8002a7a <HAL_RCC_OscConfig+0x192>
 8002a8c:	e76d      	b.n	800296a <HAL_RCC_OscConfig+0x82>
 8002a8e:	4c33      	ldr	r4, [pc, #204]	@ (8002b5c <HAL_RCC_OscConfig+0x274>)
 8002a90:	69e3      	ldr	r3, [r4, #28]
 8002a92:	00d8      	lsls	r0, r3, #3
 8002a94:	d424      	bmi.n	8002ae0 <HAL_RCC_OscConfig+0x1f8>
 8002a96:	2701      	movs	r7, #1
 8002a98:	69e3      	ldr	r3, [r4, #28]
 8002a9a:	f043 5380 	orr.w	r3, r3, #268435456	@ 0x10000000
 8002a9e:	61e3      	str	r3, [r4, #28]
 8002aa0:	69e3      	ldr	r3, [r4, #28]
 8002aa2:	f003 5380 	and.w	r3, r3, #268435456	@ 0x10000000
 8002aa6:	9300      	str	r3, [sp, #0]
 8002aa8:	9b00      	ldr	r3, [sp, #0]
 8002aaa:	4e2f      	ldr	r6, [pc, #188]	@ (8002b68 <HAL_RCC_OscConfig+0x280>)
 8002aac:	6833      	ldr	r3, [r6, #0]
 8002aae:	05d9      	lsls	r1, r3, #23
 8002ab0:	d518      	bpl.n	8002ae4 <HAL_RCC_OscConfig+0x1fc>
 8002ab2:	68eb      	ldr	r3, [r5, #12]
 8002ab4:	2b01      	cmp	r3, #1
 8002ab6:	d126      	bne.n	8002b06 <HAL_RCC_OscConfig+0x21e>
 8002ab8:	6a23      	ldr	r3, [r4, #32]
 8002aba:	f043 0301 	orr.w	r3, r3, #1
 8002abe:	6223      	str	r3, [r4, #32]
 8002ac0:	f7ff f978 	bl	8001db4 <HAL_GetTick>
 8002ac4:	f241 3888 	movw	r8, #5000	@ 0x1388
 8002ac8:	4606      	mov	r6, r0
 8002aca:	6a23      	ldr	r3, [r4, #32]
 8002acc:	079b      	lsls	r3, r3, #30
 8002ace:	d53f      	bpl.n	8002b50 <HAL_RCC_OscConfig+0x268>
 8002ad0:	2f00      	cmp	r7, #0
 8002ad2:	f43f af1b 	beq.w	800290c <HAL_RCC_OscConfig+0x24>
 8002ad6:	69e3      	ldr	r3, [r4, #28]
 8002ad8:	f023 5380 	bic.w	r3, r3, #268435456	@ 0x10000000
 8002adc:	61e3      	str	r3, [r4, #28]
 8002ade:	e715      	b.n	800290c <HAL_RCC_OscConfig+0x24>
 8002ae0:	2700      	movs	r7, #0
 8002ae2:	e7e2      	b.n	8002aaa <HAL_RCC_OscConfig+0x1c2>
 8002ae4:	6833      	ldr	r3, [r6, #0]
 8002ae6:	f443 7380 	orr.w	r3, r3, #256	@ 0x100
 8002aea:	6033      	str	r3, [r6, #0]
 8002aec:	f7ff f962 	bl	8001db4 <HAL_GetTick>
 8002af0:	4680      	mov	r8, r0
 8002af2:	6833      	ldr	r3, [r6, #0]
 8002af4:	05da      	lsls	r2, r3, #23
 8002af6:	d4dc      	bmi.n	8002ab2 <HAL_RCC_OscConfig+0x1ca>
 8002af8:	f7ff f95c 	bl	8001db4 <HAL_GetTick>
 8002afc:	eba0 0008 	sub.w	r0, r0, r8
 8002b00:	2864      	cmp	r0, #100	@ 0x64
 8002b02:	d9f6      	bls.n	8002af2 <HAL_RCC_OscConfig+0x20a>
 8002b04:	e731      	b.n	800296a <HAL_RCC_OscConfig+0x82>
 8002b06:	b9ab      	cbnz	r3, 8002b34 <HAL_RCC_OscConfig+0x24c>
 8002b08:	6a23      	ldr	r3, [r4, #32]
 8002b0a:	f241 3888 	movw	r8, #5000	@ 0x1388
 8002b0e:	f023 0301 	bic.w	r3, r3, #1
 8002b12:	6223      	str	r3, [r4, #32]
 8002b14:	6a23      	ldr	r3, [r4, #32]
 8002b16:	f023 0304 	bic.w	r3, r3, #4
 8002b1a:	6223      	str	r3, [r4, #32]
 8002b1c:	f7ff f94a 	bl	8001db4 <HAL_GetTick>
 8002b20:	4606      	mov	r6, r0
 8002b22:	6a23      	ldr	r3, [r4, #32]
 8002b24:	0798      	lsls	r0, r3, #30
 8002b26:	d5d3      	bpl.n	8002ad0 <HAL_RCC_OscConfig+0x1e8>
 8002b28:	f7ff f944 	bl	8001db4 <HAL_GetTick>
 8002b2c:	1b80      	subs	r0, r0, r6
 8002b2e:	4540      	cmp	r0, r8
 8002b30:	d9f7      	bls.n	8002b22 <HAL_RCC_OscConfig+0x23a>
 8002b32:	e71a      	b.n	800296a <HAL_RCC_OscConfig+0x82>
 8002b34:	2b05      	cmp	r3, #5
 8002b36:	6a23      	ldr	r3, [r4, #32]
 8002b38:	d103      	bne.n	8002b42 <HAL_RCC_OscConfig+0x25a>
 8002b3a:	f043 0304 	orr.w	r3, r3, #4
 8002b3e:	6223      	str	r3, [r4, #32]
 8002b40:	e7ba      	b.n	8002ab8 <HAL_RCC_OscConfig+0x1d0>
 8002b42:	f023 0301 	bic.w	r3, r3, #1
 8002b46:	6223      	str	r3, [r4, #32]
 8002b48:	6a23      	ldr	r3, [r4, #32]
 8002b4a:	f023 0304 	bic.w	r3, r3, #4
 8002b4e:	e7b6      	b.n	8002abe <HAL_RCC_OscConfig+0x1d6>
 8002b50:	f7ff f930 	bl	8001db4 <HAL_GetTick>
 8002b54:	1b80      	subs	r0, r0, r6
 8002b56:	4540      	cmp	r0, r8
 8002b58:	d9b7      	bls.n	8002aca <HAL_RCC_OscConfig+0x1e2>
 8002b5a:	e706      	b.n	800296a <HAL_RCC_OscConfig+0x82>
 8002b5c:	40021000 	.word	0x40021000
 8002b60:	42420000 	.word	0x42420000
 8002b64:	20000000 	.word	0x20000000
 8002b68:	40007000 	.word	0x40007000
 8002b6c:	4c2a      	ldr	r4, [pc, #168]	@ (8002c18 <HAL_RCC_OscConfig+0x330>)
 8002b6e:	6862      	ldr	r2, [r4, #4]
 8002b70:	f002 020c 	and.w	r2, r2, #12
 8002b74:	2a08      	cmp	r2, #8
 8002b76:	d03e      	beq.n	8002bf6 <HAL_RCC_OscConfig+0x30e>
 8002b78:	2200      	movs	r2, #0
 8002b7a:	2b02      	cmp	r3, #2
 8002b7c:	4b27      	ldr	r3, [pc, #156]	@ (8002c1c <HAL_RCC_OscConfig+0x334>)
 8002b7e:	661a      	str	r2, [r3, #96]	@ 0x60
 8002b80:	d12c      	bne.n	8002bdc <HAL_RCC_OscConfig+0x2f4>
 8002b82:	f7ff f917 	bl	8001db4 <HAL_GetTick>
 8002b86:	4606      	mov	r6, r0
 8002b88:	6823      	ldr	r3, [r4, #0]
 8002b8a:	0199      	lsls	r1, r3, #6
 8002b8c:	d420      	bmi.n	8002bd0 <HAL_RCC_OscConfig+0x2e8>
 8002b8e:	6a2b      	ldr	r3, [r5, #32]
 8002b90:	f5b3 3f80 	cmp.w	r3, #65536	@ 0x10000
 8002b94:	d105      	bne.n	8002ba2 <HAL_RCC_OscConfig+0x2ba>
 8002b96:	6862      	ldr	r2, [r4, #4]
 8002b98:	68a9      	ldr	r1, [r5, #8]
 8002b9a:	f422 3200 	bic.w	r2, r2, #131072	@ 0x20000
 8002b9e:	430a      	orrs	r2, r1
 8002ba0:	6062      	str	r2, [r4, #4]
 8002ba2:	6a69      	ldr	r1, [r5, #36]	@ 0x24
 8002ba4:	6862      	ldr	r2, [r4, #4]
 8002ba6:	430b      	orrs	r3, r1
 8002ba8:	f422 1274 	bic.w	r2, r2, #3997696	@ 0x3d0000
 8002bac:	4313      	orrs	r3, r2
 8002bae:	2201      	movs	r2, #1
 8002bb0:	6063      	str	r3, [r4, #4]
 8002bb2:	4b1a      	ldr	r3, [pc, #104]	@ (8002c1c <HAL_RCC_OscConfig+0x334>)
 8002bb4:	661a      	str	r2, [r3, #96]	@ 0x60
 8002bb6:	f7ff f8fd 	bl	8001db4 <HAL_GetTick>
 8002bba:	4605      	mov	r5, r0
 8002bbc:	6823      	ldr	r3, [r4, #0]
 8002bbe:	019a      	lsls	r2, r3, #6
 8002bc0:	f53f aea8 	bmi.w	8002914 <HAL_RCC_OscConfig+0x2c>
 8002bc4:	f7ff f8f6 	bl	8001db4 <HAL_GetTick>
 8002bc8:	1b40      	subs	r0, r0, r5
 8002bca:	2802      	cmp	r0, #2
 8002bcc:	d9f6      	bls.n	8002bbc <HAL_RCC_OscConfig+0x2d4>
 8002bce:	e6cc      	b.n	800296a <HAL_RCC_OscConfig+0x82>
 8002bd0:	f7ff f8f0 	bl	8001db4 <HAL_GetTick>
 8002bd4:	1b80      	subs	r0, r0, r6
 8002bd6:	2802      	cmp	r0, #2
 8002bd8:	d9d6      	bls.n	8002b88 <HAL_RCC_OscConfig+0x2a0>
 8002bda:	e6c6      	b.n	800296a <HAL_RCC_OscConfig+0x82>
 8002bdc:	f7ff f8ea 	bl	8001db4 <HAL_GetTick>
 8002be0:	4605      	mov	r5, r0
 8002be2:	6823      	ldr	r3, [r4, #0]
 8002be4:	019b      	lsls	r3, r3, #6
 8002be6:	f57f ae95 	bpl.w	8002914 <HAL_RCC_OscConfig+0x2c>
 8002bea:	f7ff f8e3 	bl	8001db4 <HAL_GetTick>
 8002bee:	1b40      	subs	r0, r0, r5
 8002bf0:	2802      	cmp	r0, #2
 8002bf2:	d9f6      	bls.n	8002be2 <HAL_RCC_OscConfig+0x2fa>
 8002bf4:	e6b9      	b.n	800296a <HAL_RCC_OscConfig+0x82>
 8002bf6:	2b01      	cmp	r3, #1
 8002bf8:	f43f aea2 	beq.w	8002940 <HAL_RCC_OscConfig+0x58>
 8002bfc:	6860      	ldr	r0, [r4, #4]
 8002bfe:	6a2b      	ldr	r3, [r5, #32]
 8002c00:	f400 3280 	and.w	r2, r0, #65536	@ 0x10000
 8002c04:	429a      	cmp	r2, r3
 8002c06:	f47f ae9b 	bne.w	8002940 <HAL_RCC_OscConfig+0x58>
 8002c0a:	6a6b      	ldr	r3, [r5, #36]	@ 0x24
 8002c0c:	f400 1070 	and.w	r0, r0, #3932160	@ 0x3c0000
 8002c10:	1ac0      	subs	r0, r0, r3
 8002c12:	bf18      	it	ne
 8002c14:	2001      	movne	r0, #1
 8002c16:	e6a9      	b.n	800296c <HAL_RCC_OscConfig+0x84>
 8002c18:	40021000 	.word	0x40021000
 8002c1c:	42420000 	.word	0x42420000

08002c20 <HAL_RCC_EnableCSS>:
 8002c20:	2201      	movs	r2, #1
 8002c22:	4b01      	ldr	r3, [pc, #4]	@ (8002c28 <HAL_RCC_EnableCSS+0x8>)
 8002c24:	64da      	str	r2, [r3, #76]	@ 0x4c
 8002c26:	4770      	bx	lr
 8002c28:	42420000 	.word	0x42420000

08002c2c <HAL_RCC_GetSysClockFreq>:
 8002c2c:	4a0d      	ldr	r2, [pc, #52]	@ (8002c64 <HAL_RCC_GetSysClockFreq+0x38>)
 8002c2e:	6853      	ldr	r3, [r2, #4]
 8002c30:	f003 010c 	and.w	r1, r3, #12
 8002c34:	2908      	cmp	r1, #8
 8002c36:	d112      	bne.n	8002c5e <HAL_RCC_GetSysClockFreq+0x32>
 8002c38:	480b      	ldr	r0, [pc, #44]	@ (8002c68 <HAL_RCC_GetSysClockFreq+0x3c>)
 8002c3a:	f3c3 4183 	ubfx	r1, r3, #18, #4
 8002c3e:	03db      	lsls	r3, r3, #15
 8002c40:	5c40      	ldrb	r0, [r0, r1]
 8002c42:	d509      	bpl.n	8002c58 <HAL_RCC_GetSysClockFreq+0x2c>
 8002c44:	6853      	ldr	r3, [r2, #4]
 8002c46:	4a09      	ldr	r2, [pc, #36]	@ (8002c6c <HAL_RCC_GetSysClockFreq+0x40>)
 8002c48:	f3c3 4340 	ubfx	r3, r3, #17, #1
 8002c4c:	4350      	muls	r0, r2
 8002c4e:	4a08      	ldr	r2, [pc, #32]	@ (8002c70 <HAL_RCC_GetSysClockFreq+0x44>)
 8002c50:	5cd3      	ldrb	r3, [r2, r3]
 8002c52:	fbb0 f0f3 	udiv	r0, r0, r3
 8002c56:	4770      	bx	lr
 8002c58:	4b06      	ldr	r3, [pc, #24]	@ (8002c74 <HAL_RCC_GetSysClockFreq+0x48>)
 8002c5a:	4358      	muls	r0, r3
 8002c5c:	4770      	bx	lr
 8002c5e:	4803      	ldr	r0, [pc, #12]	@ (8002c6c <HAL_RCC_GetSysClockFreq+0x40>)
 8002c60:	4770      	bx	lr
 8002c62:	bf00      	nop
 8002c64:	40021000 	.word	0x40021000
 8002c68:	080061ee 	.word	0x080061ee
 8002c6c:	007a1200 	.word	0x007a1200
 8002c70:	080061ec 	.word	0x080061ec
 8002c74:	003d0900 	.word	0x003d0900

08002c78 <HAL_RCC_ClockConfig>:
 8002c78:	e92d 41f0 	stmdb	sp!, {r4, r5, r6, r7, r8, lr}
 8002c7c:	460d      	mov	r5, r1
 8002c7e:	4604      	mov	r4, r0
 8002c80:	b910      	cbnz	r0, 8002c88 <HAL_RCC_ClockConfig+0x10>
 8002c82:	2001      	movs	r0, #1
 8002c84:	e8bd 81f0 	ldmia.w	sp!, {r4, r5, r6, r7, r8, pc}
 8002c88:	4a44      	ldr	r2, [pc, #272]	@ (8002d9c <HAL_RCC_ClockConfig+0x124>)
 8002c8a:	6813      	ldr	r3, [r2, #0]
 8002c8c:	f003 0307 	and.w	r3, r3, #7
 8002c90:	428b      	cmp	r3, r1
 8002c92:	d328      	bcc.n	8002ce6 <HAL_RCC_ClockConfig+0x6e>
 8002c94:	6821      	ldr	r1, [r4, #0]
 8002c96:	078e      	lsls	r6, r1, #30
 8002c98:	d430      	bmi.n	8002cfc <HAL_RCC_ClockConfig+0x84>
 8002c9a:	07ca      	lsls	r2, r1, #31
 8002c9c:	d443      	bmi.n	8002d26 <HAL_RCC_ClockConfig+0xae>
 8002c9e:	4a3f      	ldr	r2, [pc, #252]	@ (8002d9c <HAL_RCC_ClockConfig+0x124>)
 8002ca0:	6813      	ldr	r3, [r2, #0]
 8002ca2:	f003 0307 	and.w	r3, r3, #7
 8002ca6:	42ab      	cmp	r3, r5
 8002ca8:	d865      	bhi.n	8002d76 <HAL_RCC_ClockConfig+0xfe>
 8002caa:	6822      	ldr	r2, [r4, #0]
 8002cac:	4d3c      	ldr	r5, [pc, #240]	@ (8002da0 <HAL_RCC_ClockConfig+0x128>)
 8002cae:	f012 0f04 	tst.w	r2, #4
 8002cb2:	d16c      	bne.n	8002d8e <HAL_RCC_ClockConfig+0x116>
 8002cb4:	0713      	lsls	r3, r2, #28
 8002cb6:	d506      	bpl.n	8002cc6 <HAL_RCC_ClockConfig+0x4e>
 8002cb8:	686b      	ldr	r3, [r5, #4]
 8002cba:	6922      	ldr	r2, [r4, #16]
 8002cbc:	f423 5360 	bic.w	r3, r3, #14336	@ 0x3800
 8002cc0:	ea43 03c2 	orr.w	r3, r3, r2, lsl #3
 8002cc4:	606b      	str	r3, [r5, #4]
 8002cc6:	f7ff ffb1 	bl	8002c2c <HAL_RCC_GetSysClockFreq>
 8002cca:	686b      	ldr	r3, [r5, #4]
 8002ccc:	4a35      	ldr	r2, [pc, #212]	@ (8002da4 <HAL_RCC_ClockConfig+0x12c>)
 8002cce:	f3c3 1303 	ubfx	r3, r3, #4, #4
 8002cd2:	5cd3      	ldrb	r3, [r2, r3]
 8002cd4:	40d8      	lsrs	r0, r3
 8002cd6:	4b34      	ldr	r3, [pc, #208]	@ (8002da8 <HAL_RCC_ClockConfig+0x130>)
 8002cd8:	6018      	str	r0, [r3, #0]
 8002cda:	4b34      	ldr	r3, [pc, #208]	@ (8002dac <HAL_RCC_ClockConfig+0x134>)
 8002cdc:	6818      	ldr	r0, [r3, #0]
 8002cde:	f7ff f827 	bl	8001d30 <HAL_InitTick>
 8002ce2:	2000      	movs	r0, #0
 8002ce4:	e7ce      	b.n	8002c84 <HAL_RCC_ClockConfig+0xc>
 8002ce6:	6813      	ldr	r3, [r2, #0]
 8002ce8:	f023 0307 	bic.w	r3, r3, #7
 8002cec:	430b      	orrs	r3, r1
 8002cee:	6013      	str	r3, [r2, #0]
 8002cf0:	6813      	ldr	r3, [r2, #0]
 8002cf2:	f003 0307 	and.w	r3, r3, #7
 8002cf6:	428b      	cmp	r3, r1
 8002cf8:	d1c3      	bne.n	8002c82 <HAL_RCC_ClockConfig+0xa>
 8002cfa:	e7cb      	b.n	8002c94 <HAL_RCC_ClockConfig+0x1c>
 8002cfc:	4b28      	ldr	r3, [pc, #160]	@ (8002da0 <HAL_RCC_ClockConfig+0x128>)
 8002cfe:	f011 0f04 	tst.w	r1, #4
 8002d02:	bf1e      	ittt	ne
 8002d04:	685a      	ldrne	r2, [r3, #4]
 8002d06:	f442 62e0 	orrne.w	r2, r2, #1792	@ 0x700
 8002d0a:	605a      	strne	r2, [r3, #4]
 8002d0c:	0708      	lsls	r0, r1, #28
 8002d0e:	bf42      	ittt	mi
 8002d10:	685a      	ldrmi	r2, [r3, #4]
 8002d12:	f442 5260 	orrmi.w	r2, r2, #14336	@ 0x3800
 8002d16:	605a      	strmi	r2, [r3, #4]
 8002d18:	685a      	ldr	r2, [r3, #4]
 8002d1a:	68a0      	ldr	r0, [r4, #8]
 8002d1c:	f022 02f0 	bic.w	r2, r2, #240	@ 0xf0
 8002d20:	4302      	orrs	r2, r0
 8002d22:	605a      	str	r2, [r3, #4]
 8002d24:	e7b9      	b.n	8002c9a <HAL_RCC_ClockConfig+0x22>
 8002d26:	6862      	ldr	r2, [r4, #4]
 8002d28:	4e1d      	ldr	r6, [pc, #116]	@ (8002da0 <HAL_RCC_ClockConfig+0x128>)
 8002d2a:	2a01      	cmp	r2, #1
 8002d2c:	6833      	ldr	r3, [r6, #0]
 8002d2e:	d11a      	bne.n	8002d66 <HAL_RCC_ClockConfig+0xee>
 8002d30:	f413 3f00 	tst.w	r3, #131072	@ 0x20000
 8002d34:	d0a5      	beq.n	8002c82 <HAL_RCC_ClockConfig+0xa>
 8002d36:	6873      	ldr	r3, [r6, #4]
 8002d38:	f241 3888 	movw	r8, #5000	@ 0x1388
 8002d3c:	f023 0303 	bic.w	r3, r3, #3
 8002d40:	4313      	orrs	r3, r2
 8002d42:	6073      	str	r3, [r6, #4]
 8002d44:	f7ff f836 	bl	8001db4 <HAL_GetTick>
 8002d48:	4607      	mov	r7, r0
 8002d4a:	6873      	ldr	r3, [r6, #4]
 8002d4c:	6862      	ldr	r2, [r4, #4]
 8002d4e:	f003 030c 	and.w	r3, r3, #12
 8002d52:	ebb3 0f82 	cmp.w	r3, r2, lsl #2
 8002d56:	d0a2      	beq.n	8002c9e <HAL_RCC_ClockConfig+0x26>
 8002d58:	f7ff f82c 	bl	8001db4 <HAL_GetTick>
 8002d5c:	1bc0      	subs	r0, r0, r7
 8002d5e:	4540      	cmp	r0, r8
 8002d60:	d9f3      	bls.n	8002d4a <HAL_RCC_ClockConfig+0xd2>
 8002d62:	2003      	movs	r0, #3
 8002d64:	e78e      	b.n	8002c84 <HAL_RCC_ClockConfig+0xc>
 8002d66:	2a02      	cmp	r2, #2
 8002d68:	d102      	bne.n	8002d70 <HAL_RCC_ClockConfig+0xf8>
 8002d6a:	f013 7f00 	tst.w	r3, #33554432	@ 0x2000000
 8002d6e:	e7e1      	b.n	8002d34 <HAL_RCC_ClockConfig+0xbc>
 8002d70:	f013 0f02 	tst.w	r3, #2
 8002d74:	e7de      	b.n	8002d34 <HAL_RCC_ClockConfig+0xbc>
 8002d76:	6813      	ldr	r3, [r2, #0]
 8002d78:	f023 0307 	bic.w	r3, r3, #7
 8002d7c:	432b      	orrs	r3, r5
 8002d7e:	6013      	str	r3, [r2, #0]
 8002d80:	6813      	ldr	r3, [r2, #0]
 8002d82:	f003 0307 	and.w	r3, r3, #7
 8002d86:	42ab      	cmp	r3, r5
 8002d88:	f47f af7b 	bne.w	8002c82 <HAL_RCC_ClockConfig+0xa>
 8002d8c:	e78d      	b.n	8002caa <HAL_RCC_ClockConfig+0x32>
 8002d8e:	686b      	ldr	r3, [r5, #4]
 8002d90:	68e1      	ldr	r1, [r4, #12]
 8002d92:	f423 63e0 	bic.w	r3, r3, #1792	@ 0x700
 8002d96:	430b      	orrs	r3, r1
 8002d98:	606b      	str	r3, [r5, #4]
 8002d9a:	e78b      	b.n	8002cb4 <HAL_RCC_ClockConfig+0x3c>
 8002d9c:	40022000 	.word	0x40022000
 8002da0:	40021000 	.word	0x40021000
 8002da4:	080061dc 	.word	0x080061dc
 8002da8:	20000000 	.word	0x20000000
 8002dac:	20000008 	.word	0x20000008

08002db0 <HAL_RCC_GetPCLK1Freq>:
 8002db0:	4b04      	ldr	r3, [pc, #16]	@ (8002dc4 <HAL_RCC_GetPCLK1Freq+0x14>)
 8002db2:	4a05      	ldr	r2, [pc, #20]	@ (8002dc8 <HAL_RCC_GetPCLK1Freq+0x18>)
 8002db4:	685b      	ldr	r3, [r3, #4]
 8002db6:	f3c3 2302 	ubfx	r3, r3, #8, #3
 8002dba:	5cd3      	ldrb	r3, [r2, r3]
 8002dbc:	4a03      	ldr	r2, [pc, #12]	@ (8002dcc <HAL_RCC_GetPCLK1Freq+0x1c>)
 8002dbe:	6810      	ldr	r0, [r2, #0]
 8002dc0:	40d8      	lsrs	r0, r3
 8002dc2:	4770      	bx	lr
 8002dc4:	40021000 	.word	0x40021000
 8002dc8:	080061d4 	.word	0x080061d4
 8002dcc:	20000000 	.word	0x20000000

08002dd0 <HAL_RCC_GetPCLK2Freq>:
 8002dd0:	4b04      	ldr	r3, [pc, #16]	@ (8002de4 <HAL_RCC_GetPCLK2Freq+0x14>)
 8002dd2:	4a05      	ldr	r2, [pc, #20]	@ (8002de8 <HAL_RCC_GetPCLK2Freq+0x18>)
 8002dd4:	685b      	ldr	r3, [r3, #4]
 8002dd6:	f3c3 23c2 	ubfx	r3, r3, #11, #3
 8002dda:	5cd3      	ldrb	r3, [r2, r3]
 8002ddc:	4a03      	ldr	r2, [pc, #12]	@ (8002dec <HAL_RCC_GetPCLK2Freq+0x1c>)
 8002dde:	6810      	ldr	r0, [r2, #0]
 8002de0:	40d8      	lsrs	r0, r3
 8002de2:	4770      	bx	lr
 8002de4:	40021000 	.word	0x40021000
 8002de8:	080061d4 	.word	0x080061d4
 8002dec:	20000000 	.word	0x20000000

08002df0 <HAL_RCC_CSSCallback>:
 8002df0:	4770      	bx	lr
	...

08002df4 <HAL_RCC_NMI_IRQHandler>:
 8002df4:	b510      	push	{r4, lr}
 8002df6:	4c04      	ldr	r4, [pc, #16]	@ (8002e08 <HAL_RCC_NMI_IRQHandler+0x14>)
 8002df8:	68a3      	ldr	r3, [r4, #8]
 8002dfa:	061b      	lsls	r3, r3, #24
 8002dfc:	d503      	bpl.n	8002e06 <HAL_RCC_NMI_IRQHandler+0x12>
 8002dfe:	f7ff fff7 	bl	8002df0 <HAL_RCC_CSSCallback>
 8002e02:	2380      	movs	r3, #128	@ 0x80
 8002e04:	72a3      	strb	r3, [r4, #10]
 8002e06:	bd10      	pop	{r4, pc}
 8002e08:	40021000 	.word	0x40021000

08002e0c <HAL_RCCEx_PeriphCLKConfig>:
 8002e0c:	6803      	ldr	r3, [r0, #0]
 8002e0e:	e92d 41f3 	stmdb	sp!, {r0, r1, r4, r5, r6, r7, r8, lr}
 8002e12:	4605      	mov	r5, r0
 8002e14:	07d8      	lsls	r0, r3, #31
 8002e16:	d520      	bpl.n	8002e5a <HAL_RCCEx_PeriphCLKConfig+0x4e>
 8002e18:	4c36      	ldr	r4, [pc, #216]	@ (8002ef4 <HAL_RCCEx_PeriphCLKConfig+0xe8>)
 8002e1a:	69e3      	ldr	r3, [r4, #28]
 8002e1c:	00d9      	lsls	r1, r3, #3
 8002e1e:	d42a      	bmi.n	8002e76 <HAL_RCCEx_PeriphCLKConfig+0x6a>
 8002e20:	2601      	movs	r6, #1
 8002e22:	69e3      	ldr	r3, [r4, #28]
 8002e24:	f043 5380 	orr.w	r3, r3, #268435456	@ 0x10000000
 8002e28:	61e3      	str	r3, [r4, #28]
 8002e2a:	69e3      	ldr	r3, [r4, #28]
 8002e2c:	f003 5380 	and.w	r3, r3, #268435456	@ 0x10000000
 8002e30:	9301      	str	r3, [sp, #4]
 8002e32:	9b01      	ldr	r3, [sp, #4]
 8002e34:	4f30      	ldr	r7, [pc, #192]	@ (8002ef8 <HAL_RCCEx_PeriphCLKConfig+0xec>)
 8002e36:	683b      	ldr	r3, [r7, #0]
 8002e38:	05da      	lsls	r2, r3, #23
 8002e3a:	d51e      	bpl.n	8002e7a <HAL_RCCEx_PeriphCLKConfig+0x6e>
 8002e3c:	6a23      	ldr	r3, [r4, #32]
 8002e3e:	f413 7340 	ands.w	r3, r3, #768	@ 0x300
 8002e42:	d12e      	bne.n	8002ea2 <HAL_RCCEx_PeriphCLKConfig+0x96>
 8002e44:	6a23      	ldr	r3, [r4, #32]
 8002e46:	686a      	ldr	r2, [r5, #4]
 8002e48:	f423 7340 	bic.w	r3, r3, #768	@ 0x300
 8002e4c:	4313      	orrs	r3, r2
 8002e4e:	6223      	str	r3, [r4, #32]
 8002e50:	b11e      	cbz	r6, 8002e5a <HAL_RCCEx_PeriphCLKConfig+0x4e>
 8002e52:	69e3      	ldr	r3, [r4, #28]
 8002e54:	f023 5380 	bic.w	r3, r3, #268435456	@ 0x10000000
 8002e58:	61e3      	str	r3, [r4, #28]
 8002e5a:	682a      	ldr	r2, [r5, #0]
 8002e5c:	0791      	lsls	r1, r2, #30
 8002e5e:	d506      	bpl.n	8002e6e <HAL_RCCEx_PeriphCLKConfig+0x62>
 8002e60:	4924      	ldr	r1, [pc, #144]	@ (8002ef4 <HAL_RCCEx_PeriphCLKConfig+0xe8>)
 8002e62:	68a8      	ldr	r0, [r5, #8]
 8002e64:	684b      	ldr	r3, [r1, #4]
 8002e66:	f423 4340 	bic.w	r3, r3, #49152	@ 0xc000
 8002e6a:	4303      	orrs	r3, r0
 8002e6c:	604b      	str	r3, [r1, #4]
 8002e6e:	06d3      	lsls	r3, r2, #27
 8002e70:	d437      	bmi.n	8002ee2 <HAL_RCCEx_PeriphCLKConfig+0xd6>
 8002e72:	2000      	movs	r0, #0
 8002e74:	e012      	b.n	8002e9c <HAL_RCCEx_PeriphCLKConfig+0x90>
 8002e76:	2600      	movs	r6, #0
 8002e78:	e7dc      	b.n	8002e34 <HAL_RCCEx_PeriphCLKConfig+0x28>
 8002e7a:	683b      	ldr	r3, [r7, #0]
 8002e7c:	f443 7380 	orr.w	r3, r3, #256	@ 0x100
 8002e80:	603b      	str	r3, [r7, #0]
 8002e82:	f7fe ff97 	bl	8001db4 <HAL_GetTick>
 8002e86:	4680      	mov	r8, r0
 8002e88:	683b      	ldr	r3, [r7, #0]
 8002e8a:	05db      	lsls	r3, r3, #23
 8002e8c:	d4d6      	bmi.n	8002e3c <HAL_RCCEx_PeriphCLKConfig+0x30>
 8002e8e:	f7fe ff91 	bl	8001db4 <HAL_GetTick>
 8002e92:	eba0 0008 	sub.w	r0, r0, r8
 8002e96:	2864      	cmp	r0, #100	@ 0x64
 8002e98:	d9f6      	bls.n	8002e88 <HAL_RCCEx_PeriphCLKConfig+0x7c>
 8002e9a:	2003      	movs	r0, #3
 8002e9c:	b002      	add	sp, #8
 8002e9e:	e8bd 81f0 	ldmia.w	sp!, {r4, r5, r6, r7, r8, pc}
 8002ea2:	686a      	ldr	r2, [r5, #4]
 8002ea4:	f402 7240 	and.w	r2, r2, #768	@ 0x300
 8002ea8:	429a      	cmp	r2, r3
 8002eaa:	d0cb      	beq.n	8002e44 <HAL_RCCEx_PeriphCLKConfig+0x38>
 8002eac:	2001      	movs	r0, #1
 8002eae:	4a13      	ldr	r2, [pc, #76]	@ (8002efc <HAL_RCCEx_PeriphCLKConfig+0xf0>)
 8002eb0:	6a23      	ldr	r3, [r4, #32]
 8002eb2:	f8c2 0440 	str.w	r0, [r2, #1088]	@ 0x440
 8002eb6:	2000      	movs	r0, #0
 8002eb8:	f423 7140 	bic.w	r1, r3, #768	@ 0x300
 8002ebc:	07df      	lsls	r7, r3, #31
 8002ebe:	f8c2 0440 	str.w	r0, [r2, #1088]	@ 0x440
 8002ec2:	6221      	str	r1, [r4, #32]
 8002ec4:	d5be      	bpl.n	8002e44 <HAL_RCCEx_PeriphCLKConfig+0x38>
 8002ec6:	f7fe ff75 	bl	8001db4 <HAL_GetTick>
 8002eca:	f241 3888 	movw	r8, #5000	@ 0x1388
 8002ece:	4607      	mov	r7, r0
 8002ed0:	6a23      	ldr	r3, [r4, #32]
 8002ed2:	0798      	lsls	r0, r3, #30
 8002ed4:	d4b6      	bmi.n	8002e44 <HAL_RCCEx_PeriphCLKConfig+0x38>
 8002ed6:	f7fe ff6d 	bl	8001db4 <HAL_GetTick>
 8002eda:	1bc0      	subs	r0, r0, r7
 8002edc:	4540      	cmp	r0, r8
 8002ede:	d9f7      	bls.n	8002ed0 <HAL_RCCEx_PeriphCLKConfig+0xc4>
 8002ee0:	e7db      	b.n	8002e9a <HAL_RCCEx_PeriphCLKConfig+0x8e>
 8002ee2:	4a04      	ldr	r2, [pc, #16]	@ (8002ef4 <HAL_RCCEx_PeriphCLKConfig+0xe8>)
 8002ee4:	68e9      	ldr	r1, [r5, #12]
 8002ee6:	6853      	ldr	r3, [r2, #4]
 8002ee8:	f423 0380 	bic.w	r3, r3, #4194304	@ 0x400000
 8002eec:	430b      	orrs	r3, r1
 8002eee:	6053      	str	r3, [r2, #4]
 8002ef0:	e7bf      	b.n	8002e72 <HAL_RCCEx_PeriphCLKConfig+0x66>
 8002ef2:	bf00      	nop
 8002ef4:	40021000 	.word	0x40021000
 8002ef8:	40007000 	.word	0x40007000
 8002efc:	42420000 	.word	0x42420000

08002f00 <HAL_RCCEx_GetPeriphCLKFreq>:
 8002f00:	2802      	cmp	r0, #2
 8002f02:	b508      	push	{r3, lr}
 8002f04:	d044      	beq.n	8002f90 <HAL_RCCEx_GetPeriphCLKFreq+0x90>
 8002f06:	2810      	cmp	r0, #16
 8002f08:	d003      	beq.n	8002f12 <HAL_RCCEx_GetPeriphCLKFreq+0x12>
 8002f0a:	2801      	cmp	r0, #1
 8002f0c:	d022      	beq.n	8002f54 <HAL_RCCEx_GetPeriphCLKFreq+0x54>
 8002f0e:	2000      	movs	r0, #0
 8002f10:	e034      	b.n	8002f7c <HAL_RCCEx_GetPeriphCLKFreq+0x7c>
 8002f12:	4b25      	ldr	r3, [pc, #148]	@ (8002fa8 <HAL_RCCEx_GetPeriphCLKFreq+0xa8>)
 8002f14:	685a      	ldr	r2, [r3, #4]
 8002f16:	6818      	ldr	r0, [r3, #0]
 8002f18:	f010 7080 	ands.w	r0, r0, #16777216	@ 0x1000000
 8002f1c:	d02e      	beq.n	8002f7c <HAL_RCCEx_GetPeriphCLKFreq+0x7c>
 8002f1e:	f3c2 4183 	ubfx	r1, r2, #18, #4
 8002f22:	4822      	ldr	r0, [pc, #136]	@ (8002fac <HAL_RCCEx_GetPeriphCLKFreq+0xac>)
 8002f24:	03d2      	lsls	r2, r2, #15
 8002f26:	bf48      	it	mi
 8002f28:	685a      	ldrmi	r2, [r3, #4]
 8002f2a:	5c40      	ldrb	r0, [r0, r1]
 8002f2c:	bf41      	itttt	mi
 8002f2e:	4920      	ldrmi	r1, [pc, #128]	@ (8002fb0 <HAL_RCCEx_GetPeriphCLKFreq+0xb0>)
 8002f30:	f3c2 4240 	ubfxmi	r2, r2, #17, #1
 8002f34:	5c89      	ldrbmi	r1, [r1, r2]
 8002f36:	4a1f      	ldrmi	r2, [pc, #124]	@ (8002fb4 <HAL_RCCEx_GetPeriphCLKFreq+0xb4>)
 8002f38:	685b      	ldr	r3, [r3, #4]
 8002f3a:	bf4c      	ite	mi
 8002f3c:	fbb2 f2f1 	udivmi	r2, r2, r1
 8002f40:	4a1d      	ldrpl	r2, [pc, #116]	@ (8002fb8 <HAL_RCCEx_GetPeriphCLKFreq+0xb8>)
 8002f42:	025b      	lsls	r3, r3, #9
 8002f44:	fb02 f000 	mul.w	r0, r2, r0
 8002f48:	d418      	bmi.n	8002f7c <HAL_RCCEx_GetPeriphCLKFreq+0x7c>
 8002f4a:	2303      	movs	r3, #3
 8002f4c:	0040      	lsls	r0, r0, #1
 8002f4e:	fbb0 f0f3 	udiv	r0, r0, r3
 8002f52:	e013      	b.n	8002f7c <HAL_RCCEx_GetPeriphCLKFreq+0x7c>
 8002f54:	f240 3102 	movw	r1, #770	@ 0x302
 8002f58:	4a13      	ldr	r2, [pc, #76]	@ (8002fa8 <HAL_RCCEx_GetPeriphCLKFreq+0xa8>)
 8002f5a:	6a13      	ldr	r3, [r2, #32]
 8002f5c:	4019      	ands	r1, r3
 8002f5e:	f5b1 7f81 	cmp.w	r1, #258	@ 0x102
 8002f62:	d01e      	beq.n	8002fa2 <HAL_RCCEx_GetPeriphCLKFreq+0xa2>
 8002f64:	f403 7340 	and.w	r3, r3, #768	@ 0x300
 8002f68:	f5b3 7f00 	cmp.w	r3, #512	@ 0x200
 8002f6c:	d107      	bne.n	8002f7e <HAL_RCCEx_GetPeriphCLKFreq+0x7e>
 8002f6e:	f649 4040 	movw	r0, #40000	@ 0x9c40
 8002f72:	6a53      	ldr	r3, [r2, #36]	@ 0x24
 8002f74:	f013 0f02 	tst.w	r3, #2
 8002f78:	bf08      	it	eq
 8002f7a:	2000      	moveq	r0, #0
 8002f7c:	bd08      	pop	{r3, pc}
 8002f7e:	f5b3 7f40 	cmp.w	r3, #768	@ 0x300
 8002f82:	d1c4      	bne.n	8002f0e <HAL_RCCEx_GetPeriphCLKFreq+0xe>
 8002f84:	6813      	ldr	r3, [r2, #0]
 8002f86:	f24f 4024 	movw	r0, #62500	@ 0xf424
 8002f8a:	f413 3f00 	tst.w	r3, #131072	@ 0x20000
 8002f8e:	e7f3      	b.n	8002f78 <HAL_RCCEx_GetPeriphCLKFreq+0x78>
 8002f90:	f7ff ff1e 	bl	8002dd0 <HAL_RCC_GetPCLK2Freq>
 8002f94:	4b04      	ldr	r3, [pc, #16]	@ (8002fa8 <HAL_RCCEx_GetPeriphCLKFreq+0xa8>)
 8002f96:	685b      	ldr	r3, [r3, #4]
 8002f98:	f3c3 3381 	ubfx	r3, r3, #14, #2
 8002f9c:	3301      	adds	r3, #1
 8002f9e:	005b      	lsls	r3, r3, #1
 8002fa0:	e7d5      	b.n	8002f4e <HAL_RCCEx_GetPeriphCLKFreq+0x4e>
 8002fa2:	f44f 4000 	mov.w	r0, #32768	@ 0x8000
 8002fa6:	e7e9      	b.n	8002f7c <HAL_RCCEx_GetPeriphCLKFreq+0x7c>
 8002fa8:	40021000 	.word	0x40021000
 8002fac:	08006200 	.word	0x08006200
 8002fb0:	080061fe 	.word	0x080061fe
 8002fb4:	007a1200 	.word	0x007a1200
 8002fb8:	003d0900 	.word	0x003d0900

08002fbc <SPI_WaitFlagStateUntilTimeout>:
 8002fbc:	e92d 47f3 	stmdb	sp!, {r0, r1, r4, r5, r6, r7, r8, r9, sl, lr}
 8002fc0:	461f      	mov	r7, r3
 8002fc2:	4689      	mov	r9, r1
 8002fc4:	4690      	mov	r8, r2
 8002fc6:	4604      	mov	r4, r0
 8002fc8:	f7fe fef4 	bl	8001db4 <HAL_GetTick>
 8002fcc:	9d0a      	ldr	r5, [sp, #40]	@ 0x28
 8002fce:	443d      	add	r5, r7
 8002fd0:	1a2d      	subs	r5, r5, r0
 8002fd2:	f7fe feef 	bl	8001db4 <HAL_GetTick>
 8002fd6:	4682      	mov	sl, r0
 8002fd8:	4b25      	ldr	r3, [pc, #148]	@ (8003070 <SPI_WaitFlagStateUntilTimeout+0xb4>)
 8002fda:	681e      	ldr	r6, [r3, #0]
 8002fdc:	f3c6 36cb 	ubfx	r6, r6, #15, #12
 8002fe0:	436e      	muls	r6, r5
 8002fe2:	9601      	str	r6, [sp, #4]
 8002fe4:	6822      	ldr	r2, [r4, #0]
 8002fe6:	6893      	ldr	r3, [r2, #8]
 8002fe8:	ea39 0303 	bics.w	r3, r9, r3
 8002fec:	bf0c      	ite	eq
 8002fee:	2301      	moveq	r3, #1
 8002ff0:	2300      	movne	r3, #0
 8002ff2:	4543      	cmp	r3, r8
 8002ff4:	d101      	bne.n	8002ffa <SPI_WaitFlagStateUntilTimeout+0x3e>
 8002ff6:	2000      	movs	r0, #0
 8002ff8:	e02e      	b.n	8003058 <SPI_WaitFlagStateUntilTimeout+0x9c>
 8002ffa:	1c7b      	adds	r3, r7, #1
 8002ffc:	d0f3      	beq.n	8002fe6 <SPI_WaitFlagStateUntilTimeout+0x2a>
 8002ffe:	f7fe fed9 	bl	8001db4 <HAL_GetTick>
 8003002:	eba0 000a 	sub.w	r0, r0, sl
 8003006:	42a8      	cmp	r0, r5
 8003008:	d329      	bcc.n	800305e <SPI_WaitFlagStateUntilTimeout+0xa2>
 800300a:	6823      	ldr	r3, [r4, #0]
 800300c:	685a      	ldr	r2, [r3, #4]
 800300e:	f022 02e0 	bic.w	r2, r2, #224	@ 0xe0
 8003012:	605a      	str	r2, [r3, #4]
 8003014:	6862      	ldr	r2, [r4, #4]
 8003016:	f5b2 7f82 	cmp.w	r2, #260	@ 0x104
 800301a:	d10a      	bne.n	8003032 <SPI_WaitFlagStateUntilTimeout+0x76>
 800301c:	68a2      	ldr	r2, [r4, #8]
 800301e:	f5b2 4f00 	cmp.w	r2, #32768	@ 0x8000
 8003022:	d002      	beq.n	800302a <SPI_WaitFlagStateUntilTimeout+0x6e>
 8003024:	f5b2 6f80 	cmp.w	r2, #1024	@ 0x400
 8003028:	d103      	bne.n	8003032 <SPI_WaitFlagStateUntilTimeout+0x76>
 800302a:	681a      	ldr	r2, [r3, #0]
 800302c:	f022 0240 	bic.w	r2, r2, #64	@ 0x40
 8003030:	601a      	str	r2, [r3, #0]
 8003032:	6aa2      	ldr	r2, [r4, #40]	@ 0x28
 8003034:	f5b2 5f00 	cmp.w	r2, #8192	@ 0x2000
 8003038:	d107      	bne.n	800304a <SPI_WaitFlagStateUntilTimeout+0x8e>
 800303a:	681a      	ldr	r2, [r3, #0]
 800303c:	f422 5200 	bic.w	r2, r2, #8192	@ 0x2000
 8003040:	601a      	str	r2, [r3, #0]
 8003042:	681a      	ldr	r2, [r3, #0]
 8003044:	f442 5200 	orr.w	r2, r2, #8192	@ 0x2000
 8003048:	601a      	str	r2, [r3, #0]
 800304a:	2301      	movs	r3, #1
 800304c:	f884 3051 	strb.w	r3, [r4, #81]	@ 0x51
 8003050:	2300      	movs	r3, #0
 8003052:	2003      	movs	r0, #3
 8003054:	f884 3050 	strb.w	r3, [r4, #80]	@ 0x50
 8003058:	b002      	add	sp, #8
 800305a:	e8bd 87f0 	ldmia.w	sp!, {r4, r5, r6, r7, r8, r9, sl, pc}
 800305e:	9a01      	ldr	r2, [sp, #4]
 8003060:	9b01      	ldr	r3, [sp, #4]
 8003062:	2a00      	cmp	r2, #0
 8003064:	f103 33ff 	add.w	r3, r3, #4294967295	@ 0xffffffff
 8003068:	bf08      	it	eq
 800306a:	4615      	moveq	r5, r2
 800306c:	9301      	str	r3, [sp, #4]
 800306e:	e7b9      	b.n	8002fe4 <SPI_WaitFlagStateUntilTimeout+0x28>
 8003070:	20000000 	.word	0x20000000

08003074 <SPI_EndRxTxTransaction>:
 8003074:	b573      	push	{r0, r1, r4, r5, r6, lr}
 8003076:	460b      	mov	r3, r1
 8003078:	9200      	str	r2, [sp, #0]
 800307a:	460d      	mov	r5, r1
 800307c:	4616      	mov	r6, r2
 800307e:	2102      	movs	r1, #2
 8003080:	2201      	movs	r2, #1
 8003082:	4604      	mov	r4, r0
 8003084:	f7ff ff9a 	bl	8002fbc <SPI_WaitFlagStateUntilTimeout>
 8003088:	4602      	mov	r2, r0
 800308a:	b128      	cbz	r0, 8003098 <SPI_EndRxTxTransaction+0x24>
 800308c:	6d63      	ldr	r3, [r4, #84]	@ 0x54
 800308e:	2003      	movs	r0, #3
 8003090:	f043 0320 	orr.w	r3, r3, #32
 8003094:	6563      	str	r3, [r4, #84]	@ 0x54
 8003096:	e007      	b.n	80030a8 <SPI_EndRxTxTransaction+0x34>
 8003098:	462b      	mov	r3, r5
 800309a:	2180      	movs	r1, #128	@ 0x80
 800309c:	4620      	mov	r0, r4
 800309e:	9600      	str	r6, [sp, #0]
 80030a0:	f7ff ff8c 	bl	8002fbc <SPI_WaitFlagStateUntilTimeout>
 80030a4:	2800      	cmp	r0, #0
 80030a6:	d1f1      	bne.n	800308c <SPI_EndRxTxTransaction+0x18>
 80030a8:	b002      	add	sp, #8
 80030aa:	bd70      	pop	{r4, r5, r6, pc}

080030ac <HAL_SPI_Init>:
 80030ac:	b510      	push	{r4, lr}
 80030ae:	4604      	mov	r4, r0
 80030b0:	2800      	cmp	r0, #0
 80030b2:	d051      	beq.n	8003158 <HAL_SPI_Init+0xac>
 80030b4:	6a43      	ldr	r3, [r0, #36]	@ 0x24
 80030b6:	2b00      	cmp	r3, #0
 80030b8:	d14a      	bne.n	8003150 <HAL_SPI_Init+0xa4>
 80030ba:	6842      	ldr	r2, [r0, #4]
 80030bc:	f5b2 7f82 	cmp.w	r2, #260	@ 0x104
 80030c0:	d000      	beq.n	80030c4 <HAL_SPI_Init+0x18>
 80030c2:	61c3      	str	r3, [r0, #28]
 80030c4:	2300      	movs	r3, #0
 80030c6:	62a3      	str	r3, [r4, #40]	@ 0x28
 80030c8:	f894 3051 	ldrb.w	r3, [r4, #81]	@ 0x51
 80030cc:	f003 02ff 	and.w	r2, r3, #255	@ 0xff
 80030d0:	b923      	cbnz	r3, 80030dc <HAL_SPI_Init+0x30>
 80030d2:	4620      	mov	r0, r4
 80030d4:	f884 2050 	strb.w	r2, [r4, #80]	@ 0x50
 80030d8:	f7fe fd2c 	bl	8001b34 <HAL_SPI_MspInit>
 80030dc:	2302      	movs	r3, #2
 80030de:	6822      	ldr	r2, [r4, #0]
 80030e0:	f884 3051 	strb.w	r3, [r4, #81]	@ 0x51
 80030e4:	6813      	ldr	r3, [r2, #0]
 80030e6:	68a0      	ldr	r0, [r4, #8]
 80030e8:	f023 0340 	bic.w	r3, r3, #64	@ 0x40
 80030ec:	6013      	str	r3, [r2, #0]
 80030ee:	6863      	ldr	r3, [r4, #4]
 80030f0:	f400 4004 	and.w	r0, r0, #33792	@ 0x8400
 80030f4:	f403 7382 	and.w	r3, r3, #260	@ 0x104
 80030f8:	4303      	orrs	r3, r0
 80030fa:	68e0      	ldr	r0, [r4, #12]
 80030fc:	69a1      	ldr	r1, [r4, #24]
 80030fe:	f400 6000 	and.w	r0, r0, #2048	@ 0x800
 8003102:	4303      	orrs	r3, r0
 8003104:	6920      	ldr	r0, [r4, #16]
 8003106:	f000 0002 	and.w	r0, r0, #2
 800310a:	4303      	orrs	r3, r0
 800310c:	6960      	ldr	r0, [r4, #20]
 800310e:	f000 0001 	and.w	r0, r0, #1
 8003112:	4303      	orrs	r3, r0
 8003114:	f401 7000 	and.w	r0, r1, #512	@ 0x200
 8003118:	4303      	orrs	r3, r0
 800311a:	69e0      	ldr	r0, [r4, #28]
 800311c:	0c09      	lsrs	r1, r1, #16
 800311e:	f000 0038 	and.w	r0, r0, #56	@ 0x38
 8003122:	4303      	orrs	r3, r0
 8003124:	6a20      	ldr	r0, [r4, #32]
 8003126:	f001 0104 	and.w	r1, r1, #4
 800312a:	f000 0080 	and.w	r0, r0, #128	@ 0x80
 800312e:	4303      	orrs	r3, r0
 8003130:	6aa0      	ldr	r0, [r4, #40]	@ 0x28
 8003132:	f400 5000 	and.w	r0, r0, #8192	@ 0x2000
 8003136:	4303      	orrs	r3, r0
 8003138:	6013      	str	r3, [r2, #0]
 800313a:	6051      	str	r1, [r2, #4]
 800313c:	69d3      	ldr	r3, [r2, #28]
 800313e:	2000      	movs	r0, #0
 8003140:	f423 6300 	bic.w	r3, r3, #2048	@ 0x800
 8003144:	61d3      	str	r3, [r2, #28]
 8003146:	2301      	movs	r3, #1
 8003148:	6560      	str	r0, [r4, #84]	@ 0x54
 800314a:	f884 3051 	strb.w	r3, [r4, #81]	@ 0x51
 800314e:	bd10      	pop	{r4, pc}
 8003150:	2300      	movs	r3, #0
 8003152:	e9c0 3304 	strd	r3, r3, [r0, #16]
 8003156:	e7b5      	b.n	80030c4 <HAL_SPI_Init+0x18>
 8003158:	2001      	movs	r0, #1
 800315a:	e7f8      	b.n	800314e <HAL_SPI_Init+0xa2>

0800315c <HAL_SPI_Transmit>:
 800315c:	e92d 43f7 	stmdb	sp!, {r0, r1, r2, r4, r5, r6, r7, r8, r9, lr}
 8003160:	4604      	mov	r4, r0
 8003162:	461f      	mov	r7, r3
 8003164:	460d      	mov	r5, r1
 8003166:	4690      	mov	r8, r2
 8003168:	f7fe fe24 	bl	8001db4 <HAL_GetTick>
 800316c:	f894 3051 	ldrb.w	r3, [r4, #81]	@ 0x51
 8003170:	4681      	mov	r9, r0
 8003172:	2b01      	cmp	r3, #1
 8003174:	b2d8      	uxtb	r0, r3
 8003176:	f040 809f 	bne.w	80032b8 <HAL_SPI_Transmit+0x15c>
 800317a:	2d00      	cmp	r5, #0
 800317c:	d074      	beq.n	8003268 <HAL_SPI_Transmit+0x10c>
 800317e:	f1b8 0f00 	cmp.w	r8, #0
 8003182:	d071      	beq.n	8003268 <HAL_SPI_Transmit+0x10c>
 8003184:	f894 3050 	ldrb.w	r3, [r4, #80]	@ 0x50
 8003188:	2b01      	cmp	r3, #1
 800318a:	f000 8095 	beq.w	80032b8 <HAL_SPI_Transmit+0x15c>
 800318e:	2303      	movs	r3, #3
 8003190:	f884 3051 	strb.w	r3, [r4, #81]	@ 0x51
 8003194:	2300      	movs	r3, #0
 8003196:	6563      	str	r3, [r4, #84]	@ 0x54
 8003198:	e9c4 3310 	strd	r3, r3, [r4, #64]	@ 0x40
 800319c:	f8a4 8036 	strh.w	r8, [r4, #54]	@ 0x36
 80031a0:	63a3      	str	r3, [r4, #56]	@ 0x38
 80031a2:	87a3      	strh	r3, [r4, #60]	@ 0x3c
 80031a4:	87e3      	strh	r3, [r4, #62]	@ 0x3e
 80031a6:	68a3      	ldr	r3, [r4, #8]
 80031a8:	6826      	ldr	r6, [r4, #0]
 80031aa:	f5b3 4f00 	cmp.w	r3, #32768	@ 0x8000
 80031ae:	f884 0050 	strb.w	r0, [r4, #80]	@ 0x50
 80031b2:	6325      	str	r5, [r4, #48]	@ 0x30
 80031b4:	f8a4 8034 	strh.w	r8, [r4, #52]	@ 0x34
 80031b8:	d107      	bne.n	80031ca <HAL_SPI_Transmit+0x6e>
 80031ba:	6833      	ldr	r3, [r6, #0]
 80031bc:	f023 0340 	bic.w	r3, r3, #64	@ 0x40
 80031c0:	6033      	str	r3, [r6, #0]
 80031c2:	6833      	ldr	r3, [r6, #0]
 80031c4:	f443 4380 	orr.w	r3, r3, #16384	@ 0x4000
 80031c8:	6033      	str	r3, [r6, #0]
 80031ca:	6833      	ldr	r3, [r6, #0]
 80031cc:	68e2      	ldr	r2, [r4, #12]
 80031ce:	065b      	lsls	r3, r3, #25
 80031d0:	bf5e      	ittt	pl
 80031d2:	6833      	ldrpl	r3, [r6, #0]
 80031d4:	f043 0340 	orrpl.w	r3, r3, #64	@ 0x40
 80031d8:	6033      	strpl	r3, [r6, #0]
 80031da:	f5b2 6f00 	cmp.w	r2, #2048	@ 0x800
 80031de:	6863      	ldr	r3, [r4, #4]
 80031e0:	d145      	bne.n	800326e <HAL_SPI_Transmit+0x112>
 80031e2:	b113      	cbz	r3, 80031ea <HAL_SPI_Transmit+0x8e>
 80031e4:	f1b8 0f01 	cmp.w	r8, #1
 80031e8:	d107      	bne.n	80031fa <HAL_SPI_Transmit+0x9e>
 80031ea:	f835 3b02 	ldrh.w	r3, [r5], #2
 80031ee:	60f3      	str	r3, [r6, #12]
 80031f0:	6325      	str	r5, [r4, #48]	@ 0x30
 80031f2:	8ee3      	ldrh	r3, [r4, #54]	@ 0x36
 80031f4:	3b01      	subs	r3, #1
 80031f6:	b29b      	uxth	r3, r3
 80031f8:	86e3      	strh	r3, [r4, #54]	@ 0x36
 80031fa:	8ee3      	ldrh	r3, [r4, #54]	@ 0x36
 80031fc:	b29b      	uxth	r3, r3
 80031fe:	b9d3      	cbnz	r3, 8003236 <HAL_SPI_Transmit+0xda>
 8003200:	464a      	mov	r2, r9
 8003202:	4639      	mov	r1, r7
 8003204:	4620      	mov	r0, r4
 8003206:	f7ff ff35 	bl	8003074 <SPI_EndRxTxTransaction>
 800320a:	2800      	cmp	r0, #0
 800320c:	d151      	bne.n	80032b2 <HAL_SPI_Transmit+0x156>
 800320e:	68a3      	ldr	r3, [r4, #8]
 8003210:	b933      	cbnz	r3, 8003220 <HAL_SPI_Transmit+0xc4>
 8003212:	9301      	str	r3, [sp, #4]
 8003214:	6823      	ldr	r3, [r4, #0]
 8003216:	68da      	ldr	r2, [r3, #12]
 8003218:	9201      	str	r2, [sp, #4]
 800321a:	689b      	ldr	r3, [r3, #8]
 800321c:	9301      	str	r3, [sp, #4]
 800321e:	9b01      	ldr	r3, [sp, #4]
 8003220:	2301      	movs	r3, #1
 8003222:	f884 3051 	strb.w	r3, [r4, #81]	@ 0x51
 8003226:	2300      	movs	r3, #0
 8003228:	6d60      	ldr	r0, [r4, #84]	@ 0x54
 800322a:	f884 3050 	strb.w	r3, [r4, #80]	@ 0x50
 800322e:	1ac0      	subs	r0, r0, r3
 8003230:	bf18      	it	ne
 8003232:	2001      	movne	r0, #1
 8003234:	e018      	b.n	8003268 <HAL_SPI_Transmit+0x10c>
 8003236:	6822      	ldr	r2, [r4, #0]
 8003238:	6893      	ldr	r3, [r2, #8]
 800323a:	0798      	lsls	r0, r3, #30
 800323c:	d505      	bpl.n	800324a <HAL_SPI_Transmit+0xee>
 800323e:	6b23      	ldr	r3, [r4, #48]	@ 0x30
 8003240:	f833 1b02 	ldrh.w	r1, [r3], #2
 8003244:	60d1      	str	r1, [r2, #12]
 8003246:	6323      	str	r3, [r4, #48]	@ 0x30
 8003248:	e7d3      	b.n	80031f2 <HAL_SPI_Transmit+0x96>
 800324a:	f7fe fdb3 	bl	8001db4 <HAL_GetTick>
 800324e:	eba0 0009 	sub.w	r0, r0, r9
 8003252:	42b8      	cmp	r0, r7
 8003254:	d3d1      	bcc.n	80031fa <HAL_SPI_Transmit+0x9e>
 8003256:	1c79      	adds	r1, r7, #1
 8003258:	d0cf      	beq.n	80031fa <HAL_SPI_Transmit+0x9e>
 800325a:	2301      	movs	r3, #1
 800325c:	f884 3051 	strb.w	r3, [r4, #81]	@ 0x51
 8003260:	2300      	movs	r3, #0
 8003262:	2003      	movs	r0, #3
 8003264:	f884 3050 	strb.w	r3, [r4, #80]	@ 0x50
 8003268:	b003      	add	sp, #12
 800326a:	e8bd 83f0 	ldmia.w	sp!, {r4, r5, r6, r7, r8, r9, pc}
 800326e:	b113      	cbz	r3, 8003276 <HAL_SPI_Transmit+0x11a>
 8003270:	f1b8 0f01 	cmp.w	r8, #1
 8003274:	d108      	bne.n	8003288 <HAL_SPI_Transmit+0x12c>
 8003276:	782b      	ldrb	r3, [r5, #0]
 8003278:	7333      	strb	r3, [r6, #12]
 800327a:	6b23      	ldr	r3, [r4, #48]	@ 0x30
 800327c:	3301      	adds	r3, #1
 800327e:	6323      	str	r3, [r4, #48]	@ 0x30
 8003280:	8ee3      	ldrh	r3, [r4, #54]	@ 0x36
 8003282:	3b01      	subs	r3, #1
 8003284:	b29b      	uxth	r3, r3
 8003286:	86e3      	strh	r3, [r4, #54]	@ 0x36
 8003288:	8ee3      	ldrh	r3, [r4, #54]	@ 0x36
 800328a:	b29b      	uxth	r3, r3
 800328c:	2b00      	cmp	r3, #0
 800328e:	d0b7      	beq.n	8003200 <HAL_SPI_Transmit+0xa4>
 8003290:	6823      	ldr	r3, [r4, #0]
 8003292:	689a      	ldr	r2, [r3, #8]
 8003294:	0792      	lsls	r2, r2, #30
 8003296:	d503      	bpl.n	80032a0 <HAL_SPI_Transmit+0x144>
 8003298:	6b22      	ldr	r2, [r4, #48]	@ 0x30
 800329a:	7812      	ldrb	r2, [r2, #0]
 800329c:	731a      	strb	r2, [r3, #12]
 800329e:	e7ec      	b.n	800327a <HAL_SPI_Transmit+0x11e>
 80032a0:	f7fe fd88 	bl	8001db4 <HAL_GetTick>
 80032a4:	eba0 0009 	sub.w	r0, r0, r9
 80032a8:	42b8      	cmp	r0, r7
 80032aa:	d3ed      	bcc.n	8003288 <HAL_SPI_Transmit+0x12c>
 80032ac:	1c7b      	adds	r3, r7, #1
 80032ae:	d0eb      	beq.n	8003288 <HAL_SPI_Transmit+0x12c>
 80032b0:	e7d3      	b.n	800325a <HAL_SPI_Transmit+0xfe>
 80032b2:	2320      	movs	r3, #32
 80032b4:	6563      	str	r3, [r4, #84]	@ 0x54
 80032b6:	e7aa      	b.n	800320e <HAL_SPI_Transmit+0xb2>
 80032b8:	2002      	movs	r0, #2
 80032ba:	e7d5      	b.n	8003268 <HAL_SPI_Transmit+0x10c>

080032bc <TIM_Base_SetConfig>:
 80032bc:	4a17      	ldr	r2, [pc, #92]	@ (800331c <TIM_Base_SetConfig+0x60>)
 80032be:	6803      	ldr	r3, [r0, #0]
 80032c0:	4290      	cmp	r0, r2
 80032c2:	d00a      	beq.n	80032da <TIM_Base_SetConfig+0x1e>
 80032c4:	f1b0 4f80 	cmp.w	r0, #1073741824	@ 0x40000000
 80032c8:	d007      	beq.n	80032da <TIM_Base_SetConfig+0x1e>
 80032ca:	f5a2 3294 	sub.w	r2, r2, #75776	@ 0x12800
 80032ce:	4290      	cmp	r0, r2
 80032d0:	d003      	beq.n	80032da <TIM_Base_SetConfig+0x1e>
 80032d2:	f502 6280 	add.w	r2, r2, #1024	@ 0x400
 80032d6:	4290      	cmp	r0, r2
 80032d8:	d107      	bne.n	80032ea <TIM_Base_SetConfig+0x2e>
 80032da:	684a      	ldr	r2, [r1, #4]
 80032dc:	f023 0370 	bic.w	r3, r3, #112	@ 0x70
 80032e0:	4313      	orrs	r3, r2
 80032e2:	68ca      	ldr	r2, [r1, #12]
 80032e4:	f423 7340 	bic.w	r3, r3, #768	@ 0x300
 80032e8:	4313      	orrs	r3, r2
 80032ea:	694a      	ldr	r2, [r1, #20]
 80032ec:	f023 0380 	bic.w	r3, r3, #128	@ 0x80
 80032f0:	4313      	orrs	r3, r2
 80032f2:	6003      	str	r3, [r0, #0]
 80032f4:	688b      	ldr	r3, [r1, #8]
 80032f6:	62c3      	str	r3, [r0, #44]	@ 0x2c
 80032f8:	680b      	ldr	r3, [r1, #0]
 80032fa:	6283      	str	r3, [r0, #40]	@ 0x28
 80032fc:	4b07      	ldr	r3, [pc, #28]	@ (800331c <TIM_Base_SetConfig+0x60>)
 80032fe:	4298      	cmp	r0, r3
 8003300:	bf04      	itt	eq
 8003302:	690b      	ldreq	r3, [r1, #16]
 8003304:	6303      	streq	r3, [r0, #48]	@ 0x30
 8003306:	2301      	movs	r3, #1
 8003308:	6143      	str	r3, [r0, #20]
 800330a:	6903      	ldr	r3, [r0, #16]
 800330c:	07db      	lsls	r3, r3, #31
 800330e:	bf42      	ittt	mi
 8003310:	6903      	ldrmi	r3, [r0, #16]
 8003312:	f023 0301 	bicmi.w	r3, r3, #1
 8003316:	6103      	strmi	r3, [r0, #16]
 8003318:	4770      	bx	lr
 800331a:	bf00      	nop
 800331c:	40012c00 	.word	0x40012c00

08003320 <HAL_TIM_Base_Init>:
 8003320:	b510      	push	{r4, lr}
 8003322:	4604      	mov	r4, r0
 8003324:	b330      	cbz	r0, 8003374 <HAL_TIM_Base_Init+0x54>
 8003326:	f890 303d 	ldrb.w	r3, [r0, #61]	@ 0x3d
 800332a:	f003 02ff 	and.w	r2, r3, #255	@ 0xff
 800332e:	b91b      	cbnz	r3, 8003338 <HAL_TIM_Base_Init+0x18>
 8003330:	f880 203c 	strb.w	r2, [r0, #60]	@ 0x3c
 8003334:	f7fe fc2e 	bl	8001b94 <HAL_TIM_Base_MspInit>
 8003338:	2302      	movs	r3, #2
 800333a:	6820      	ldr	r0, [r4, #0]
 800333c:	f884 303d 	strb.w	r3, [r4, #61]	@ 0x3d
 8003340:	1d21      	adds	r1, r4, #4
 8003342:	f7ff ffbb 	bl	80032bc <TIM_Base_SetConfig>
 8003346:	2301      	movs	r3, #1
 8003348:	2000      	movs	r0, #0
 800334a:	f884 3046 	strb.w	r3, [r4, #70]	@ 0x46
 800334e:	f884 303e 	strb.w	r3, [r4, #62]	@ 0x3e
 8003352:	f884 303f 	strb.w	r3, [r4, #63]	@ 0x3f
 8003356:	f884 3040 	strb.w	r3, [r4, #64]	@ 0x40
 800335a:	f884 3041 	strb.w	r3, [r4, #65]	@ 0x41
 800335e:	f884 3042 	strb.w	r3, [r4, #66]	@ 0x42
 8003362:	f884 3043 	strb.w	r3, [r4, #67]	@ 0x43
 8003366:	f884 3044 	strb.w	r3, [r4, #68]	@ 0x44
 800336a:	f884 3045 	strb.w	r3, [r4, #69]	@ 0x45
 800336e:	f884 303d 	strb.w	r3, [r4, #61]	@ 0x3d
 8003372:	bd10      	pop	{r4, pc}
 8003374:	2001      	movs	r0, #1
 8003376:	e7fc      	b.n	8003372 <HAL_TIM_Base_Init+0x52>

08003378 <TIM_ETR_SetConfig>:
 8003378:	b510      	push	{r4, lr}
 800337a:	6884      	ldr	r4, [r0, #8]
 800337c:	430a      	orrs	r2, r1
 800337e:	f424 447f 	bic.w	r4, r4, #65280	@ 0xff00
 8003382:	ea42 2203 	orr.w	r2, r2, r3, lsl #8
 8003386:	4322      	orrs	r2, r4
 8003388:	6082      	str	r2, [r0, #8]
 800338a:	bd10      	pop	{r4, pc}

0800338c <HAL_TIM_ConfigClockSource>:
 800338c:	b538      	push	{r3, r4, r5, lr}
 800338e:	f890 303c 	ldrb.w	r3, [r0, #60]	@ 0x3c
 8003392:	4604      	mov	r4, r0
 8003394:	2b01      	cmp	r3, #1
 8003396:	f04f 0002 	mov.w	r0, #2
 800339a:	f000 808e 	beq.w	80034ba <HAL_TIM_ConfigClockSource+0x12e>
 800339e:	2201      	movs	r2, #1
 80033a0:	f884 003d 	strb.w	r0, [r4, #61]	@ 0x3d
 80033a4:	6820      	ldr	r0, [r4, #0]
 80033a6:	f884 203c 	strb.w	r2, [r4, #60]	@ 0x3c
 80033aa:	6883      	ldr	r3, [r0, #8]
 80033ac:	f423 437f 	bic.w	r3, r3, #65280	@ 0xff00
 80033b0:	f023 0377 	bic.w	r3, r3, #119	@ 0x77
 80033b4:	6083      	str	r3, [r0, #8]
 80033b6:	680b      	ldr	r3, [r1, #0]
 80033b8:	2b60      	cmp	r3, #96	@ 0x60
 80033ba:	d04f      	beq.n	800345c <HAL_TIM_ConfigClockSource+0xd0>
 80033bc:	d832      	bhi.n	8003424 <HAL_TIM_ConfigClockSource+0x98>
 80033be:	2b40      	cmp	r3, #64	@ 0x40
 80033c0:	d064      	beq.n	800348c <HAL_TIM_ConfigClockSource+0x100>
 80033c2:	d816      	bhi.n	80033f2 <HAL_TIM_ConfigClockSource+0x66>
 80033c4:	2b20      	cmp	r3, #32
 80033c6:	d00d      	beq.n	80033e4 <HAL_TIM_ConfigClockSource+0x58>
 80033c8:	d80a      	bhi.n	80033e0 <HAL_TIM_ConfigClockSource+0x54>
 80033ca:	f033 0110 	bics.w	r1, r3, #16
 80033ce:	d009      	beq.n	80033e4 <HAL_TIM_ConfigClockSource+0x58>
 80033d0:	2301      	movs	r3, #1
 80033d2:	f884 303d 	strb.w	r3, [r4, #61]	@ 0x3d
 80033d6:	2300      	movs	r3, #0
 80033d8:	f884 303c 	strb.w	r3, [r4, #60]	@ 0x3c
 80033dc:	4610      	mov	r0, r2
 80033de:	bd38      	pop	{r3, r4, r5, pc}
 80033e0:	2b30      	cmp	r3, #48	@ 0x30
 80033e2:	d1f5      	bne.n	80033d0 <HAL_TIM_ConfigClockSource+0x44>
 80033e4:	6882      	ldr	r2, [r0, #8]
 80033e6:	f022 0270 	bic.w	r2, r2, #112	@ 0x70
 80033ea:	4313      	orrs	r3, r2
 80033ec:	f043 0307 	orr.w	r3, r3, #7
 80033f0:	e028      	b.n	8003444 <HAL_TIM_ConfigClockSource+0xb8>
 80033f2:	2b50      	cmp	r3, #80	@ 0x50
 80033f4:	d1ec      	bne.n	80033d0 <HAL_TIM_ConfigClockSource+0x44>
 80033f6:	684a      	ldr	r2, [r1, #4]
 80033f8:	68cd      	ldr	r5, [r1, #12]
 80033fa:	6a01      	ldr	r1, [r0, #32]
 80033fc:	6a03      	ldr	r3, [r0, #32]
 80033fe:	f021 010a 	bic.w	r1, r1, #10
 8003402:	f023 0301 	bic.w	r3, r3, #1
 8003406:	6203      	str	r3, [r0, #32]
 8003408:	6983      	ldr	r3, [r0, #24]
 800340a:	430a      	orrs	r2, r1
 800340c:	f023 03f0 	bic.w	r3, r3, #240	@ 0xf0
 8003410:	ea43 1305 	orr.w	r3, r3, r5, lsl #4
 8003414:	6183      	str	r3, [r0, #24]
 8003416:	6202      	str	r2, [r0, #32]
 8003418:	6883      	ldr	r3, [r0, #8]
 800341a:	f023 0370 	bic.w	r3, r3, #112	@ 0x70
 800341e:	f043 0357 	orr.w	r3, r3, #87	@ 0x57
 8003422:	e00f      	b.n	8003444 <HAL_TIM_ConfigClockSource+0xb8>
 8003424:	f5b3 5f80 	cmp.w	r3, #4096	@ 0x1000
 8003428:	d00d      	beq.n	8003446 <HAL_TIM_ConfigClockSource+0xba>
 800342a:	f5b3 5f00 	cmp.w	r3, #8192	@ 0x2000
 800342e:	d00c      	beq.n	800344a <HAL_TIM_ConfigClockSource+0xbe>
 8003430:	2b70      	cmp	r3, #112	@ 0x70
 8003432:	d1cd      	bne.n	80033d0 <HAL_TIM_ConfigClockSource+0x44>
 8003434:	68cb      	ldr	r3, [r1, #12]
 8003436:	e9d1 2101 	ldrd	r2, r1, [r1, #4]
 800343a:	f7ff ff9d 	bl	8003378 <TIM_ETR_SetConfig>
 800343e:	6883      	ldr	r3, [r0, #8]
 8003440:	f043 0377 	orr.w	r3, r3, #119	@ 0x77
 8003444:	6083      	str	r3, [r0, #8]
 8003446:	2200      	movs	r2, #0
 8003448:	e7c2      	b.n	80033d0 <HAL_TIM_ConfigClockSource+0x44>
 800344a:	68cb      	ldr	r3, [r1, #12]
 800344c:	e9d1 2101 	ldrd	r2, r1, [r1, #4]
 8003450:	f7ff ff92 	bl	8003378 <TIM_ETR_SetConfig>
 8003454:	6883      	ldr	r3, [r0, #8]
 8003456:	f443 4380 	orr.w	r3, r3, #16384	@ 0x4000
 800345a:	e7f3      	b.n	8003444 <HAL_TIM_ConfigClockSource+0xb8>
 800345c:	6a03      	ldr	r3, [r0, #32]
 800345e:	6a02      	ldr	r2, [r0, #32]
 8003460:	684d      	ldr	r5, [r1, #4]
 8003462:	f022 0210 	bic.w	r2, r2, #16
 8003466:	68c9      	ldr	r1, [r1, #12]
 8003468:	6202      	str	r2, [r0, #32]
 800346a:	6982      	ldr	r2, [r0, #24]
 800346c:	f023 03a0 	bic.w	r3, r3, #160	@ 0xa0
 8003470:	f422 4270 	bic.w	r2, r2, #61440	@ 0xf000
 8003474:	ea43 1305 	orr.w	r3, r3, r5, lsl #4
 8003478:	ea42 3201 	orr.w	r2, r2, r1, lsl #12
 800347c:	6182      	str	r2, [r0, #24]
 800347e:	6203      	str	r3, [r0, #32]
 8003480:	6883      	ldr	r3, [r0, #8]
 8003482:	f023 0370 	bic.w	r3, r3, #112	@ 0x70
 8003486:	f043 0367 	orr.w	r3, r3, #103	@ 0x67
 800348a:	e7db      	b.n	8003444 <HAL_TIM_ConfigClockSource+0xb8>
 800348c:	684a      	ldr	r2, [r1, #4]
 800348e:	68cd      	ldr	r5, [r1, #12]
 8003490:	6a01      	ldr	r1, [r0, #32]
 8003492:	6a03      	ldr	r3, [r0, #32]
 8003494:	f021 010a 	bic.w	r1, r1, #10
 8003498:	f023 0301 	bic.w	r3, r3, #1
 800349c:	6203      	str	r3, [r0, #32]
 800349e:	6983      	ldr	r3, [r0, #24]
 80034a0:	430a      	orrs	r2, r1
 80034a2:	f023 03f0 	bic.w	r3, r3, #240	@ 0xf0
 80034a6:	ea43 1305 	orr.w	r3, r3, r5, lsl #4
 80034aa:	6183      	str	r3, [r0, #24]
 80034ac:	6202      	str	r2, [r0, #32]
 80034ae:	6883      	ldr	r3, [r0, #8]
 80034b0:	f023 0370 	bic.w	r3, r3, #112	@ 0x70
 80034b4:	f043 0347 	orr.w	r3, r3, #71	@ 0x47
 80034b8:	e7c4      	b.n	8003444 <HAL_TIM_ConfigClockSource+0xb8>
 80034ba:	4602      	mov	r2, r0
 80034bc:	e78e      	b.n	80033dc <HAL_TIM_ConfigClockSource+0x50>
	...

080034c0 <HAL_TIMEx_MasterConfigSynchronization>:
 80034c0:	b530      	push	{r4, r5, lr}
 80034c2:	f890 303c 	ldrb.w	r3, [r0, #60]	@ 0x3c
 80034c6:	4602      	mov	r2, r0
 80034c8:	2b01      	cmp	r3, #1
 80034ca:	f04f 0002 	mov.w	r0, #2
 80034ce:	d022      	beq.n	8003516 <HAL_TIMEx_MasterConfigSynchronization+0x56>
 80034d0:	6813      	ldr	r3, [r2, #0]
 80034d2:	f882 003d 	strb.w	r0, [r2, #61]	@ 0x3d
 80034d6:	685c      	ldr	r4, [r3, #4]
 80034d8:	680d      	ldr	r5, [r1, #0]
 80034da:	f024 0470 	bic.w	r4, r4, #112	@ 0x70
 80034de:	432c      	orrs	r4, r5
 80034e0:	6898      	ldr	r0, [r3, #8]
 80034e2:	605c      	str	r4, [r3, #4]
 80034e4:	4c0c      	ldr	r4, [pc, #48]	@ (8003518 <HAL_TIMEx_MasterConfigSynchronization+0x58>)
 80034e6:	42a3      	cmp	r3, r4
 80034e8:	d00a      	beq.n	8003500 <HAL_TIMEx_MasterConfigSynchronization+0x40>
 80034ea:	f1b3 4f80 	cmp.w	r3, #1073741824	@ 0x40000000
 80034ee:	d007      	beq.n	8003500 <HAL_TIMEx_MasterConfigSynchronization+0x40>
 80034f0:	f5a4 3494 	sub.w	r4, r4, #75776	@ 0x12800
 80034f4:	42a3      	cmp	r3, r4
 80034f6:	d003      	beq.n	8003500 <HAL_TIMEx_MasterConfigSynchronization+0x40>
 80034f8:	f504 6480 	add.w	r4, r4, #1024	@ 0x400
 80034fc:	42a3      	cmp	r3, r4
 80034fe:	d104      	bne.n	800350a <HAL_TIMEx_MasterConfigSynchronization+0x4a>
 8003500:	6849      	ldr	r1, [r1, #4]
 8003502:	f020 0080 	bic.w	r0, r0, #128	@ 0x80
 8003506:	4301      	orrs	r1, r0
 8003508:	6099      	str	r1, [r3, #8]
 800350a:	2301      	movs	r3, #1
 800350c:	2000      	movs	r0, #0
 800350e:	f882 303d 	strb.w	r3, [r2, #61]	@ 0x3d
 8003512:	f882 003c 	strb.w	r0, [r2, #60]	@ 0x3c
 8003516:	bd30      	pop	{r4, r5, pc}
 8003518:	40012c00 	.word	0x40012c00

0800351c <UART_EndRxTransfer>:
 800351c:	6802      	ldr	r2, [r0, #0]
 800351e:	f102 030c 	add.w	r3, r2, #12
 8003522:	e853 3f00 	ldrex	r3, [r3]
 8003526:	f423 7390 	bic.w	r3, r3, #288	@ 0x120
 800352a:	320c      	adds	r2, #12
 800352c:	e842 3100 	strex	r1, r3, [r2]
 8003530:	6802      	ldr	r2, [r0, #0]
 8003532:	2900      	cmp	r1, #0
 8003534:	d1f2      	bne.n	800351c <UART_EndRxTransfer>
 8003536:	f102 0314 	add.w	r3, r2, #20
 800353a:	e853 3f00 	ldrex	r3, [r3]
 800353e:	f023 0301 	bic.w	r3, r3, #1
 8003542:	f102 0c14 	add.w	ip, r2, #20
 8003546:	e84c 3100 	strex	r1, r3, [ip]
 800354a:	2900      	cmp	r1, #0
 800354c:	d1f3      	bne.n	8003536 <UART_EndRxTransfer+0x1a>
 800354e:	6b03      	ldr	r3, [r0, #48]	@ 0x30
 8003550:	2b01      	cmp	r3, #1
 8003552:	d10b      	bne.n	800356c <UART_EndRxTransfer+0x50>
 8003554:	f102 030c 	add.w	r3, r2, #12
 8003558:	e853 3f00 	ldrex	r3, [r3]
 800355c:	f023 0310 	bic.w	r3, r3, #16
 8003560:	f102 0c0c 	add.w	ip, r2, #12
 8003564:	e84c 3100 	strex	r1, r3, [ip]
 8003568:	2900      	cmp	r1, #0
 800356a:	d1f3      	bne.n	8003554 <UART_EndRxTransfer+0x38>
 800356c:	2320      	movs	r3, #32
 800356e:	f880 3042 	strb.w	r3, [r0, #66]	@ 0x42
 8003572:	2300      	movs	r3, #0
 8003574:	6303      	str	r3, [r0, #48]	@ 0x30
 8003576:	4770      	bx	lr

08003578 <UART_SetConfig>:
 8003578:	b510      	push	{r4, lr}
 800357a:	4604      	mov	r4, r0
 800357c:	6803      	ldr	r3, [r0, #0]
 800357e:	68c1      	ldr	r1, [r0, #12]
 8003580:	691a      	ldr	r2, [r3, #16]
 8003582:	f422 5240 	bic.w	r2, r2, #12288	@ 0x3000
 8003586:	430a      	orrs	r2, r1
 8003588:	611a      	str	r2, [r3, #16]
 800358a:	6882      	ldr	r2, [r0, #8]
 800358c:	6900      	ldr	r0, [r0, #16]
 800358e:	68d9      	ldr	r1, [r3, #12]
 8003590:	4302      	orrs	r2, r0
 8003592:	6960      	ldr	r0, [r4, #20]
 8003594:	f421 51b0 	bic.w	r1, r1, #5632	@ 0x1600
 8003598:	f021 010c 	bic.w	r1, r1, #12
 800359c:	4302      	orrs	r2, r0
 800359e:	430a      	orrs	r2, r1
 80035a0:	60da      	str	r2, [r3, #12]
 80035a2:	695a      	ldr	r2, [r3, #20]
 80035a4:	69a1      	ldr	r1, [r4, #24]
 80035a6:	f422 7240 	bic.w	r2, r2, #768	@ 0x300
 80035aa:	430a      	orrs	r2, r1
 80035ac:	615a      	str	r2, [r3, #20]
 80035ae:	4a0e      	ldr	r2, [pc, #56]	@ (80035e8 <UART_SetConfig+0x70>)
 80035b0:	4293      	cmp	r3, r2
 80035b2:	d115      	bne.n	80035e0 <UART_SetConfig+0x68>
 80035b4:	f7ff fc0c 	bl	8002dd0 <HAL_RCC_GetPCLK2Freq>
 80035b8:	2319      	movs	r3, #25
 80035ba:	4343      	muls	r3, r0
 80035bc:	6862      	ldr	r2, [r4, #4]
 80035be:	6820      	ldr	r0, [r4, #0]
 80035c0:	0092      	lsls	r2, r2, #2
 80035c2:	fbb3 f3f2 	udiv	r3, r3, r2
 80035c6:	2264      	movs	r2, #100	@ 0x64
 80035c8:	fbb3 f1f2 	udiv	r1, r3, r2
 80035cc:	fb02 3311 	mls	r3, r2, r1, r3
 80035d0:	011b      	lsls	r3, r3, #4
 80035d2:	3332      	adds	r3, #50	@ 0x32
 80035d4:	fbb3 f3f2 	udiv	r3, r3, r2
 80035d8:	eb03 1301 	add.w	r3, r3, r1, lsl #4
 80035dc:	6083      	str	r3, [r0, #8]
 80035de:	bd10      	pop	{r4, pc}
 80035e0:	f7ff fbe6 	bl	8002db0 <HAL_RCC_GetPCLK1Freq>
 80035e4:	e7e8      	b.n	80035b8 <UART_SetConfig+0x40>
 80035e6:	bf00      	nop
 80035e8:	40013800 	.word	0x40013800

080035ec <UART_WaitOnFlagUntilTimeout.constprop.0>:
 80035ec:	b5f7      	push	{r0, r1, r2, r4, r5, r6, r7, lr}
 80035ee:	4605      	mov	r5, r0
 80035f0:	460c      	mov	r4, r1
 80035f2:	4617      	mov	r7, r2
 80035f4:	461e      	mov	r6, r3
 80035f6:	682a      	ldr	r2, [r5, #0]
 80035f8:	6813      	ldr	r3, [r2, #0]
 80035fa:	ea34 0303 	bics.w	r3, r4, r3
 80035fe:	d101      	bne.n	8003604 <UART_WaitOnFlagUntilTimeout.constprop.0+0x18>
 8003600:	2000      	movs	r0, #0
 8003602:	e021      	b.n	8003648 <UART_WaitOnFlagUntilTimeout.constprop.0+0x5c>
 8003604:	1c70      	adds	r0, r6, #1
 8003606:	d0f7      	beq.n	80035f8 <UART_WaitOnFlagUntilTimeout.constprop.0+0xc>
 8003608:	f7fe fbd4 	bl	8001db4 <HAL_GetTick>
 800360c:	1bc0      	subs	r0, r0, r7
 800360e:	4286      	cmp	r6, r0
 8003610:	d31c      	bcc.n	800364c <UART_WaitOnFlagUntilTimeout.constprop.0+0x60>
 8003612:	b1de      	cbz	r6, 800364c <UART_WaitOnFlagUntilTimeout.constprop.0+0x60>
 8003614:	682b      	ldr	r3, [r5, #0]
 8003616:	68da      	ldr	r2, [r3, #12]
 8003618:	0751      	lsls	r1, r2, #29
 800361a:	d5ec      	bpl.n	80035f6 <UART_WaitOnFlagUntilTimeout.constprop.0+0xa>
 800361c:	2c80      	cmp	r4, #128	@ 0x80
 800361e:	d0ea      	beq.n	80035f6 <UART_WaitOnFlagUntilTimeout.constprop.0+0xa>
 8003620:	2c40      	cmp	r4, #64	@ 0x40
 8003622:	d0e8      	beq.n	80035f6 <UART_WaitOnFlagUntilTimeout.constprop.0+0xa>
 8003624:	681a      	ldr	r2, [r3, #0]
 8003626:	0712      	lsls	r2, r2, #28
 8003628:	d5e5      	bpl.n	80035f6 <UART_WaitOnFlagUntilTimeout.constprop.0+0xa>
 800362a:	2400      	movs	r4, #0
 800362c:	9401      	str	r4, [sp, #4]
 800362e:	681a      	ldr	r2, [r3, #0]
 8003630:	4628      	mov	r0, r5
 8003632:	9201      	str	r2, [sp, #4]
 8003634:	685b      	ldr	r3, [r3, #4]
 8003636:	9301      	str	r3, [sp, #4]
 8003638:	9b01      	ldr	r3, [sp, #4]
 800363a:	f7ff ff6f 	bl	800351c <UART_EndRxTransfer>
 800363e:	2308      	movs	r3, #8
 8003640:	2001      	movs	r0, #1
 8003642:	646b      	str	r3, [r5, #68]	@ 0x44
 8003644:	f885 4040 	strb.w	r4, [r5, #64]	@ 0x40
 8003648:	b003      	add	sp, #12
 800364a:	bdf0      	pop	{r4, r5, r6, r7, pc}
 800364c:	2003      	movs	r0, #3
 800364e:	e7fb      	b.n	8003648 <UART_WaitOnFlagUntilTimeout.constprop.0+0x5c>

08003650 <HAL_UART_Init>:
 8003650:	b510      	push	{r4, lr}
 8003652:	4604      	mov	r4, r0
 8003654:	b348      	cbz	r0, 80036aa <HAL_UART_Init+0x5a>
 8003656:	f890 3041 	ldrb.w	r3, [r0, #65]	@ 0x41
 800365a:	f003 02ff 	and.w	r2, r3, #255	@ 0xff
 800365e:	b91b      	cbnz	r3, 8003668 <HAL_UART_Init+0x18>
 8003660:	f880 2040 	strb.w	r2, [r0, #64]	@ 0x40
 8003664:	f7fe faaa 	bl	8001bbc <HAL_UART_MspInit>
 8003668:	2324      	movs	r3, #36	@ 0x24
 800366a:	6822      	ldr	r2, [r4, #0]
 800366c:	f884 3041 	strb.w	r3, [r4, #65]	@ 0x41
 8003670:	68d3      	ldr	r3, [r2, #12]
 8003672:	4620      	mov	r0, r4
 8003674:	f423 5300 	bic.w	r3, r3, #8192	@ 0x2000
 8003678:	60d3      	str	r3, [r2, #12]
 800367a:	f7ff ff7d 	bl	8003578 <UART_SetConfig>
 800367e:	6823      	ldr	r3, [r4, #0]
 8003680:	2000      	movs	r0, #0
 8003682:	691a      	ldr	r2, [r3, #16]
 8003684:	f422 4290 	bic.w	r2, r2, #18432	@ 0x4800
 8003688:	611a      	str	r2, [r3, #16]
 800368a:	695a      	ldr	r2, [r3, #20]
 800368c:	f022 022a 	bic.w	r2, r2, #42	@ 0x2a
 8003690:	615a      	str	r2, [r3, #20]
 8003692:	68da      	ldr	r2, [r3, #12]
 8003694:	f442 5200 	orr.w	r2, r2, #8192	@ 0x2000
 8003698:	60da      	str	r2, [r3, #12]
 800369a:	2320      	movs	r3, #32
 800369c:	6460      	str	r0, [r4, #68]	@ 0x44
 800369e:	f884 3041 	strb.w	r3, [r4, #65]	@ 0x41
 80036a2:	f884 3042 	strb.w	r3, [r4, #66]	@ 0x42
 80036a6:	6360      	str	r0, [r4, #52]	@ 0x34
 80036a8:	bd10      	pop	{r4, pc}
 80036aa:	2001      	movs	r0, #1
 80036ac:	e7fc      	b.n	80036a8 <HAL_UART_Init+0x58>

080036ae <HAL_UART_Transmit>:
 80036ae:	e92d 43f8 	stmdb	sp!, {r3, r4, r5, r6, r7, r8, r9, lr}
 80036b2:	4698      	mov	r8, r3
 80036b4:	f890 3041 	ldrb.w	r3, [r0, #65]	@ 0x41
 80036b8:	4604      	mov	r4, r0
 80036ba:	2b20      	cmp	r3, #32
 80036bc:	460e      	mov	r6, r1
 80036be:	4617      	mov	r7, r2
 80036c0:	d13f      	bne.n	8003742 <HAL_UART_Transmit+0x94>
 80036c2:	2900      	cmp	r1, #0
 80036c4:	d03f      	beq.n	8003746 <HAL_UART_Transmit+0x98>
 80036c6:	2a00      	cmp	r2, #0
 80036c8:	d03d      	beq.n	8003746 <HAL_UART_Transmit+0x98>
 80036ca:	2321      	movs	r3, #33	@ 0x21
 80036cc:	2500      	movs	r5, #0
 80036ce:	6445      	str	r5, [r0, #68]	@ 0x44
 80036d0:	f880 3041 	strb.w	r3, [r0, #65]	@ 0x41
 80036d4:	f7fe fb6e 	bl	8001db4 <HAL_GetTick>
 80036d8:	68a3      	ldr	r3, [r4, #8]
 80036da:	4681      	mov	r9, r0
 80036dc:	f5b3 5f80 	cmp.w	r3, #4096	@ 0x1000
 80036e0:	84a7      	strh	r7, [r4, #36]	@ 0x24
 80036e2:	84e7      	strh	r7, [r4, #38]	@ 0x26
 80036e4:	d103      	bne.n	80036ee <HAL_UART_Transmit+0x40>
 80036e6:	6923      	ldr	r3, [r4, #16]
 80036e8:	b90b      	cbnz	r3, 80036ee <HAL_UART_Transmit+0x40>
 80036ea:	4635      	mov	r5, r6
 80036ec:	461e      	mov	r6, r3
 80036ee:	8ce3      	ldrh	r3, [r4, #38]	@ 0x26
 80036f0:	b29b      	uxth	r3, r3
 80036f2:	b953      	cbnz	r3, 800370a <HAL_UART_Transmit+0x5c>
 80036f4:	4643      	mov	r3, r8
 80036f6:	464a      	mov	r2, r9
 80036f8:	2140      	movs	r1, #64	@ 0x40
 80036fa:	4620      	mov	r0, r4
 80036fc:	f7ff ff76 	bl	80035ec <UART_WaitOnFlagUntilTimeout.constprop.0>
 8003700:	2320      	movs	r3, #32
 8003702:	b950      	cbnz	r0, 800371a <HAL_UART_Transmit+0x6c>
 8003704:	f884 3041 	strb.w	r3, [r4, #65]	@ 0x41
 8003708:	e00a      	b.n	8003720 <HAL_UART_Transmit+0x72>
 800370a:	4643      	mov	r3, r8
 800370c:	464a      	mov	r2, r9
 800370e:	2180      	movs	r1, #128	@ 0x80
 8003710:	4620      	mov	r0, r4
 8003712:	f7ff ff6b 	bl	80035ec <UART_WaitOnFlagUntilTimeout.constprop.0>
 8003716:	b128      	cbz	r0, 8003724 <HAL_UART_Transmit+0x76>
 8003718:	2320      	movs	r3, #32
 800371a:	2003      	movs	r0, #3
 800371c:	f884 3041 	strb.w	r3, [r4, #65]	@ 0x41
 8003720:	e8bd 83f8 	ldmia.w	sp!, {r3, r4, r5, r6, r7, r8, r9, pc}
 8003724:	6822      	ldr	r2, [r4, #0]
 8003726:	b94e      	cbnz	r6, 800373c <HAL_UART_Transmit+0x8e>
 8003728:	f835 3b02 	ldrh.w	r3, [r5], #2
 800372c:	f3c3 0308 	ubfx	r3, r3, #0, #9
 8003730:	6053      	str	r3, [r2, #4]
 8003732:	8ce1      	ldrh	r1, [r4, #38]	@ 0x26
 8003734:	3901      	subs	r1, #1
 8003736:	b289      	uxth	r1, r1
 8003738:	84e1      	strh	r1, [r4, #38]	@ 0x26
 800373a:	e7d8      	b.n	80036ee <HAL_UART_Transmit+0x40>
 800373c:	f816 3b01 	ldrb.w	r3, [r6], #1
 8003740:	e7f6      	b.n	8003730 <HAL_UART_Transmit+0x82>
 8003742:	2002      	movs	r0, #2
 8003744:	e7ec      	b.n	8003720 <HAL_UART_Transmit+0x72>
 8003746:	2001      	movs	r0, #1
 8003748:	e7ea      	b.n	8003720 <HAL_UART_Transmit+0x72>

0800374a <__cvt>:
 800374a:	2b00      	cmp	r3, #0
 800374c:	e92d 47f0 	stmdb	sp!, {r4, r5, r6, r7, r8, r9, sl, lr}
 8003750:	461d      	mov	r5, r3
 8003752:	bfbb      	ittet	lt
 8003754:	f103 4300 	addlt.w	r3, r3, #2147483648	@ 0x80000000
 8003758:	461d      	movlt	r5, r3
 800375a:	2300      	movge	r3, #0
 800375c:	232d      	movlt	r3, #45	@ 0x2d
 800375e:	b088      	sub	sp, #32
 8003760:	4614      	mov	r4, r2
 8003762:	bfb8      	it	lt
 8003764:	4614      	movlt	r4, r2
 8003766:	9a12      	ldr	r2, [sp, #72]	@ 0x48
 8003768:	9e10      	ldr	r6, [sp, #64]	@ 0x40
 800376a:	7013      	strb	r3, [r2, #0]
 800376c:	9b14      	ldr	r3, [sp, #80]	@ 0x50
 800376e:	f8dd a04c 	ldr.w	sl, [sp, #76]	@ 0x4c
 8003772:	f023 0820 	bic.w	r8, r3, #32
 8003776:	f1b8 0f46 	cmp.w	r8, #70	@ 0x46
 800377a:	d005      	beq.n	8003788 <__cvt+0x3e>
 800377c:	f1b8 0f45 	cmp.w	r8, #69	@ 0x45
 8003780:	d100      	bne.n	8003784 <__cvt+0x3a>
 8003782:	3601      	adds	r6, #1
 8003784:	2302      	movs	r3, #2
 8003786:	e000      	b.n	800378a <__cvt+0x40>
 8003788:	2303      	movs	r3, #3
 800378a:	aa07      	add	r2, sp, #28
 800378c:	9204      	str	r2, [sp, #16]
 800378e:	aa06      	add	r2, sp, #24
 8003790:	e9cd a202 	strd	sl, r2, [sp, #8]
 8003794:	e9cd 3600 	strd	r3, r6, [sp]
 8003798:	4622      	mov	r2, r4
 800379a:	462b      	mov	r3, r5
 800379c:	f000 fdcc 	bl	8004338 <_dtoa_r>
 80037a0:	f1b8 0f47 	cmp.w	r8, #71	@ 0x47
 80037a4:	4607      	mov	r7, r0
 80037a6:	d119      	bne.n	80037dc <__cvt+0x92>
 80037a8:	9b11      	ldr	r3, [sp, #68]	@ 0x44
 80037aa:	07db      	lsls	r3, r3, #31
 80037ac:	d50e      	bpl.n	80037cc <__cvt+0x82>
 80037ae:	eb00 0906 	add.w	r9, r0, r6
 80037b2:	2200      	movs	r2, #0
 80037b4:	2300      	movs	r3, #0
 80037b6:	4620      	mov	r0, r4
 80037b8:	4629      	mov	r1, r5
 80037ba:	f7fd f8f5 	bl	80009a8 <__aeabi_dcmpeq>
 80037be:	b108      	cbz	r0, 80037c4 <__cvt+0x7a>
 80037c0:	f8cd 901c 	str.w	r9, [sp, #28]
 80037c4:	2230      	movs	r2, #48	@ 0x30
 80037c6:	9b07      	ldr	r3, [sp, #28]
 80037c8:	454b      	cmp	r3, r9
 80037ca:	d31e      	bcc.n	800380a <__cvt+0xc0>
 80037cc:	4638      	mov	r0, r7
 80037ce:	9b07      	ldr	r3, [sp, #28]
 80037d0:	9a15      	ldr	r2, [sp, #84]	@ 0x54
 80037d2:	1bdb      	subs	r3, r3, r7
 80037d4:	6013      	str	r3, [r2, #0]
 80037d6:	b008      	add	sp, #32
 80037d8:	e8bd 87f0 	ldmia.w	sp!, {r4, r5, r6, r7, r8, r9, sl, pc}
 80037dc:	f1b8 0f46 	cmp.w	r8, #70	@ 0x46
 80037e0:	eb00 0906 	add.w	r9, r0, r6
 80037e4:	d1e5      	bne.n	80037b2 <__cvt+0x68>
 80037e6:	7803      	ldrb	r3, [r0, #0]
 80037e8:	2b30      	cmp	r3, #48	@ 0x30
 80037ea:	d10a      	bne.n	8003802 <__cvt+0xb8>
 80037ec:	2200      	movs	r2, #0
 80037ee:	2300      	movs	r3, #0
 80037f0:	4620      	mov	r0, r4
 80037f2:	4629      	mov	r1, r5
 80037f4:	f7fd f8d8 	bl	80009a8 <__aeabi_dcmpeq>
 80037f8:	b918      	cbnz	r0, 8003802 <__cvt+0xb8>
 80037fa:	f1c6 0601 	rsb	r6, r6, #1
 80037fe:	f8ca 6000 	str.w	r6, [sl]
 8003802:	f8da 3000 	ldr.w	r3, [sl]
 8003806:	4499      	add	r9, r3
 8003808:	e7d3      	b.n	80037b2 <__cvt+0x68>
 800380a:	1c59      	adds	r1, r3, #1
 800380c:	9107      	str	r1, [sp, #28]
 800380e:	701a      	strb	r2, [r3, #0]
 8003810:	e7d9      	b.n	80037c6 <__cvt+0x7c>

08003812 <__exponent>:
 8003812:	b5f7      	push	{r0, r1, r2, r4, r5, r6, r7, lr}
 8003814:	2900      	cmp	r1, #0
 8003816:	bfb6      	itet	lt
 8003818:	232d      	movlt	r3, #45	@ 0x2d
 800381a:	232b      	movge	r3, #43	@ 0x2b
 800381c:	4249      	neglt	r1, r1
 800381e:	2909      	cmp	r1, #9
 8003820:	7002      	strb	r2, [r0, #0]
 8003822:	7043      	strb	r3, [r0, #1]
 8003824:	dd29      	ble.n	800387a <__exponent+0x68>
 8003826:	f10d 0407 	add.w	r4, sp, #7
 800382a:	4625      	mov	r5, r4
 800382c:	270a      	movs	r7, #10
 800382e:	fbb1 f6f7 	udiv	r6, r1, r7
 8003832:	4622      	mov	r2, r4
 8003834:	fb07 1316 	mls	r3, r7, r6, r1
 8003838:	3330      	adds	r3, #48	@ 0x30
 800383a:	f802 3c01 	strb.w	r3, [r2, #-1]
 800383e:	460b      	mov	r3, r1
 8003840:	2b63      	cmp	r3, #99	@ 0x63
 8003842:	4631      	mov	r1, r6
 8003844:	f104 34ff 	add.w	r4, r4, #4294967295	@ 0xffffffff
 8003848:	dcf1      	bgt.n	800382e <__exponent+0x1c>
 800384a:	3130      	adds	r1, #48	@ 0x30
 800384c:	1e93      	subs	r3, r2, #2
 800384e:	f804 1c01 	strb.w	r1, [r4, #-1]
 8003852:	461c      	mov	r4, r3
 8003854:	1c41      	adds	r1, r0, #1
 8003856:	42ab      	cmp	r3, r5
 8003858:	d30a      	bcc.n	8003870 <__exponent+0x5e>
 800385a:	f10d 0309 	add.w	r3, sp, #9
 800385e:	1a9b      	subs	r3, r3, r2
 8003860:	42a5      	cmp	r5, r4
 8003862:	bf38      	it	cc
 8003864:	2300      	movcc	r3, #0
 8003866:	1c82      	adds	r2, r0, #2
 8003868:	4413      	add	r3, r2
 800386a:	1a18      	subs	r0, r3, r0
 800386c:	b003      	add	sp, #12
 800386e:	bdf0      	pop	{r4, r5, r6, r7, pc}
 8003870:	f813 6b01 	ldrb.w	r6, [r3], #1
 8003874:	f801 6f01 	strb.w	r6, [r1, #1]!
 8003878:	e7ed      	b.n	8003856 <__exponent+0x44>
 800387a:	2330      	movs	r3, #48	@ 0x30
 800387c:	3130      	adds	r1, #48	@ 0x30
 800387e:	7083      	strb	r3, [r0, #2]
 8003880:	70c1      	strb	r1, [r0, #3]
 8003882:	1d03      	adds	r3, r0, #4
 8003884:	e7f1      	b.n	800386a <__exponent+0x58>
	...

08003888 <_printf_float>:
 8003888:	e92d 4ff0 	stmdb	sp!, {r4, r5, r6, r7, r8, r9, sl, fp, lr}
 800388c:	b091      	sub	sp, #68	@ 0x44
 800388e:	460c      	mov	r4, r1
 8003890:	f8dd 8068 	ldr.w	r8, [sp, #104]	@ 0x68
 8003894:	4616      	mov	r6, r2
 8003896:	461f      	mov	r7, r3
 8003898:	4605      	mov	r5, r0
 800389a:	f000 fcb3 	bl	8004204 <_localeconv_r>
 800389e:	6803      	ldr	r3, [r0, #0]
 80038a0:	4618      	mov	r0, r3
 80038a2:	930a      	str	r3, [sp, #40]	@ 0x28
 80038a4:	f7fc fc54 	bl	8000150 <strlen>
 80038a8:	2300      	movs	r3, #0
 80038aa:	930e      	str	r3, [sp, #56]	@ 0x38
 80038ac:	f8d8 3000 	ldr.w	r3, [r8]
 80038b0:	f894 a018 	ldrb.w	sl, [r4, #24]
 80038b4:	3307      	adds	r3, #7
 80038b6:	f023 0307 	bic.w	r3, r3, #7
 80038ba:	e8f3 1202 	ldrd	r1, r2, [r3], #8
 80038be:	f8d4 b000 	ldr.w	fp, [r4]
 80038c2:	e9cd 1208 	strd	r1, r2, [sp, #32]
 80038c6:	f8c8 3000 	str.w	r3, [r8]
 80038ca:	4613      	mov	r3, r2
 80038cc:	460a      	mov	r2, r1
 80038ce:	e9c4 2312 	strd	r2, r3, [r4, #72]	@ 0x48
 80038d2:	e9dd 8308 	ldrd	r8, r3, [sp, #32]
 80038d6:	f023 4900 	bic.w	r9, r3, #2147483648	@ 0x80000000
 80038da:	900b      	str	r0, [sp, #44]	@ 0x2c
 80038dc:	f04f 32ff 	mov.w	r2, #4294967295	@ 0xffffffff
 80038e0:	4640      	mov	r0, r8
 80038e2:	4649      	mov	r1, r9
 80038e4:	4b9b      	ldr	r3, [pc, #620]	@ (8003b54 <_printf_float+0x2cc>)
 80038e6:	f7fd f891 	bl	8000a0c <__aeabi_dcmpun>
 80038ea:	bb70      	cbnz	r0, 800394a <_printf_float+0xc2>
 80038ec:	f04f 32ff 	mov.w	r2, #4294967295	@ 0xffffffff
 80038f0:	4640      	mov	r0, r8
 80038f2:	4649      	mov	r1, r9
 80038f4:	4b97      	ldr	r3, [pc, #604]	@ (8003b54 <_printf_float+0x2cc>)
 80038f6:	f7fd f86b 	bl	80009d0 <__aeabi_dcmple>
 80038fa:	bb30      	cbnz	r0, 800394a <_printf_float+0xc2>
 80038fc:	e9dd 0108 	ldrd	r0, r1, [sp, #32]
 8003900:	2200      	movs	r2, #0
 8003902:	2300      	movs	r3, #0
 8003904:	f7fd f85a 	bl	80009bc <__aeabi_dcmplt>
 8003908:	b110      	cbz	r0, 8003910 <_printf_float+0x88>
 800390a:	232d      	movs	r3, #45	@ 0x2d
 800390c:	f884 3043 	strb.w	r3, [r4, #67]	@ 0x43
 8003910:	4a91      	ldr	r2, [pc, #580]	@ (8003b58 <_printf_float+0x2d0>)
 8003912:	4b92      	ldr	r3, [pc, #584]	@ (8003b5c <_printf_float+0x2d4>)
 8003914:	f1ba 0f47 	cmp.w	sl, #71	@ 0x47
 8003918:	bf8c      	ite	hi
 800391a:	4690      	movhi	r8, r2
 800391c:	4698      	movls	r8, r3
 800391e:	2303      	movs	r3, #3
 8003920:	f04f 0900 	mov.w	r9, #0
 8003924:	6123      	str	r3, [r4, #16]
 8003926:	f02b 0304 	bic.w	r3, fp, #4
 800392a:	6023      	str	r3, [r4, #0]
 800392c:	4633      	mov	r3, r6
 800392e:	4621      	mov	r1, r4
 8003930:	4628      	mov	r0, r5
 8003932:	9700      	str	r7, [sp, #0]
 8003934:	aa0f      	add	r2, sp, #60	@ 0x3c
 8003936:	f000 f9d3 	bl	8003ce0 <_printf_common>
 800393a:	3001      	adds	r0, #1
 800393c:	f040 808f 	bne.w	8003a5e <_printf_float+0x1d6>
 8003940:	f04f 30ff 	mov.w	r0, #4294967295	@ 0xffffffff
 8003944:	b011      	add	sp, #68	@ 0x44
 8003946:	e8bd 8ff0 	ldmia.w	sp!, {r4, r5, r6, r7, r8, r9, sl, fp, pc}
 800394a:	e9dd 2308 	ldrd	r2, r3, [sp, #32]
 800394e:	4610      	mov	r0, r2
 8003950:	4619      	mov	r1, r3
 8003952:	f7fd f85b 	bl	8000a0c <__aeabi_dcmpun>
 8003956:	b140      	cbz	r0, 800396a <_printf_float+0xe2>
 8003958:	9b09      	ldr	r3, [sp, #36]	@ 0x24
 800395a:	4a81      	ldr	r2, [pc, #516]	@ (8003b60 <_printf_float+0x2d8>)
 800395c:	2b00      	cmp	r3, #0
 800395e:	bfbc      	itt	lt
 8003960:	232d      	movlt	r3, #45	@ 0x2d
 8003962:	f884 3043 	strblt.w	r3, [r4, #67]	@ 0x43
 8003966:	4b7f      	ldr	r3, [pc, #508]	@ (8003b64 <_printf_float+0x2dc>)
 8003968:	e7d4      	b.n	8003914 <_printf_float+0x8c>
 800396a:	6863      	ldr	r3, [r4, #4]
 800396c:	f00a 09df 	and.w	r9, sl, #223	@ 0xdf
 8003970:	1c5a      	adds	r2, r3, #1
 8003972:	d13e      	bne.n	80039f2 <_printf_float+0x16a>
 8003974:	2306      	movs	r3, #6
 8003976:	6063      	str	r3, [r4, #4]
 8003978:	2200      	movs	r2, #0
 800397a:	f44b 6380 	orr.w	r3, fp, #1024	@ 0x400
 800397e:	6023      	str	r3, [r4, #0]
 8003980:	9206      	str	r2, [sp, #24]
 8003982:	aa0e      	add	r2, sp, #56	@ 0x38
 8003984:	e9cd a204 	strd	sl, r2, [sp, #16]
 8003988:	aa0d      	add	r2, sp, #52	@ 0x34
 800398a:	9203      	str	r2, [sp, #12]
 800398c:	f10d 0233 	add.w	r2, sp, #51	@ 0x33
 8003990:	e9cd 3201 	strd	r3, r2, [sp, #4]
 8003994:	6863      	ldr	r3, [r4, #4]
 8003996:	4628      	mov	r0, r5
 8003998:	9300      	str	r3, [sp, #0]
 800399a:	e9dd 2308 	ldrd	r2, r3, [sp, #32]
 800399e:	f7ff fed4 	bl	800374a <__cvt>
 80039a2:	f1b9 0f47 	cmp.w	r9, #71	@ 0x47
 80039a6:	4680      	mov	r8, r0
 80039a8:	990d      	ldr	r1, [sp, #52]	@ 0x34
 80039aa:	d129      	bne.n	8003a00 <_printf_float+0x178>
 80039ac:	1cc8      	adds	r0, r1, #3
 80039ae:	db02      	blt.n	80039b6 <_printf_float+0x12e>
 80039b0:	6863      	ldr	r3, [r4, #4]
 80039b2:	428b      	cmp	r3, r1
 80039b4:	da41      	bge.n	8003a3a <_printf_float+0x1b2>
 80039b6:	f1aa 0a02 	sub.w	sl, sl, #2
 80039ba:	fa5f fa8a 	uxtb.w	sl, sl
 80039be:	4652      	mov	r2, sl
 80039c0:	3901      	subs	r1, #1
 80039c2:	f104 0050 	add.w	r0, r4, #80	@ 0x50
 80039c6:	910d      	str	r1, [sp, #52]	@ 0x34
 80039c8:	f7ff ff23 	bl	8003812 <__exponent>
 80039cc:	9a0e      	ldr	r2, [sp, #56]	@ 0x38
 80039ce:	4681      	mov	r9, r0
 80039d0:	1813      	adds	r3, r2, r0
 80039d2:	2a01      	cmp	r2, #1
 80039d4:	6123      	str	r3, [r4, #16]
 80039d6:	dc02      	bgt.n	80039de <_printf_float+0x156>
 80039d8:	6822      	ldr	r2, [r4, #0]
 80039da:	07d2      	lsls	r2, r2, #31
 80039dc:	d501      	bpl.n	80039e2 <_printf_float+0x15a>
 80039de:	3301      	adds	r3, #1
 80039e0:	6123      	str	r3, [r4, #16]
 80039e2:	f89d 3033 	ldrb.w	r3, [sp, #51]	@ 0x33
 80039e6:	2b00      	cmp	r3, #0
 80039e8:	d0a0      	beq.n	800392c <_printf_float+0xa4>
 80039ea:	232d      	movs	r3, #45	@ 0x2d
 80039ec:	f884 3043 	strb.w	r3, [r4, #67]	@ 0x43
 80039f0:	e79c      	b.n	800392c <_printf_float+0xa4>
 80039f2:	f1b9 0f47 	cmp.w	r9, #71	@ 0x47
 80039f6:	d1bf      	bne.n	8003978 <_printf_float+0xf0>
 80039f8:	2b00      	cmp	r3, #0
 80039fa:	d1bd      	bne.n	8003978 <_printf_float+0xf0>
 80039fc:	2301      	movs	r3, #1
 80039fe:	e7ba      	b.n	8003976 <_printf_float+0xee>
 8003a00:	f1ba 0f65 	cmp.w	sl, #101	@ 0x65
 8003a04:	d9db      	bls.n	80039be <_printf_float+0x136>
 8003a06:	f1ba 0f66 	cmp.w	sl, #102	@ 0x66
 8003a0a:	d118      	bne.n	8003a3e <_printf_float+0x1b6>
 8003a0c:	2900      	cmp	r1, #0
 8003a0e:	6863      	ldr	r3, [r4, #4]
 8003a10:	dd0b      	ble.n	8003a2a <_printf_float+0x1a2>
 8003a12:	6121      	str	r1, [r4, #16]
 8003a14:	b913      	cbnz	r3, 8003a1c <_printf_float+0x194>
 8003a16:	6822      	ldr	r2, [r4, #0]
 8003a18:	07d0      	lsls	r0, r2, #31
 8003a1a:	d502      	bpl.n	8003a22 <_printf_float+0x19a>
 8003a1c:	3301      	adds	r3, #1
 8003a1e:	440b      	add	r3, r1
 8003a20:	6123      	str	r3, [r4, #16]
 8003a22:	f04f 0900 	mov.w	r9, #0
 8003a26:	65a1      	str	r1, [r4, #88]	@ 0x58
 8003a28:	e7db      	b.n	80039e2 <_printf_float+0x15a>
 8003a2a:	b913      	cbnz	r3, 8003a32 <_printf_float+0x1aa>
 8003a2c:	6822      	ldr	r2, [r4, #0]
 8003a2e:	07d2      	lsls	r2, r2, #31
 8003a30:	d501      	bpl.n	8003a36 <_printf_float+0x1ae>
 8003a32:	3302      	adds	r3, #2
 8003a34:	e7f4      	b.n	8003a20 <_printf_float+0x198>
 8003a36:	2301      	movs	r3, #1
 8003a38:	e7f2      	b.n	8003a20 <_printf_float+0x198>
 8003a3a:	f04f 0a67 	mov.w	sl, #103	@ 0x67
 8003a3e:	9b0e      	ldr	r3, [sp, #56]	@ 0x38
 8003a40:	428b      	cmp	r3, r1
 8003a42:	dc05      	bgt.n	8003a50 <_printf_float+0x1c8>
 8003a44:	6823      	ldr	r3, [r4, #0]
 8003a46:	6121      	str	r1, [r4, #16]
 8003a48:	07d8      	lsls	r0, r3, #31
 8003a4a:	d5ea      	bpl.n	8003a22 <_printf_float+0x19a>
 8003a4c:	1c4b      	adds	r3, r1, #1
 8003a4e:	e7e7      	b.n	8003a20 <_printf_float+0x198>
 8003a50:	2900      	cmp	r1, #0
 8003a52:	bfcc      	ite	gt
 8003a54:	2201      	movgt	r2, #1
 8003a56:	f1c1 0202 	rsble	r2, r1, #2
 8003a5a:	4413      	add	r3, r2
 8003a5c:	e7e0      	b.n	8003a20 <_printf_float+0x198>
 8003a5e:	6823      	ldr	r3, [r4, #0]
 8003a60:	055a      	lsls	r2, r3, #21
 8003a62:	d407      	bmi.n	8003a74 <_printf_float+0x1ec>
 8003a64:	6923      	ldr	r3, [r4, #16]
 8003a66:	4642      	mov	r2, r8
 8003a68:	4631      	mov	r1, r6
 8003a6a:	4628      	mov	r0, r5
 8003a6c:	47b8      	blx	r7
 8003a6e:	3001      	adds	r0, #1
 8003a70:	d12b      	bne.n	8003aca <_printf_float+0x242>
 8003a72:	e765      	b.n	8003940 <_printf_float+0xb8>
 8003a74:	f1ba 0f65 	cmp.w	sl, #101	@ 0x65
 8003a78:	f240 80dc 	bls.w	8003c34 <_printf_float+0x3ac>
 8003a7c:	e9d4 0112 	ldrd	r0, r1, [r4, #72]	@ 0x48
 8003a80:	2200      	movs	r2, #0
 8003a82:	2300      	movs	r3, #0
 8003a84:	f7fc ff90 	bl	80009a8 <__aeabi_dcmpeq>
 8003a88:	2800      	cmp	r0, #0
 8003a8a:	d033      	beq.n	8003af4 <_printf_float+0x26c>
 8003a8c:	2301      	movs	r3, #1
 8003a8e:	4631      	mov	r1, r6
 8003a90:	4628      	mov	r0, r5
 8003a92:	4a35      	ldr	r2, [pc, #212]	@ (8003b68 <_printf_float+0x2e0>)
 8003a94:	47b8      	blx	r7
 8003a96:	3001      	adds	r0, #1
 8003a98:	f43f af52 	beq.w	8003940 <_printf_float+0xb8>
 8003a9c:	e9dd 380d 	ldrd	r3, r8, [sp, #52]	@ 0x34
 8003aa0:	4543      	cmp	r3, r8
 8003aa2:	db02      	blt.n	8003aaa <_printf_float+0x222>
 8003aa4:	6823      	ldr	r3, [r4, #0]
 8003aa6:	07d8      	lsls	r0, r3, #31
 8003aa8:	d50f      	bpl.n	8003aca <_printf_float+0x242>
 8003aaa:	e9dd 230a 	ldrd	r2, r3, [sp, #40]	@ 0x28
 8003aae:	4631      	mov	r1, r6
 8003ab0:	4628      	mov	r0, r5
 8003ab2:	47b8      	blx	r7
 8003ab4:	3001      	adds	r0, #1
 8003ab6:	f43f af43 	beq.w	8003940 <_printf_float+0xb8>
 8003aba:	f04f 0900 	mov.w	r9, #0
 8003abe:	f108 38ff 	add.w	r8, r8, #4294967295	@ 0xffffffff
 8003ac2:	f104 0a1a 	add.w	sl, r4, #26
 8003ac6:	45c8      	cmp	r8, r9
 8003ac8:	dc09      	bgt.n	8003ade <_printf_float+0x256>
 8003aca:	6823      	ldr	r3, [r4, #0]
 8003acc:	079b      	lsls	r3, r3, #30
 8003ace:	f100 8102 	bmi.w	8003cd6 <_printf_float+0x44e>
 8003ad2:	68e0      	ldr	r0, [r4, #12]
 8003ad4:	9b0f      	ldr	r3, [sp, #60]	@ 0x3c
 8003ad6:	4298      	cmp	r0, r3
 8003ad8:	bfb8      	it	lt
 8003ada:	4618      	movlt	r0, r3
 8003adc:	e732      	b.n	8003944 <_printf_float+0xbc>
 8003ade:	2301      	movs	r3, #1
 8003ae0:	4652      	mov	r2, sl
 8003ae2:	4631      	mov	r1, r6
 8003ae4:	4628      	mov	r0, r5
 8003ae6:	47b8      	blx	r7
 8003ae8:	3001      	adds	r0, #1
 8003aea:	f43f af29 	beq.w	8003940 <_printf_float+0xb8>
 8003aee:	f109 0901 	add.w	r9, r9, #1
 8003af2:	e7e8      	b.n	8003ac6 <_printf_float+0x23e>
 8003af4:	9b0d      	ldr	r3, [sp, #52]	@ 0x34
 8003af6:	2b00      	cmp	r3, #0
 8003af8:	dc38      	bgt.n	8003b6c <_printf_float+0x2e4>
 8003afa:	2301      	movs	r3, #1
 8003afc:	4631      	mov	r1, r6
 8003afe:	4628      	mov	r0, r5
 8003b00:	4a19      	ldr	r2, [pc, #100]	@ (8003b68 <_printf_float+0x2e0>)
 8003b02:	47b8      	blx	r7
 8003b04:	3001      	adds	r0, #1
 8003b06:	f43f af1b 	beq.w	8003940 <_printf_float+0xb8>
 8003b0a:	e9dd 390d 	ldrd	r3, r9, [sp, #52]	@ 0x34
 8003b0e:	ea59 0303 	orrs.w	r3, r9, r3
 8003b12:	d102      	bne.n	8003b1a <_printf_float+0x292>
 8003b14:	6823      	ldr	r3, [r4, #0]
 8003b16:	07d9      	lsls	r1, r3, #31
 8003b18:	d5d7      	bpl.n	8003aca <_printf_float+0x242>
 8003b1a:	e9dd 230a 	ldrd	r2, r3, [sp, #40]	@ 0x28
 8003b1e:	4631      	mov	r1, r6
 8003b20:	4628      	mov	r0, r5
 8003b22:	47b8      	blx	r7
 8003b24:	3001      	adds	r0, #1
 8003b26:	f43f af0b 	beq.w	8003940 <_printf_float+0xb8>
 8003b2a:	f04f 0a00 	mov.w	sl, #0
 8003b2e:	f104 0b1a 	add.w	fp, r4, #26
 8003b32:	9b0d      	ldr	r3, [sp, #52]	@ 0x34
 8003b34:	425b      	negs	r3, r3
 8003b36:	4553      	cmp	r3, sl
 8003b38:	dc01      	bgt.n	8003b3e <_printf_float+0x2b6>
 8003b3a:	464b      	mov	r3, r9
 8003b3c:	e793      	b.n	8003a66 <_printf_float+0x1de>
 8003b3e:	2301      	movs	r3, #1
 8003b40:	465a      	mov	r2, fp
 8003b42:	4631      	mov	r1, r6
 8003b44:	4628      	mov	r0, r5
 8003b46:	47b8      	blx	r7
 8003b48:	3001      	adds	r0, #1
 8003b4a:	f43f aef9 	beq.w	8003940 <_printf_float+0xb8>
 8003b4e:	f10a 0a01 	add.w	sl, sl, #1
 8003b52:	e7ee      	b.n	8003b32 <_printf_float+0x2aa>
 8003b54:	7fefffff 	.word	0x7fefffff
 8003b58:	08006214 	.word	0x08006214
 8003b5c:	08006210 	.word	0x08006210
 8003b60:	0800621c 	.word	0x0800621c
 8003b64:	08006218 	.word	0x08006218
 8003b68:	08006220 	.word	0x08006220
 8003b6c:	6da3      	ldr	r3, [r4, #88]	@ 0x58
 8003b6e:	f8dd a038 	ldr.w	sl, [sp, #56]	@ 0x38
 8003b72:	4553      	cmp	r3, sl
 8003b74:	bfa8      	it	ge
 8003b76:	4653      	movge	r3, sl
 8003b78:	2b00      	cmp	r3, #0
 8003b7a:	4699      	mov	r9, r3
 8003b7c:	dc36      	bgt.n	8003bec <_printf_float+0x364>
 8003b7e:	f04f 0b00 	mov.w	fp, #0
 8003b82:	ea29 79e9 	bic.w	r9, r9, r9, asr #31
 8003b86:	f104 021a 	add.w	r2, r4, #26
 8003b8a:	6da3      	ldr	r3, [r4, #88]	@ 0x58
 8003b8c:	9308      	str	r3, [sp, #32]
 8003b8e:	eba3 0309 	sub.w	r3, r3, r9
 8003b92:	455b      	cmp	r3, fp
 8003b94:	dc31      	bgt.n	8003bfa <_printf_float+0x372>
 8003b96:	9b0d      	ldr	r3, [sp, #52]	@ 0x34
 8003b98:	459a      	cmp	sl, r3
 8003b9a:	dc3a      	bgt.n	8003c12 <_printf_float+0x38a>
 8003b9c:	6823      	ldr	r3, [r4, #0]
 8003b9e:	07da      	lsls	r2, r3, #31
 8003ba0:	d437      	bmi.n	8003c12 <_printf_float+0x38a>
 8003ba2:	9b0d      	ldr	r3, [sp, #52]	@ 0x34
 8003ba4:	ebaa 0903 	sub.w	r9, sl, r3
 8003ba8:	9b08      	ldr	r3, [sp, #32]
 8003baa:	ebaa 0303 	sub.w	r3, sl, r3
 8003bae:	4599      	cmp	r9, r3
 8003bb0:	bfa8      	it	ge
 8003bb2:	4699      	movge	r9, r3
 8003bb4:	f1b9 0f00 	cmp.w	r9, #0
 8003bb8:	dc33      	bgt.n	8003c22 <_printf_float+0x39a>
 8003bba:	f04f 0800 	mov.w	r8, #0
 8003bbe:	ea29 79e9 	bic.w	r9, r9, r9, asr #31
 8003bc2:	f104 0b1a 	add.w	fp, r4, #26
 8003bc6:	9b0d      	ldr	r3, [sp, #52]	@ 0x34
 8003bc8:	ebaa 0303 	sub.w	r3, sl, r3
 8003bcc:	eba3 0309 	sub.w	r3, r3, r9
 8003bd0:	4543      	cmp	r3, r8
 8003bd2:	f77f af7a 	ble.w	8003aca <_printf_float+0x242>
 8003bd6:	2301      	movs	r3, #1
 8003bd8:	465a      	mov	r2, fp
 8003bda:	4631      	mov	r1, r6
 8003bdc:	4628      	mov	r0, r5
 8003bde:	47b8      	blx	r7
 8003be0:	3001      	adds	r0, #1
 8003be2:	f43f aead 	beq.w	8003940 <_printf_float+0xb8>
 8003be6:	f108 0801 	add.w	r8, r8, #1
 8003bea:	e7ec      	b.n	8003bc6 <_printf_float+0x33e>
 8003bec:	4642      	mov	r2, r8
 8003bee:	4631      	mov	r1, r6
 8003bf0:	4628      	mov	r0, r5
 8003bf2:	47b8      	blx	r7
 8003bf4:	3001      	adds	r0, #1
 8003bf6:	d1c2      	bne.n	8003b7e <_printf_float+0x2f6>
 8003bf8:	e6a2      	b.n	8003940 <_printf_float+0xb8>
 8003bfa:	2301      	movs	r3, #1
 8003bfc:	4631      	mov	r1, r6
 8003bfe:	4628      	mov	r0, r5
 8003c00:	9208      	str	r2, [sp, #32]
 8003c02:	47b8      	blx	r7
 8003c04:	3001      	adds	r0, #1
 8003c06:	f43f ae9b 	beq.w	8003940 <_printf_float+0xb8>
 8003c0a:	9a08      	ldr	r2, [sp, #32]
 8003c0c:	f10b 0b01 	add.w	fp, fp, #1
 8003c10:	e7bb      	b.n	8003b8a <_printf_float+0x302>
 8003c12:	4631      	mov	r1, r6
 8003c14:	e9dd 230a 	ldrd	r2, r3, [sp, #40]	@ 0x28
 8003c18:	4628      	mov	r0, r5
 8003c1a:	47b8      	blx	r7
 8003c1c:	3001      	adds	r0, #1
 8003c1e:	d1c0      	bne.n	8003ba2 <_printf_float+0x31a>
 8003c20:	e68e      	b.n	8003940 <_printf_float+0xb8>
 8003c22:	9a08      	ldr	r2, [sp, #32]
 8003c24:	464b      	mov	r3, r9
 8003c26:	4631      	mov	r1, r6
 8003c28:	4628      	mov	r0, r5
 8003c2a:	4442      	add	r2, r8
 8003c2c:	47b8      	blx	r7
 8003c2e:	3001      	adds	r0, #1
 8003c30:	d1c3      	bne.n	8003bba <_printf_float+0x332>
 8003c32:	e685      	b.n	8003940 <_printf_float+0xb8>
 8003c34:	f8dd a038 	ldr.w	sl, [sp, #56]	@ 0x38
 8003c38:	f1ba 0f01 	cmp.w	sl, #1
 8003c3c:	dc01      	bgt.n	8003c42 <_printf_float+0x3ba>
 8003c3e:	07db      	lsls	r3, r3, #31
 8003c40:	d536      	bpl.n	8003cb0 <_printf_float+0x428>
 8003c42:	2301      	movs	r3, #1
 8003c44:	4642      	mov	r2, r8
 8003c46:	4631      	mov	r1, r6
 8003c48:	4628      	mov	r0, r5
 8003c4a:	47b8      	blx	r7
 8003c4c:	3001      	adds	r0, #1
 8003c4e:	f43f ae77 	beq.w	8003940 <_printf_float+0xb8>
 8003c52:	e9dd 230a 	ldrd	r2, r3, [sp, #40]	@ 0x28
 8003c56:	4631      	mov	r1, r6
 8003c58:	4628      	mov	r0, r5
 8003c5a:	47b8      	blx	r7
 8003c5c:	3001      	adds	r0, #1
 8003c5e:	f43f ae6f 	beq.w	8003940 <_printf_float+0xb8>
 8003c62:	e9d4 0112 	ldrd	r0, r1, [r4, #72]	@ 0x48
 8003c66:	2200      	movs	r2, #0
 8003c68:	2300      	movs	r3, #0
 8003c6a:	f10a 3aff 	add.w	sl, sl, #4294967295	@ 0xffffffff
 8003c6e:	f7fc fe9b 	bl	80009a8 <__aeabi_dcmpeq>
 8003c72:	b9c0      	cbnz	r0, 8003ca6 <_printf_float+0x41e>
 8003c74:	4653      	mov	r3, sl
 8003c76:	f108 0201 	add.w	r2, r8, #1
 8003c7a:	4631      	mov	r1, r6
 8003c7c:	4628      	mov	r0, r5
 8003c7e:	47b8      	blx	r7
 8003c80:	3001      	adds	r0, #1
 8003c82:	d10c      	bne.n	8003c9e <_printf_float+0x416>
 8003c84:	e65c      	b.n	8003940 <_printf_float+0xb8>
 8003c86:	2301      	movs	r3, #1
 8003c88:	465a      	mov	r2, fp
 8003c8a:	4631      	mov	r1, r6
 8003c8c:	4628      	mov	r0, r5
 8003c8e:	47b8      	blx	r7
 8003c90:	3001      	adds	r0, #1
 8003c92:	f43f ae55 	beq.w	8003940 <_printf_float+0xb8>
 8003c96:	f108 0801 	add.w	r8, r8, #1
 8003c9a:	45d0      	cmp	r8, sl
 8003c9c:	dbf3      	blt.n	8003c86 <_printf_float+0x3fe>
 8003c9e:	464b      	mov	r3, r9
 8003ca0:	f104 0250 	add.w	r2, r4, #80	@ 0x50
 8003ca4:	e6e0      	b.n	8003a68 <_printf_float+0x1e0>
 8003ca6:	f04f 0800 	mov.w	r8, #0
 8003caa:	f104 0b1a 	add.w	fp, r4, #26
 8003cae:	e7f4      	b.n	8003c9a <_printf_float+0x412>
 8003cb0:	2301      	movs	r3, #1
 8003cb2:	4642      	mov	r2, r8
 8003cb4:	e7e1      	b.n	8003c7a <_printf_float+0x3f2>
 8003cb6:	2301      	movs	r3, #1
 8003cb8:	464a      	mov	r2, r9
 8003cba:	4631      	mov	r1, r6
 8003cbc:	4628      	mov	r0, r5
 8003cbe:	47b8      	blx	r7
 8003cc0:	3001      	adds	r0, #1
 8003cc2:	f43f ae3d 	beq.w	8003940 <_printf_float+0xb8>
 8003cc6:	f108 0801 	add.w	r8, r8, #1
 8003cca:	68e3      	ldr	r3, [r4, #12]
 8003ccc:	990f      	ldr	r1, [sp, #60]	@ 0x3c
 8003cce:	1a5b      	subs	r3, r3, r1
 8003cd0:	4543      	cmp	r3, r8
 8003cd2:	dcf0      	bgt.n	8003cb6 <_printf_float+0x42e>
 8003cd4:	e6fd      	b.n	8003ad2 <_printf_float+0x24a>
 8003cd6:	f04f 0800 	mov.w	r8, #0
 8003cda:	f104 0919 	add.w	r9, r4, #25
 8003cde:	e7f4      	b.n	8003cca <_printf_float+0x442>

08003ce0 <_printf_common>:
 8003ce0:	e92d 47f0 	stmdb	sp!, {r4, r5, r6, r7, r8, r9, sl, lr}
 8003ce4:	4616      	mov	r6, r2
 8003ce6:	4698      	mov	r8, r3
 8003ce8:	688a      	ldr	r2, [r1, #8]
 8003cea:	690b      	ldr	r3, [r1, #16]
 8003cec:	4607      	mov	r7, r0
 8003cee:	4293      	cmp	r3, r2
 8003cf0:	bfb8      	it	lt
 8003cf2:	4613      	movlt	r3, r2
 8003cf4:	6033      	str	r3, [r6, #0]
 8003cf6:	f891 2043 	ldrb.w	r2, [r1, #67]	@ 0x43
 8003cfa:	460c      	mov	r4, r1
 8003cfc:	f8dd 9020 	ldr.w	r9, [sp, #32]
 8003d00:	b10a      	cbz	r2, 8003d06 <_printf_common+0x26>
 8003d02:	3301      	adds	r3, #1
 8003d04:	6033      	str	r3, [r6, #0]
 8003d06:	6823      	ldr	r3, [r4, #0]
 8003d08:	0699      	lsls	r1, r3, #26
 8003d0a:	bf42      	ittt	mi
 8003d0c:	6833      	ldrmi	r3, [r6, #0]
 8003d0e:	3302      	addmi	r3, #2
 8003d10:	6033      	strmi	r3, [r6, #0]
 8003d12:	6825      	ldr	r5, [r4, #0]
 8003d14:	f015 0506 	ands.w	r5, r5, #6
 8003d18:	d106      	bne.n	8003d28 <_printf_common+0x48>
 8003d1a:	f104 0a19 	add.w	sl, r4, #25
 8003d1e:	68e3      	ldr	r3, [r4, #12]
 8003d20:	6832      	ldr	r2, [r6, #0]
 8003d22:	1a9b      	subs	r3, r3, r2
 8003d24:	42ab      	cmp	r3, r5
 8003d26:	dc2b      	bgt.n	8003d80 <_printf_common+0xa0>
 8003d28:	f894 3043 	ldrb.w	r3, [r4, #67]	@ 0x43
 8003d2c:	6822      	ldr	r2, [r4, #0]
 8003d2e:	3b00      	subs	r3, #0
 8003d30:	bf18      	it	ne
 8003d32:	2301      	movne	r3, #1
 8003d34:	0692      	lsls	r2, r2, #26
 8003d36:	d430      	bmi.n	8003d9a <_printf_common+0xba>
 8003d38:	4641      	mov	r1, r8
 8003d3a:	4638      	mov	r0, r7
 8003d3c:	f104 0243 	add.w	r2, r4, #67	@ 0x43
 8003d40:	47c8      	blx	r9
 8003d42:	3001      	adds	r0, #1
 8003d44:	d023      	beq.n	8003d8e <_printf_common+0xae>
 8003d46:	6823      	ldr	r3, [r4, #0]
 8003d48:	6922      	ldr	r2, [r4, #16]
 8003d4a:	f003 0306 	and.w	r3, r3, #6
 8003d4e:	2b04      	cmp	r3, #4
 8003d50:	bf14      	ite	ne
 8003d52:	2500      	movne	r5, #0
 8003d54:	6833      	ldreq	r3, [r6, #0]
 8003d56:	f04f 0600 	mov.w	r6, #0
 8003d5a:	bf08      	it	eq
 8003d5c:	68e5      	ldreq	r5, [r4, #12]
 8003d5e:	f104 041a 	add.w	r4, r4, #26
 8003d62:	bf08      	it	eq
 8003d64:	1aed      	subeq	r5, r5, r3
 8003d66:	f854 3c12 	ldr.w	r3, [r4, #-18]
 8003d6a:	bf08      	it	eq
 8003d6c:	ea25 75e5 	biceq.w	r5, r5, r5, asr #31
 8003d70:	4293      	cmp	r3, r2
 8003d72:	bfc4      	itt	gt
 8003d74:	1a9b      	subgt	r3, r3, r2
 8003d76:	18ed      	addgt	r5, r5, r3
 8003d78:	42b5      	cmp	r5, r6
 8003d7a:	d11a      	bne.n	8003db2 <_printf_common+0xd2>
 8003d7c:	2000      	movs	r0, #0
 8003d7e:	e008      	b.n	8003d92 <_printf_common+0xb2>
 8003d80:	2301      	movs	r3, #1
 8003d82:	4652      	mov	r2, sl
 8003d84:	4641      	mov	r1, r8
 8003d86:	4638      	mov	r0, r7
 8003d88:	47c8      	blx	r9
 8003d8a:	3001      	adds	r0, #1
 8003d8c:	d103      	bne.n	8003d96 <_printf_common+0xb6>
 8003d8e:	f04f 30ff 	mov.w	r0, #4294967295	@ 0xffffffff
 8003d92:	e8bd 87f0 	ldmia.w	sp!, {r4, r5, r6, r7, r8, r9, sl, pc}
 8003d96:	3501      	adds	r5, #1
 8003d98:	e7c1      	b.n	8003d1e <_printf_common+0x3e>
 8003d9a:	2030      	movs	r0, #48	@ 0x30
 8003d9c:	18e1      	adds	r1, r4, r3
 8003d9e:	f881 0043 	strb.w	r0, [r1, #67]	@ 0x43
 8003da2:	1c5a      	adds	r2, r3, #1
 8003da4:	f894 1045 	ldrb.w	r1, [r4, #69]	@ 0x45
 8003da8:	4422      	add	r2, r4
 8003daa:	3302      	adds	r3, #2
 8003dac:	f882 1043 	strb.w	r1, [r2, #67]	@ 0x43
 8003db0:	e7c2      	b.n	8003d38 <_printf_common+0x58>
 8003db2:	2301      	movs	r3, #1
 8003db4:	4622      	mov	r2, r4
 8003db6:	4641      	mov	r1, r8
 8003db8:	4638      	mov	r0, r7
 8003dba:	47c8      	blx	r9
 8003dbc:	3001      	adds	r0, #1
 8003dbe:	d0e6      	beq.n	8003d8e <_printf_common+0xae>
 8003dc0:	3601      	adds	r6, #1
 8003dc2:	e7d9      	b.n	8003d78 <_printf_common+0x98>

08003dc4 <_printf_i>:
 8003dc4:	e92d 43f0 	stmdb	sp!, {r4, r5, r6, r7, r8, r9, lr}
 8003dc8:	7e0d      	ldrb	r5, [r1, #24]
 8003dca:	b085      	sub	sp, #20
 8003dcc:	2d78      	cmp	r5, #120	@ 0x78
 8003dce:	4690      	mov	r8, r2
 8003dd0:	4607      	mov	r7, r0
 8003dd2:	460c      	mov	r4, r1
 8003dd4:	4699      	mov	r9, r3
 8003dd6:	9e0c      	ldr	r6, [sp, #48]	@ 0x30
 8003dd8:	f101 0243 	add.w	r2, r1, #67	@ 0x43
 8003ddc:	d807      	bhi.n	8003dee <_printf_i+0x2a>
 8003dde:	2d62      	cmp	r5, #98	@ 0x62
 8003de0:	d80a      	bhi.n	8003df8 <_printf_i+0x34>
 8003de2:	2d00      	cmp	r5, #0
 8003de4:	f000 80d7 	beq.w	8003f96 <_printf_i+0x1d2>
 8003de8:	2d58      	cmp	r5, #88	@ 0x58
 8003dea:	f000 80bc 	beq.w	8003f66 <_printf_i+0x1a2>
 8003dee:	f104 0642 	add.w	r6, r4, #66	@ 0x42
 8003df2:	f884 5042 	strb.w	r5, [r4, #66]	@ 0x42
 8003df6:	e03b      	b.n	8003e70 <_printf_i+0xac>
 8003df8:	f1a5 0363 	sub.w	r3, r5, #99	@ 0x63
 8003dfc:	2b15      	cmp	r3, #21
 8003dfe:	d8f6      	bhi.n	8003dee <_printf_i+0x2a>
 8003e00:	a101      	add	r1, pc, #4	@ (adr r1, 8003e08 <_printf_i+0x44>)
 8003e02:	f851 f023 	ldr.w	pc, [r1, r3, lsl #2]
 8003e06:	bf00      	nop
 8003e08:	08003e61 	.word	0x08003e61
 8003e0c:	08003e75 	.word	0x08003e75
 8003e10:	08003def 	.word	0x08003def
 8003e14:	08003def 	.word	0x08003def
 8003e18:	08003def 	.word	0x08003def
 8003e1c:	08003def 	.word	0x08003def
 8003e20:	08003e75 	.word	0x08003e75
 8003e24:	08003def 	.word	0x08003def
 8003e28:	08003def 	.word	0x08003def
 8003e2c:	08003def 	.word	0x08003def
 8003e30:	08003def 	.word	0x08003def
 8003e34:	08003f7d 	.word	0x08003f7d
 8003e38:	08003e9f 	.word	0x08003e9f
 8003e3c:	08003f2f 	.word	0x08003f2f
 8003e40:	08003def 	.word	0x08003def
 8003e44:	08003def 	.word	0x08003def
 8003e48:	08003f9f 	.word	0x08003f9f
 8003e4c:	08003def 	.word	0x08003def
 8003e50:	08003e9f 	.word	0x08003e9f
 8003e54:	08003def 	.word	0x08003def
 8003e58:	08003def 	.word	0x08003def
 8003e5c:	08003f37 	.word	0x08003f37
 8003e60:	6833      	ldr	r3, [r6, #0]
 8003e62:	1d1a      	adds	r2, r3, #4
 8003e64:	681b      	ldr	r3, [r3, #0]
 8003e66:	6032      	str	r2, [r6, #0]
 8003e68:	f104 0642 	add.w	r6, r4, #66	@ 0x42
 8003e6c:	f884 3042 	strb.w	r3, [r4, #66]	@ 0x42
 8003e70:	2301      	movs	r3, #1
 8003e72:	e0a1      	b.n	8003fb8 <_printf_i+0x1f4>
 8003e74:	6833      	ldr	r3, [r6, #0]
 8003e76:	6820      	ldr	r0, [r4, #0]
 8003e78:	1d19      	adds	r1, r3, #4
 8003e7a:	6031      	str	r1, [r6, #0]
 8003e7c:	0606      	lsls	r6, r0, #24
 8003e7e:	d501      	bpl.n	8003e84 <_printf_i+0xc0>
 8003e80:	681d      	ldr	r5, [r3, #0]
 8003e82:	e003      	b.n	8003e8c <_printf_i+0xc8>
 8003e84:	0645      	lsls	r5, r0, #25
 8003e86:	d5fb      	bpl.n	8003e80 <_printf_i+0xbc>
 8003e88:	f9b3 5000 	ldrsh.w	r5, [r3]
 8003e8c:	2d00      	cmp	r5, #0
 8003e8e:	da03      	bge.n	8003e98 <_printf_i+0xd4>
 8003e90:	232d      	movs	r3, #45	@ 0x2d
 8003e92:	426d      	negs	r5, r5
 8003e94:	f884 3043 	strb.w	r3, [r4, #67]	@ 0x43
 8003e98:	230a      	movs	r3, #10
 8003e9a:	485b      	ldr	r0, [pc, #364]	@ (8004008 <_printf_i+0x244>)
 8003e9c:	e011      	b.n	8003ec2 <_printf_i+0xfe>
 8003e9e:	6821      	ldr	r1, [r4, #0]
 8003ea0:	6833      	ldr	r3, [r6, #0]
 8003ea2:	0608      	lsls	r0, r1, #24
 8003ea4:	f853 5b04 	ldr.w	r5, [r3], #4
 8003ea8:	d402      	bmi.n	8003eb0 <_printf_i+0xec>
 8003eaa:	0649      	lsls	r1, r1, #25
 8003eac:	bf48      	it	mi
 8003eae:	b2ad      	uxthmi	r5, r5
 8003eb0:	6033      	str	r3, [r6, #0]
 8003eb2:	7e23      	ldrb	r3, [r4, #24]
 8003eb4:	4854      	ldr	r0, [pc, #336]	@ (8004008 <_printf_i+0x244>)
 8003eb6:	2b6f      	cmp	r3, #111	@ 0x6f
 8003eb8:	d15c      	bne.n	8003f74 <_printf_i+0x1b0>
 8003eba:	2308      	movs	r3, #8
 8003ebc:	2100      	movs	r1, #0
 8003ebe:	f884 1043 	strb.w	r1, [r4, #67]	@ 0x43
 8003ec2:	6866      	ldr	r6, [r4, #4]
 8003ec4:	2e00      	cmp	r6, #0
 8003ec6:	60a6      	str	r6, [r4, #8]
 8003ec8:	db05      	blt.n	8003ed6 <_printf_i+0x112>
 8003eca:	6821      	ldr	r1, [r4, #0]
 8003ecc:	432e      	orrs	r6, r5
 8003ece:	f021 0104 	bic.w	r1, r1, #4
 8003ed2:	6021      	str	r1, [r4, #0]
 8003ed4:	d050      	beq.n	8003f78 <_printf_i+0x1b4>
 8003ed6:	4616      	mov	r6, r2
 8003ed8:	fbb5 f1f3 	udiv	r1, r5, r3
 8003edc:	fb03 5c11 	mls	ip, r3, r1, r5
 8003ee0:	f810 c00c 	ldrb.w	ip, [r0, ip]
 8003ee4:	f806 cd01 	strb.w	ip, [r6, #-1]!
 8003ee8:	46ac      	mov	ip, r5
 8003eea:	4563      	cmp	r3, ip
 8003eec:	460d      	mov	r5, r1
 8003eee:	d9f3      	bls.n	8003ed8 <_printf_i+0x114>
 8003ef0:	2b08      	cmp	r3, #8
 8003ef2:	d10b      	bne.n	8003f0c <_printf_i+0x148>
 8003ef4:	6823      	ldr	r3, [r4, #0]
 8003ef6:	07db      	lsls	r3, r3, #31
 8003ef8:	d508      	bpl.n	8003f0c <_printf_i+0x148>
 8003efa:	6923      	ldr	r3, [r4, #16]
 8003efc:	6861      	ldr	r1, [r4, #4]
 8003efe:	4299      	cmp	r1, r3
 8003f00:	bfde      	ittt	le
 8003f02:	2330      	movle	r3, #48	@ 0x30
 8003f04:	f806 3c01 	strble.w	r3, [r6, #-1]
 8003f08:	f106 36ff 	addle.w	r6, r6, #4294967295	@ 0xffffffff
 8003f0c:	1b92      	subs	r2, r2, r6
 8003f0e:	6122      	str	r2, [r4, #16]
 8003f10:	4643      	mov	r3, r8
 8003f12:	4621      	mov	r1, r4
 8003f14:	4638      	mov	r0, r7
 8003f16:	f8cd 9000 	str.w	r9, [sp]
 8003f1a:	aa03      	add	r2, sp, #12
 8003f1c:	f7ff fee0 	bl	8003ce0 <_printf_common>
 8003f20:	3001      	adds	r0, #1
 8003f22:	d14e      	bne.n	8003fc2 <_printf_i+0x1fe>
 8003f24:	f04f 30ff 	mov.w	r0, #4294967295	@ 0xffffffff
 8003f28:	b005      	add	sp, #20
 8003f2a:	e8bd 83f0 	ldmia.w	sp!, {r4, r5, r6, r7, r8, r9, pc}
 8003f2e:	6823      	ldr	r3, [r4, #0]
 8003f30:	f043 0320 	orr.w	r3, r3, #32
 8003f34:	6023      	str	r3, [r4, #0]
 8003f36:	2578      	movs	r5, #120	@ 0x78
 8003f38:	4834      	ldr	r0, [pc, #208]	@ (800400c <_printf_i+0x248>)
 8003f3a:	f884 5045 	strb.w	r5, [r4, #69]	@ 0x45
 8003f3e:	6823      	ldr	r3, [r4, #0]
 8003f40:	6831      	ldr	r1, [r6, #0]
 8003f42:	f013 0f80 	tst.w	r3, #128	@ 0x80
 8003f46:	f851 5b04 	ldr.w	r5, [r1], #4
 8003f4a:	d103      	bne.n	8003f54 <_printf_i+0x190>
 8003f4c:	f013 0f40 	tst.w	r3, #64	@ 0x40
 8003f50:	bf18      	it	ne
 8003f52:	b2ad      	uxthne	r5, r5
 8003f54:	6031      	str	r1, [r6, #0]
 8003f56:	07d9      	lsls	r1, r3, #31
 8003f58:	bf44      	itt	mi
 8003f5a:	f043 0320 	orrmi.w	r3, r3, #32
 8003f5e:	6023      	strmi	r3, [r4, #0]
 8003f60:	b11d      	cbz	r5, 8003f6a <_printf_i+0x1a6>
 8003f62:	2310      	movs	r3, #16
 8003f64:	e7aa      	b.n	8003ebc <_printf_i+0xf8>
 8003f66:	4828      	ldr	r0, [pc, #160]	@ (8004008 <_printf_i+0x244>)
 8003f68:	e7e7      	b.n	8003f3a <_printf_i+0x176>
 8003f6a:	6823      	ldr	r3, [r4, #0]
 8003f6c:	f023 0320 	bic.w	r3, r3, #32
 8003f70:	6023      	str	r3, [r4, #0]
 8003f72:	e7f6      	b.n	8003f62 <_printf_i+0x19e>
 8003f74:	230a      	movs	r3, #10
 8003f76:	e7a1      	b.n	8003ebc <_printf_i+0xf8>
 8003f78:	4616      	mov	r6, r2
 8003f7a:	e7b9      	b.n	8003ef0 <_printf_i+0x12c>
 8003f7c:	6833      	ldr	r3, [r6, #0]
 8003f7e:	6825      	ldr	r5, [r4, #0]
 8003f80:	1d18      	adds	r0, r3, #4
 8003f82:	6961      	ldr	r1, [r4, #20]
 8003f84:	6030      	str	r0, [r6, #0]
 8003f86:	062e      	lsls	r6, r5, #24
 8003f88:	681b      	ldr	r3, [r3, #0]
 8003f8a:	d501      	bpl.n	8003f90 <_printf_i+0x1cc>
 8003f8c:	6019      	str	r1, [r3, #0]
 8003f8e:	e002      	b.n	8003f96 <_printf_i+0x1d2>
 8003f90:	0668      	lsls	r0, r5, #25
 8003f92:	d5fb      	bpl.n	8003f8c <_printf_i+0x1c8>
 8003f94:	8019      	strh	r1, [r3, #0]
 8003f96:	2300      	movs	r3, #0
 8003f98:	4616      	mov	r6, r2
 8003f9a:	6123      	str	r3, [r4, #16]
 8003f9c:	e7b8      	b.n	8003f10 <_printf_i+0x14c>
 8003f9e:	6833      	ldr	r3, [r6, #0]
 8003fa0:	2100      	movs	r1, #0
 8003fa2:	1d1a      	adds	r2, r3, #4
 8003fa4:	6032      	str	r2, [r6, #0]
 8003fa6:	681e      	ldr	r6, [r3, #0]
 8003fa8:	6862      	ldr	r2, [r4, #4]
 8003faa:	4630      	mov	r0, r6
 8003fac:	f000 f92e 	bl	800420c <memchr>
 8003fb0:	b108      	cbz	r0, 8003fb6 <_printf_i+0x1f2>
 8003fb2:	1b80      	subs	r0, r0, r6
 8003fb4:	6060      	str	r0, [r4, #4]
 8003fb6:	6863      	ldr	r3, [r4, #4]
 8003fb8:	6123      	str	r3, [r4, #16]
 8003fba:	2300      	movs	r3, #0
 8003fbc:	f884 3043 	strb.w	r3, [r4, #67]	@ 0x43
 8003fc0:	e7a6      	b.n	8003f10 <_printf_i+0x14c>
 8003fc2:	4632      	mov	r2, r6
 8003fc4:	4641      	mov	r1, r8
 8003fc6:	4638      	mov	r0, r7
 8003fc8:	6923      	ldr	r3, [r4, #16]
 8003fca:	47c8      	blx	r9
 8003fcc:	3001      	adds	r0, #1
 8003fce:	d0a9      	beq.n	8003f24 <_printf_i+0x160>
 8003fd0:	6823      	ldr	r3, [r4, #0]
 8003fd2:	079b      	lsls	r3, r3, #30
 8003fd4:	d413      	bmi.n	8003ffe <_printf_i+0x23a>
 8003fd6:	68e0      	ldr	r0, [r4, #12]
 8003fd8:	9b03      	ldr	r3, [sp, #12]
 8003fda:	4298      	cmp	r0, r3
 8003fdc:	bfb8      	it	lt
 8003fde:	4618      	movlt	r0, r3
 8003fe0:	e7a2      	b.n	8003f28 <_printf_i+0x164>
 8003fe2:	2301      	movs	r3, #1
 8003fe4:	4632      	mov	r2, r6
 8003fe6:	4641      	mov	r1, r8
 8003fe8:	4638      	mov	r0, r7
 8003fea:	47c8      	blx	r9
 8003fec:	3001      	adds	r0, #1
 8003fee:	d099      	beq.n	8003f24 <_printf_i+0x160>
 8003ff0:	3501      	adds	r5, #1
 8003ff2:	68e3      	ldr	r3, [r4, #12]
 8003ff4:	9903      	ldr	r1, [sp, #12]
 8003ff6:	1a5b      	subs	r3, r3, r1
 8003ff8:	42ab      	cmp	r3, r5
 8003ffa:	dcf2      	bgt.n	8003fe2 <_printf_i+0x21e>
 8003ffc:	e7eb      	b.n	8003fd6 <_printf_i+0x212>
 8003ffe:	2500      	movs	r5, #0
 8004000:	f104 0619 	add.w	r6, r4, #25
 8004004:	e7f5      	b.n	8003ff2 <_printf_i+0x22e>
 8004006:	bf00      	nop
 8004008:	08006222 	.word	0x08006222
 800400c:	08006233 	.word	0x08006233

08004010 <std>:
 8004010:	2300      	movs	r3, #0
 8004012:	b510      	push	{r4, lr}
 8004014:	4604      	mov	r4, r0
 8004016:	e9c0 3300 	strd	r3, r3, [r0]
 800401a:	e9c0 3304 	strd	r3, r3, [r0, #16]
 800401e:	6083      	str	r3, [r0, #8]
 8004020:	8181      	strh	r1, [r0, #12]
 8004022:	6643      	str	r3, [r0, #100]	@ 0x64
 8004024:	81c2      	strh	r2, [r0, #14]
 8004026:	6183      	str	r3, [r0, #24]
 8004028:	4619      	mov	r1, r3
 800402a:	2208      	movs	r2, #8
 800402c:	305c      	adds	r0, #92	@ 0x5c
 800402e:	f000 f8b3 	bl	8004198 <memset>
 8004032:	4b0d      	ldr	r3, [pc, #52]	@ (8004068 <std+0x58>)
 8004034:	6224      	str	r4, [r4, #32]
 8004036:	6263      	str	r3, [r4, #36]	@ 0x24
 8004038:	4b0c      	ldr	r3, [pc, #48]	@ (800406c <std+0x5c>)
 800403a:	62a3      	str	r3, [r4, #40]	@ 0x28
 800403c:	4b0c      	ldr	r3, [pc, #48]	@ (8004070 <std+0x60>)
 800403e:	62e3      	str	r3, [r4, #44]	@ 0x2c
 8004040:	4b0c      	ldr	r3, [pc, #48]	@ (8004074 <std+0x64>)
 8004042:	6323      	str	r3, [r4, #48]	@ 0x30
 8004044:	4b0c      	ldr	r3, [pc, #48]	@ (8004078 <std+0x68>)
 8004046:	429c      	cmp	r4, r3
 8004048:	d006      	beq.n	8004058 <std+0x48>
 800404a:	f103 0268 	add.w	r2, r3, #104	@ 0x68
 800404e:	4294      	cmp	r4, r2
 8004050:	d002      	beq.n	8004058 <std+0x48>
 8004052:	33d0      	adds	r3, #208	@ 0xd0
 8004054:	429c      	cmp	r4, r3
 8004056:	d105      	bne.n	8004064 <std+0x54>
 8004058:	f104 0058 	add.w	r0, r4, #88	@ 0x58
 800405c:	e8bd 4010 	ldmia.w	sp!, {r4, lr}
 8004060:	f000 b8cc 	b.w	80041fc <__retarget_lock_init_recursive>
 8004064:	bd10      	pop	{r4, pc}
 8004066:	bf00      	nop
 8004068:	080058c5 	.word	0x080058c5
 800406c:	080058e7 	.word	0x080058e7
 8004070:	0800591f 	.word	0x0800591f
 8004074:	08005945 	.word	0x08005945
 8004078:	20000960 	.word	0x20000960

0800407c <stdio_exit_handler>:
 800407c:	4a02      	ldr	r2, [pc, #8]	@ (8004088 <stdio_exit_handler+0xc>)
 800407e:	4903      	ldr	r1, [pc, #12]	@ (800408c <stdio_exit_handler+0x10>)
 8004080:	4803      	ldr	r0, [pc, #12]	@ (8004090 <stdio_exit_handler+0x14>)
 8004082:	f000 b86b 	b.w	800415c <_fwalk_sglue>
 8004086:	bf00      	nop
 8004088:	2000000c 	.word	0x2000000c
 800408c:	08005155 	.word	0x08005155
 8004090:	2000001c 	.word	0x2000001c

08004094 <cleanup_stdio>:
 8004094:	6841      	ldr	r1, [r0, #4]
 8004096:	4b0c      	ldr	r3, [pc, #48]	@ (80040c8 <cleanup_stdio+0x34>)
 8004098:	b510      	push	{r4, lr}
 800409a:	4299      	cmp	r1, r3
 800409c:	4604      	mov	r4, r0
 800409e:	d001      	beq.n	80040a4 <cleanup_stdio+0x10>
 80040a0:	f001 f858 	bl	8005154 <_fflush_r>
 80040a4:	68a1      	ldr	r1, [r4, #8]
 80040a6:	4b09      	ldr	r3, [pc, #36]	@ (80040cc <cleanup_stdio+0x38>)
 80040a8:	4299      	cmp	r1, r3
 80040aa:	d002      	beq.n	80040b2 <cleanup_stdio+0x1e>
 80040ac:	4620      	mov	r0, r4
 80040ae:	f001 f851 	bl	8005154 <_fflush_r>
 80040b2:	68e1      	ldr	r1, [r4, #12]
 80040b4:	4b06      	ldr	r3, [pc, #24]	@ (80040d0 <cleanup_stdio+0x3c>)
 80040b6:	4299      	cmp	r1, r3
 80040b8:	d004      	beq.n	80040c4 <cleanup_stdio+0x30>
 80040ba:	4620      	mov	r0, r4
 80040bc:	e8bd 4010 	ldmia.w	sp!, {r4, lr}
 80040c0:	f001 b848 	b.w	8005154 <_fflush_r>
 80040c4:	bd10      	pop	{r4, pc}
 80040c6:	bf00      	nop
 80040c8:	20000960 	.word	0x20000960
 80040cc:	200009c8 	.word	0x200009c8
 80040d0:	20000a30 	.word	0x20000a30

080040d4 <global_stdio_init.part.0>:
 80040d4:	4b0c      	ldr	r3, [pc, #48]	@ (8004108 <global_stdio_init.part.0+0x34>)
 80040d6:	4a0d      	ldr	r2, [pc, #52]	@ (800410c <global_stdio_init.part.0+0x38>)
 80040d8:	b510      	push	{r4, lr}
 80040da:	2104      	movs	r1, #4
 80040dc:	601a      	str	r2, [r3, #0]
 80040de:	480c      	ldr	r0, [pc, #48]	@ (8004110 <global_stdio_init.part.0+0x3c>)
 80040e0:	2200      	movs	r2, #0
 80040e2:	f7ff ff95 	bl	8004010 <std>
 80040e6:	4b0a      	ldr	r3, [pc, #40]	@ (8004110 <global_stdio_init.part.0+0x3c>)
 80040e8:	2201      	movs	r2, #1
 80040ea:	461c      	mov	r4, r3
 80040ec:	2109      	movs	r1, #9
 80040ee:	f103 0068 	add.w	r0, r3, #104	@ 0x68
 80040f2:	f7ff ff8d 	bl	8004010 <std>
 80040f6:	f104 00d0 	add.w	r0, r4, #208	@ 0xd0
 80040fa:	2202      	movs	r2, #2
 80040fc:	e8bd 4010 	ldmia.w	sp!, {r4, lr}
 8004100:	2112      	movs	r1, #18
 8004102:	f7ff bf85 	b.w	8004010 <std>
 8004106:	bf00      	nop
 8004108:	20000a98 	.word	0x20000a98
 800410c:	0800407d 	.word	0x0800407d
 8004110:	20000960 	.word	0x20000960

08004114 <__sfp_lock_acquire>:
 8004114:	4801      	ldr	r0, [pc, #4]	@ (800411c <__sfp_lock_acquire+0x8>)
 8004116:	f000 b872 	b.w	80041fe <__retarget_lock_acquire_recursive>
 800411a:	bf00      	nop
 800411c:	20000a9d 	.word	0x20000a9d

08004120 <__sfp_lock_release>:
 8004120:	4801      	ldr	r0, [pc, #4]	@ (8004128 <__sfp_lock_release+0x8>)
 8004122:	f000 b86d 	b.w	8004200 <__retarget_lock_release_recursive>
 8004126:	bf00      	nop
 8004128:	20000a9d 	.word	0x20000a9d

0800412c <__sinit>:
 800412c:	b510      	push	{r4, lr}
 800412e:	4604      	mov	r4, r0
 8004130:	f7ff fff0 	bl	8004114 <__sfp_lock_acquire>
 8004134:	6a23      	ldr	r3, [r4, #32]
 8004136:	b11b      	cbz	r3, 8004140 <__sinit+0x14>
 8004138:	e8bd 4010 	ldmia.w	sp!, {r4, lr}
 800413c:	f7ff bff0 	b.w	8004120 <__sfp_lock_release>
 8004140:	4b04      	ldr	r3, [pc, #16]	@ (8004154 <__sinit+0x28>)
 8004142:	6223      	str	r3, [r4, #32]
 8004144:	4b04      	ldr	r3, [pc, #16]	@ (8004158 <__sinit+0x2c>)
 8004146:	681b      	ldr	r3, [r3, #0]
 8004148:	2b00      	cmp	r3, #0
 800414a:	d1f5      	bne.n	8004138 <__sinit+0xc>
 800414c:	f7ff ffc2 	bl	80040d4 <global_stdio_init.part.0>
 8004150:	e7f2      	b.n	8004138 <__sinit+0xc>
 8004152:	bf00      	nop
 8004154:	08004095 	.word	0x08004095
 8004158:	20000a98 	.word	0x20000a98

0800415c <_fwalk_sglue>:
 800415c:	e92d 43f8 	stmdb	sp!, {r3, r4, r5, r6, r7, r8, r9, lr}
 8004160:	4607      	mov	r7, r0
 8004162:	4688      	mov	r8, r1
 8004164:	4614      	mov	r4, r2
 8004166:	2600      	movs	r6, #0
 8004168:	e9d4 9501 	ldrd	r9, r5, [r4, #4]
 800416c:	f1b9 0901 	subs.w	r9, r9, #1
 8004170:	d505      	bpl.n	800417e <_fwalk_sglue+0x22>
 8004172:	6824      	ldr	r4, [r4, #0]
 8004174:	2c00      	cmp	r4, #0
 8004176:	d1f7      	bne.n	8004168 <_fwalk_sglue+0xc>
 8004178:	4630      	mov	r0, r6
 800417a:	e8bd 83f8 	ldmia.w	sp!, {r3, r4, r5, r6, r7, r8, r9, pc}
 800417e:	89ab      	ldrh	r3, [r5, #12]
 8004180:	2b01      	cmp	r3, #1
 8004182:	d907      	bls.n	8004194 <_fwalk_sglue+0x38>
 8004184:	f9b5 300e 	ldrsh.w	r3, [r5, #14]
 8004188:	3301      	adds	r3, #1
 800418a:	d003      	beq.n	8004194 <_fwalk_sglue+0x38>
 800418c:	4629      	mov	r1, r5
 800418e:	4638      	mov	r0, r7
 8004190:	47c0      	blx	r8
 8004192:	4306      	orrs	r6, r0
 8004194:	3568      	adds	r5, #104	@ 0x68
 8004196:	e7e9      	b.n	800416c <_fwalk_sglue+0x10>

08004198 <memset>:
 8004198:	4603      	mov	r3, r0
 800419a:	4402      	add	r2, r0
 800419c:	4293      	cmp	r3, r2
 800419e:	d100      	bne.n	80041a2 <memset+0xa>
 80041a0:	4770      	bx	lr
 80041a2:	f803 1b01 	strb.w	r1, [r3], #1
 80041a6:	e7f9      	b.n	800419c <memset+0x4>

080041a8 <__errno>:
 80041a8:	4b01      	ldr	r3, [pc, #4]	@ (80041b0 <__errno+0x8>)
 80041aa:	6818      	ldr	r0, [r3, #0]
 80041ac:	4770      	bx	lr
 80041ae:	bf00      	nop
 80041b0:	20000018 	.word	0x20000018

080041b4 <__libc_init_array>:
 80041b4:	b570      	push	{r4, r5, r6, lr}
 80041b6:	2600      	movs	r6, #0
 80041b8:	4d0c      	ldr	r5, [pc, #48]	@ (80041ec <__libc_init_array+0x38>)
 80041ba:	4b0d      	ldr	r3, [pc, #52]	@ (80041f0 <__libc_init_array+0x3c>)
 80041bc:	1b5b      	subs	r3, r3, r5
 80041be:	109c      	asrs	r4, r3, #2
 80041c0:	42a6      	cmp	r6, r4
 80041c2:	d109      	bne.n	80041d8 <__libc_init_array+0x24>
 80041c4:	2600      	movs	r6, #0
 80041c6:	f001 ff69 	bl	800609c <_init>
 80041ca:	4d0a      	ldr	r5, [pc, #40]	@ (80041f4 <__libc_init_array+0x40>)
 80041cc:	4b0a      	ldr	r3, [pc, #40]	@ (80041f8 <__libc_init_array+0x44>)
 80041ce:	1b5b      	subs	r3, r3, r5
 80041d0:	109c      	asrs	r4, r3, #2
 80041d2:	42a6      	cmp	r6, r4
 80041d4:	d105      	bne.n	80041e2 <__libc_init_array+0x2e>
 80041d6:	bd70      	pop	{r4, r5, r6, pc}
 80041d8:	f855 3b04 	ldr.w	r3, [r5], #4
 80041dc:	4798      	blx	r3
 80041de:	3601      	adds	r6, #1
 80041e0:	e7ee      	b.n	80041c0 <__libc_init_array+0xc>
 80041e2:	f855 3b04 	ldr.w	r3, [r5], #4
 80041e6:	4798      	blx	r3
 80041e8:	3601      	adds	r6, #1
 80041ea:	e7f2      	b.n	80041d2 <__libc_init_array+0x1e>
 80041ec:	0800658c 	.word	0x0800658c
 80041f0:	0800658c 	.word	0x0800658c
 80041f4:	0800658c 	.word	0x0800658c
 80041f8:	08006590 	.word	0x08006590

080041fc <__retarget_lock_init_recursive>:
 80041fc:	4770      	bx	lr

080041fe <__retarget_lock_acquire_recursive>:
 80041fe:	4770      	bx	lr

08004200 <__retarget_lock_release_recursive>:
 8004200:	4770      	bx	lr
	...

08004204 <_localeconv_r>:
 8004204:	4800      	ldr	r0, [pc, #0]	@ (8004208 <_localeconv_r+0x4>)
 8004206:	4770      	bx	lr
 8004208:	20000158 	.word	0x20000158

0800420c <memchr>:
 800420c:	4603      	mov	r3, r0
 800420e:	b510      	push	{r4, lr}
 8004210:	b2c9      	uxtb	r1, r1
 8004212:	4402      	add	r2, r0
 8004214:	4293      	cmp	r3, r2
 8004216:	4618      	mov	r0, r3
 8004218:	d101      	bne.n	800421e <memchr+0x12>
 800421a:	2000      	movs	r0, #0
 800421c:	e003      	b.n	8004226 <memchr+0x1a>
 800421e:	7804      	ldrb	r4, [r0, #0]
 8004220:	3301      	adds	r3, #1
 8004222:	428c      	cmp	r4, r1
 8004224:	d1f6      	bne.n	8004214 <memchr+0x8>
 8004226:	bd10      	pop	{r4, pc}

08004228 <quorem>:
 8004228:	e92d 4ff7 	stmdb	sp!, {r0, r1, r2, r4, r5, r6, r7, r8, r9, sl, fp, lr}
 800422c:	6903      	ldr	r3, [r0, #16]
 800422e:	690c      	ldr	r4, [r1, #16]
 8004230:	4607      	mov	r7, r0
 8004232:	42a3      	cmp	r3, r4
 8004234:	db7e      	blt.n	8004334 <quorem+0x10c>
 8004236:	3c01      	subs	r4, #1
 8004238:	00a3      	lsls	r3, r4, #2
 800423a:	f100 0514 	add.w	r5, r0, #20
 800423e:	f101 0814 	add.w	r8, r1, #20
 8004242:	9300      	str	r3, [sp, #0]
 8004244:	eb05 0384 	add.w	r3, r5, r4, lsl #2
 8004248:	9301      	str	r3, [sp, #4]
 800424a:	f858 3024 	ldr.w	r3, [r8, r4, lsl #2]
 800424e:	f855 2024 	ldr.w	r2, [r5, r4, lsl #2]
 8004252:	3301      	adds	r3, #1
 8004254:	429a      	cmp	r2, r3
 8004256:	fbb2 f6f3 	udiv	r6, r2, r3
 800425a:	eb08 0984 	add.w	r9, r8, r4, lsl #2
 800425e:	d32e      	bcc.n	80042be <quorem+0x96>
 8004260:	f04f 0a00 	mov.w	sl, #0
 8004264:	46c4      	mov	ip, r8
 8004266:	46ae      	mov	lr, r5
 8004268:	46d3      	mov	fp, sl
 800426a:	f85c 3b04 	ldr.w	r3, [ip], #4
 800426e:	b298      	uxth	r0, r3
 8004270:	fb06 a000 	mla	r0, r6, r0, sl
 8004274:	0c1b      	lsrs	r3, r3, #16
 8004276:	0c02      	lsrs	r2, r0, #16
 8004278:	fb06 2303 	mla	r3, r6, r3, r2
 800427c:	f8de 2000 	ldr.w	r2, [lr]
 8004280:	b280      	uxth	r0, r0
 8004282:	b292      	uxth	r2, r2
 8004284:	1a12      	subs	r2, r2, r0
 8004286:	445a      	add	r2, fp
 8004288:	f8de 0000 	ldr.w	r0, [lr]
 800428c:	ea4f 4a13 	mov.w	sl, r3, lsr #16
 8004290:	b29b      	uxth	r3, r3
 8004292:	ebc3 4322 	rsb	r3, r3, r2, asr #16
 8004296:	eb03 4310 	add.w	r3, r3, r0, lsr #16
 800429a:	b292      	uxth	r2, r2
 800429c:	ea42 4203 	orr.w	r2, r2, r3, lsl #16
 80042a0:	45e1      	cmp	r9, ip
 80042a2:	ea4f 4b23 	mov.w	fp, r3, asr #16
 80042a6:	f84e 2b04 	str.w	r2, [lr], #4
 80042aa:	d2de      	bcs.n	800426a <quorem+0x42>
 80042ac:	9b00      	ldr	r3, [sp, #0]
 80042ae:	58eb      	ldr	r3, [r5, r3]
 80042b0:	b92b      	cbnz	r3, 80042be <quorem+0x96>
 80042b2:	9b01      	ldr	r3, [sp, #4]
 80042b4:	3b04      	subs	r3, #4
 80042b6:	429d      	cmp	r5, r3
 80042b8:	461a      	mov	r2, r3
 80042ba:	d32f      	bcc.n	800431c <quorem+0xf4>
 80042bc:	613c      	str	r4, [r7, #16]
 80042be:	4638      	mov	r0, r7
 80042c0:	f001 f9f4 	bl	80056ac <__mcmp>
 80042c4:	2800      	cmp	r0, #0
 80042c6:	db25      	blt.n	8004314 <quorem+0xec>
 80042c8:	4629      	mov	r1, r5
 80042ca:	2000      	movs	r0, #0
 80042cc:	f858 2b04 	ldr.w	r2, [r8], #4
 80042d0:	f8d1 c000 	ldr.w	ip, [r1]
 80042d4:	fa1f fe82 	uxth.w	lr, r2
 80042d8:	fa1f f38c 	uxth.w	r3, ip
 80042dc:	eba3 030e 	sub.w	r3, r3, lr
 80042e0:	4403      	add	r3, r0
 80042e2:	0c12      	lsrs	r2, r2, #16
 80042e4:	ebc2 4223 	rsb	r2, r2, r3, asr #16
 80042e8:	eb02 421c 	add.w	r2, r2, ip, lsr #16
 80042ec:	b29b      	uxth	r3, r3
 80042ee:	ea43 4302 	orr.w	r3, r3, r2, lsl #16
 80042f2:	45c1      	cmp	r9, r8
 80042f4:	ea4f 4022 	mov.w	r0, r2, asr #16
 80042f8:	f841 3b04 	str.w	r3, [r1], #4
 80042fc:	d2e6      	bcs.n	80042cc <quorem+0xa4>
 80042fe:	f855 2024 	ldr.w	r2, [r5, r4, lsl #2]
 8004302:	eb05 0384 	add.w	r3, r5, r4, lsl #2
 8004306:	b922      	cbnz	r2, 8004312 <quorem+0xea>
 8004308:	3b04      	subs	r3, #4
 800430a:	429d      	cmp	r5, r3
 800430c:	461a      	mov	r2, r3
 800430e:	d30b      	bcc.n	8004328 <quorem+0x100>
 8004310:	613c      	str	r4, [r7, #16]
 8004312:	3601      	adds	r6, #1
 8004314:	4630      	mov	r0, r6
 8004316:	b003      	add	sp, #12
 8004318:	e8bd 8ff0 	ldmia.w	sp!, {r4, r5, r6, r7, r8, r9, sl, fp, pc}
 800431c:	6812      	ldr	r2, [r2, #0]
 800431e:	3b04      	subs	r3, #4
 8004320:	2a00      	cmp	r2, #0
 8004322:	d1cb      	bne.n	80042bc <quorem+0x94>
 8004324:	3c01      	subs	r4, #1
 8004326:	e7c6      	b.n	80042b6 <quorem+0x8e>
 8004328:	6812      	ldr	r2, [r2, #0]
 800432a:	3b04      	subs	r3, #4
 800432c:	2a00      	cmp	r2, #0
 800432e:	d1ef      	bne.n	8004310 <quorem+0xe8>
 8004330:	3c01      	subs	r4, #1
 8004332:	e7ea      	b.n	800430a <quorem+0xe2>
 8004334:	2000      	movs	r0, #0
 8004336:	e7ee      	b.n	8004316 <quorem+0xee>

08004338 <_dtoa_r>:
 8004338:	e92d 4ff0 	stmdb	sp!, {r4, r5, r6, r7, r8, r9, sl, fp, lr}
 800433c:	4616      	mov	r6, r2
 800433e:	461f      	mov	r7, r3
 8004340:	69c2      	ldr	r2, [r0, #28]
 8004342:	b099      	sub	sp, #100	@ 0x64
 8004344:	4681      	mov	r9, r0
 8004346:	e9cd 670e 	strd	r6, r7, [sp, #56]	@ 0x38
 800434a:	9c25      	ldr	r4, [sp, #148]	@ 0x94
 800434c:	b982      	cbnz	r2, 8004370 <_dtoa_r+0x38>
 800434e:	2010      	movs	r0, #16
 8004350:	f000 fdd8 	bl	8004f04 <malloc>
 8004354:	4602      	mov	r2, r0
 8004356:	f8c9 001c 	str.w	r0, [r9, #28]
 800435a:	b920      	cbnz	r0, 8004366 <_dtoa_r+0x2e>
 800435c:	21ef      	movs	r1, #239	@ 0xef
 800435e:	4ba8      	ldr	r3, [pc, #672]	@ (8004600 <_dtoa_r+0x2c8>)
 8004360:	48a8      	ldr	r0, [pc, #672]	@ (8004604 <_dtoa_r+0x2cc>)
 8004362:	f001 fb57 	bl	8005a14 <__assert_func>
 8004366:	2300      	movs	r3, #0
 8004368:	e9c0 3301 	strd	r3, r3, [r0, #4]
 800436c:	6003      	str	r3, [r0, #0]
 800436e:	60c3      	str	r3, [r0, #12]
 8004370:	6811      	ldr	r1, [r2, #0]
 8004372:	b159      	cbz	r1, 800438c <_dtoa_r+0x54>
 8004374:	2301      	movs	r3, #1
 8004376:	6852      	ldr	r2, [r2, #4]
 8004378:	4648      	mov	r0, r9
 800437a:	4093      	lsls	r3, r2
 800437c:	604a      	str	r2, [r1, #4]
 800437e:	608b      	str	r3, [r1, #8]
 8004380:	f000 ff5a 	bl	8005238 <_Bfree>
 8004384:	2200      	movs	r2, #0
 8004386:	f8d9 301c 	ldr.w	r3, [r9, #28]
 800438a:	601a      	str	r2, [r3, #0]
 800438c:	f1b7 0800 	subs.w	r8, r7, #0
 8004390:	bfb5      	itete	lt
 8004392:	2301      	movlt	r3, #1
 8004394:	2300      	movge	r3, #0
 8004396:	6023      	strlt	r3, [r4, #0]
 8004398:	6023      	strge	r3, [r4, #0]
 800439a:	4b9b      	ldr	r3, [pc, #620]	@ (8004608 <_dtoa_r+0x2d0>)
 800439c:	bfbc      	itt	lt
 800439e:	f028 4800 	biclt.w	r8, r8, #2147483648	@ 0x80000000
 80043a2:	f8cd 803c 	strlt.w	r8, [sp, #60]	@ 0x3c
 80043a6:	ea33 0308 	bics.w	r3, r3, r8
 80043aa:	d11a      	bne.n	80043e2 <_dtoa_r+0xaa>
 80043ac:	f242 730f 	movw	r3, #9999	@ 0x270f
 80043b0:	9a24      	ldr	r2, [sp, #144]	@ 0x90
 80043b2:	f3c8 0813 	ubfx	r8, r8, #0, #20
 80043b6:	ea58 0806 	orrs.w	r8, r8, r6
 80043ba:	6013      	str	r3, [r2, #0]
 80043bc:	f000 8574 	beq.w	8004ea8 <_dtoa_r+0xb70>
 80043c0:	9b26      	ldr	r3, [sp, #152]	@ 0x98
 80043c2:	b953      	cbnz	r3, 80043da <_dtoa_r+0xa2>
 80043c4:	4b91      	ldr	r3, [pc, #580]	@ (800460c <_dtoa_r+0x2d4>)
 80043c6:	e021      	b.n	800440c <_dtoa_r+0xd4>
 80043c8:	4b91      	ldr	r3, [pc, #580]	@ (8004610 <_dtoa_r+0x2d8>)
 80043ca:	9303      	str	r3, [sp, #12]
 80043cc:	3308      	adds	r3, #8
 80043ce:	9a26      	ldr	r2, [sp, #152]	@ 0x98
 80043d0:	6013      	str	r3, [r2, #0]
 80043d2:	9803      	ldr	r0, [sp, #12]
 80043d4:	b019      	add	sp, #100	@ 0x64
 80043d6:	e8bd 8ff0 	ldmia.w	sp!, {r4, r5, r6, r7, r8, r9, sl, fp, pc}
 80043da:	4b8c      	ldr	r3, [pc, #560]	@ (800460c <_dtoa_r+0x2d4>)
 80043dc:	9303      	str	r3, [sp, #12]
 80043de:	3303      	adds	r3, #3
 80043e0:	e7f5      	b.n	80043ce <_dtoa_r+0x96>
 80043e2:	e9dd 340e 	ldrd	r3, r4, [sp, #56]	@ 0x38
 80043e6:	e9cd 340a 	strd	r3, r4, [sp, #40]	@ 0x28
 80043ea:	e9dd 010a 	ldrd	r0, r1, [sp, #40]	@ 0x28
 80043ee:	2200      	movs	r2, #0
 80043f0:	2300      	movs	r3, #0
 80043f2:	f7fc fad9 	bl	80009a8 <__aeabi_dcmpeq>
 80043f6:	4682      	mov	sl, r0
 80043f8:	b150      	cbz	r0, 8004410 <_dtoa_r+0xd8>
 80043fa:	2301      	movs	r3, #1
 80043fc:	9a24      	ldr	r2, [sp, #144]	@ 0x90
 80043fe:	6013      	str	r3, [r2, #0]
 8004400:	9b26      	ldr	r3, [sp, #152]	@ 0x98
 8004402:	b113      	cbz	r3, 800440a <_dtoa_r+0xd2>
 8004404:	4b83      	ldr	r3, [pc, #524]	@ (8004614 <_dtoa_r+0x2dc>)
 8004406:	9a26      	ldr	r2, [sp, #152]	@ 0x98
 8004408:	6013      	str	r3, [r2, #0]
 800440a:	4b83      	ldr	r3, [pc, #524]	@ (8004618 <_dtoa_r+0x2e0>)
 800440c:	9303      	str	r3, [sp, #12]
 800440e:	e7e0      	b.n	80043d2 <_dtoa_r+0x9a>
 8004410:	ab16      	add	r3, sp, #88	@ 0x58
 8004412:	9301      	str	r3, [sp, #4]
 8004414:	ab17      	add	r3, sp, #92	@ 0x5c
 8004416:	9300      	str	r3, [sp, #0]
 8004418:	4648      	mov	r0, r9
 800441a:	e9dd 230a 	ldrd	r2, r3, [sp, #40]	@ 0x28
 800441e:	f001 f9f9 	bl	8005814 <__d2b>
 8004422:	ea5f 5418 	movs.w	r4, r8, lsr #20
 8004426:	9d16      	ldr	r5, [sp, #88]	@ 0x58
 8004428:	9004      	str	r0, [sp, #16]
 800442a:	d07b      	beq.n	8004524 <_dtoa_r+0x1ec>
 800442c:	e9dd 010a 	ldrd	r0, r1, [sp, #40]	@ 0x28
 8004430:	9b0b      	ldr	r3, [sp, #44]	@ 0x2c
 8004432:	f2a4 34ff 	subw	r4, r4, #1023	@ 0x3ff
 8004436:	f3c3 0313 	ubfx	r3, r3, #0, #20
 800443a:	f043 537f 	orr.w	r3, r3, #1069547520	@ 0x3fc00000
 800443e:	f443 1340 	orr.w	r3, r3, #3145728	@ 0x300000
 8004442:	f8cd a050 	str.w	sl, [sp, #80]	@ 0x50
 8004446:	4619      	mov	r1, r3
 8004448:	2200      	movs	r2, #0
 800444a:	4b74      	ldr	r3, [pc, #464]	@ (800461c <_dtoa_r+0x2e4>)
 800444c:	f7fb fe8c 	bl	8000168 <__aeabi_dsub>
 8004450:	a365      	add	r3, pc, #404	@ (adr r3, 80045e8 <_dtoa_r+0x2b0>)
 8004452:	e9d3 2300 	ldrd	r2, r3, [r3]
 8004456:	f7fc f83f 	bl	80004d8 <__aeabi_dmul>
 800445a:	a365      	add	r3, pc, #404	@ (adr r3, 80045f0 <_dtoa_r+0x2b8>)
 800445c:	e9d3 2300 	ldrd	r2, r3, [r3]
 8004460:	f7fb fe84 	bl	800016c <__adddf3>
 8004464:	4606      	mov	r6, r0
 8004466:	4620      	mov	r0, r4
 8004468:	460f      	mov	r7, r1
 800446a:	f7fb ffcb 	bl	8000404 <__aeabi_i2d>
 800446e:	a362      	add	r3, pc, #392	@ (adr r3, 80045f8 <_dtoa_r+0x2c0>)
 8004470:	e9d3 2300 	ldrd	r2, r3, [r3]
 8004474:	f7fc f830 	bl	80004d8 <__aeabi_dmul>
 8004478:	4602      	mov	r2, r0
 800447a:	460b      	mov	r3, r1
 800447c:	4630      	mov	r0, r6
 800447e:	4639      	mov	r1, r7
 8004480:	f7fb fe74 	bl	800016c <__adddf3>
 8004484:	4606      	mov	r6, r0
 8004486:	460f      	mov	r7, r1
 8004488:	f7fc fad6 	bl	8000a38 <__aeabi_d2iz>
 800448c:	2200      	movs	r2, #0
 800448e:	4680      	mov	r8, r0
 8004490:	2300      	movs	r3, #0
 8004492:	4630      	mov	r0, r6
 8004494:	4639      	mov	r1, r7
 8004496:	f7fc fa91 	bl	80009bc <__aeabi_dcmplt>
 800449a:	b148      	cbz	r0, 80044b0 <_dtoa_r+0x178>
 800449c:	4640      	mov	r0, r8
 800449e:	f7fb ffb1 	bl	8000404 <__aeabi_i2d>
 80044a2:	4632      	mov	r2, r6
 80044a4:	463b      	mov	r3, r7
 80044a6:	f7fc fa7f 	bl	80009a8 <__aeabi_dcmpeq>
 80044aa:	b908      	cbnz	r0, 80044b0 <_dtoa_r+0x178>
 80044ac:	f108 38ff 	add.w	r8, r8, #4294967295	@ 0xffffffff
 80044b0:	f1b8 0f16 	cmp.w	r8, #22
 80044b4:	d853      	bhi.n	800455e <_dtoa_r+0x226>
 80044b6:	e9dd 010a 	ldrd	r0, r1, [sp, #40]	@ 0x28
 80044ba:	4b59      	ldr	r3, [pc, #356]	@ (8004620 <_dtoa_r+0x2e8>)
 80044bc:	eb03 03c8 	add.w	r3, r3, r8, lsl #3
 80044c0:	e9d3 2300 	ldrd	r2, r3, [r3]
 80044c4:	f7fc fa7a 	bl	80009bc <__aeabi_dcmplt>
 80044c8:	2800      	cmp	r0, #0
 80044ca:	d04a      	beq.n	8004562 <_dtoa_r+0x22a>
 80044cc:	2300      	movs	r3, #0
 80044ce:	f108 38ff 	add.w	r8, r8, #4294967295	@ 0xffffffff
 80044d2:	9311      	str	r3, [sp, #68]	@ 0x44
 80044d4:	1b2d      	subs	r5, r5, r4
 80044d6:	1e6b      	subs	r3, r5, #1
 80044d8:	9309      	str	r3, [sp, #36]	@ 0x24
 80044da:	bf49      	itett	mi
 80044dc:	2300      	movmi	r3, #0
 80044de:	2700      	movpl	r7, #0
 80044e0:	f1c5 0701 	rsbmi	r7, r5, #1
 80044e4:	9309      	strmi	r3, [sp, #36]	@ 0x24
 80044e6:	f1b8 0f00 	cmp.w	r8, #0
 80044ea:	db3c      	blt.n	8004566 <_dtoa_r+0x22e>
 80044ec:	9b09      	ldr	r3, [sp, #36]	@ 0x24
 80044ee:	f8cd 8040 	str.w	r8, [sp, #64]	@ 0x40
 80044f2:	4443      	add	r3, r8
 80044f4:	9309      	str	r3, [sp, #36]	@ 0x24
 80044f6:	2300      	movs	r3, #0
 80044f8:	930c      	str	r3, [sp, #48]	@ 0x30
 80044fa:	9b22      	ldr	r3, [sp, #136]	@ 0x88
 80044fc:	2b09      	cmp	r3, #9
 80044fe:	d864      	bhi.n	80045ca <_dtoa_r+0x292>
 8004500:	2b05      	cmp	r3, #5
 8004502:	bfc4      	itt	gt
 8004504:	3b04      	subgt	r3, #4
 8004506:	9322      	strgt	r3, [sp, #136]	@ 0x88
 8004508:	9b22      	ldr	r3, [sp, #136]	@ 0x88
 800450a:	bfc8      	it	gt
 800450c:	2400      	movgt	r4, #0
 800450e:	f1a3 0302 	sub.w	r3, r3, #2
 8004512:	bfd8      	it	le
 8004514:	2401      	movle	r4, #1
 8004516:	2b03      	cmp	r3, #3
 8004518:	f200 8086 	bhi.w	8004628 <_dtoa_r+0x2f0>
 800451c:	e8df f003 	tbb	[pc, r3]
 8004520:	2b365351 	.word	0x2b365351
 8004524:	9c17      	ldr	r4, [sp, #92]	@ 0x5c
 8004526:	442c      	add	r4, r5
 8004528:	f204 4332 	addw	r3, r4, #1074	@ 0x432
 800452c:	2b20      	cmp	r3, #32
 800452e:	bfc1      	itttt	gt
 8004530:	f1c3 0340 	rsbgt	r3, r3, #64	@ 0x40
 8004534:	fa08 f803 	lslgt.w	r8, r8, r3
 8004538:	f204 4312 	addwgt	r3, r4, #1042	@ 0x412
 800453c:	fa26 f303 	lsrgt.w	r3, r6, r3
 8004540:	bfd6      	itet	le
 8004542:	f1c3 0320 	rsble	r3, r3, #32
 8004546:	ea48 0003 	orrgt.w	r0, r8, r3
 800454a:	fa06 f003 	lslle.w	r0, r6, r3
 800454e:	f7fb ff49 	bl	80003e4 <__aeabi_ui2d>
 8004552:	2201      	movs	r2, #1
 8004554:	f1a1 73f8 	sub.w	r3, r1, #32505856	@ 0x1f00000
 8004558:	3c01      	subs	r4, #1
 800455a:	9214      	str	r2, [sp, #80]	@ 0x50
 800455c:	e773      	b.n	8004446 <_dtoa_r+0x10e>
 800455e:	2301      	movs	r3, #1
 8004560:	e7b7      	b.n	80044d2 <_dtoa_r+0x19a>
 8004562:	9011      	str	r0, [sp, #68]	@ 0x44
 8004564:	e7b6      	b.n	80044d4 <_dtoa_r+0x19c>
 8004566:	f1c8 0300 	rsb	r3, r8, #0
 800456a:	930c      	str	r3, [sp, #48]	@ 0x30
 800456c:	2300      	movs	r3, #0
 800456e:	eba7 0708 	sub.w	r7, r7, r8
 8004572:	9310      	str	r3, [sp, #64]	@ 0x40
 8004574:	e7c1      	b.n	80044fa <_dtoa_r+0x1c2>
 8004576:	2301      	movs	r3, #1
 8004578:	930d      	str	r3, [sp, #52]	@ 0x34
 800457a:	9b23      	ldr	r3, [sp, #140]	@ 0x8c
 800457c:	4443      	add	r3, r8
 800457e:	9308      	str	r3, [sp, #32]
 8004580:	3301      	adds	r3, #1
 8004582:	2b01      	cmp	r3, #1
 8004584:	9305      	str	r3, [sp, #20]
 8004586:	bfb8      	it	lt
 8004588:	2301      	movlt	r3, #1
 800458a:	e006      	b.n	800459a <_dtoa_r+0x262>
 800458c:	2301      	movs	r3, #1
 800458e:	930d      	str	r3, [sp, #52]	@ 0x34
 8004590:	9b23      	ldr	r3, [sp, #140]	@ 0x8c
 8004592:	2b00      	cmp	r3, #0
 8004594:	dd4b      	ble.n	800462e <_dtoa_r+0x2f6>
 8004596:	9308      	str	r3, [sp, #32]
 8004598:	9305      	str	r3, [sp, #20]
 800459a:	2100      	movs	r1, #0
 800459c:	2204      	movs	r2, #4
 800459e:	f8d9 001c 	ldr.w	r0, [r9, #28]
 80045a2:	f102 0514 	add.w	r5, r2, #20
 80045a6:	429d      	cmp	r5, r3
 80045a8:	d946      	bls.n	8004638 <_dtoa_r+0x300>
 80045aa:	6041      	str	r1, [r0, #4]
 80045ac:	4648      	mov	r0, r9
 80045ae:	f000 fe05 	bl	80051bc <_Balloc>
 80045b2:	9003      	str	r0, [sp, #12]
 80045b4:	2800      	cmp	r0, #0
 80045b6:	d142      	bne.n	800463e <_dtoa_r+0x306>
 80045b8:	4602      	mov	r2, r0
 80045ba:	f240 11af 	movw	r1, #431	@ 0x1af
 80045be:	4b19      	ldr	r3, [pc, #100]	@ (8004624 <_dtoa_r+0x2ec>)
 80045c0:	e6ce      	b.n	8004360 <_dtoa_r+0x28>
 80045c2:	2300      	movs	r3, #0
 80045c4:	e7e3      	b.n	800458e <_dtoa_r+0x256>
 80045c6:	2300      	movs	r3, #0
 80045c8:	e7d6      	b.n	8004578 <_dtoa_r+0x240>
 80045ca:	2401      	movs	r4, #1
 80045cc:	2300      	movs	r3, #0
 80045ce:	940d      	str	r4, [sp, #52]	@ 0x34
 80045d0:	9322      	str	r3, [sp, #136]	@ 0x88
 80045d2:	f04f 33ff 	mov.w	r3, #4294967295	@ 0xffffffff
 80045d6:	2200      	movs	r2, #0
 80045d8:	9308      	str	r3, [sp, #32]
 80045da:	9305      	str	r3, [sp, #20]
 80045dc:	2312      	movs	r3, #18
 80045de:	9223      	str	r2, [sp, #140]	@ 0x8c
 80045e0:	e7db      	b.n	800459a <_dtoa_r+0x262>
 80045e2:	bf00      	nop
 80045e4:	f3af 8000 	nop.w
 80045e8:	636f4361 	.word	0x636f4361
 80045ec:	3fd287a7 	.word	0x3fd287a7
 80045f0:	8b60c8b3 	.word	0x8b60c8b3
 80045f4:	3fc68a28 	.word	0x3fc68a28
 80045f8:	509f79fb 	.word	0x509f79fb
 80045fc:	3fd34413 	.word	0x3fd34413
 8004600:	08006251 	.word	0x08006251
 8004604:	08006268 	.word	0x08006268
 8004608:	7ff00000 	.word	0x7ff00000
 800460c:	0800624d 	.word	0x0800624d
 8004610:	08006244 	.word	0x08006244
 8004614:	08006221 	.word	0x08006221
 8004618:	08006220 	.word	0x08006220
 800461c:	3ff80000 	.word	0x3ff80000
 8004620:	080063b8 	.word	0x080063b8
 8004624:	080062c0 	.word	0x080062c0
 8004628:	2301      	movs	r3, #1
 800462a:	930d      	str	r3, [sp, #52]	@ 0x34
 800462c:	e7d1      	b.n	80045d2 <_dtoa_r+0x29a>
 800462e:	2301      	movs	r3, #1
 8004630:	461a      	mov	r2, r3
 8004632:	9308      	str	r3, [sp, #32]
 8004634:	9305      	str	r3, [sp, #20]
 8004636:	e7d2      	b.n	80045de <_dtoa_r+0x2a6>
 8004638:	3101      	adds	r1, #1
 800463a:	0052      	lsls	r2, r2, #1
 800463c:	e7b1      	b.n	80045a2 <_dtoa_r+0x26a>
 800463e:	f8d9 301c 	ldr.w	r3, [r9, #28]
 8004642:	9a03      	ldr	r2, [sp, #12]
 8004644:	601a      	str	r2, [r3, #0]
 8004646:	9b05      	ldr	r3, [sp, #20]
 8004648:	2b0e      	cmp	r3, #14
 800464a:	f200 80a1 	bhi.w	8004790 <_dtoa_r+0x458>
 800464e:	2c00      	cmp	r4, #0
 8004650:	f000 809e 	beq.w	8004790 <_dtoa_r+0x458>
 8004654:	f1b8 0f00 	cmp.w	r8, #0
 8004658:	dd36      	ble.n	80046c8 <_dtoa_r+0x390>
 800465a:	4b9f      	ldr	r3, [pc, #636]	@ (80048d8 <_dtoa_r+0x5a0>)
 800465c:	f008 020f 	and.w	r2, r8, #15
 8004660:	eb03 03c2 	add.w	r3, r3, r2, lsl #3
 8004664:	f418 7f80 	tst.w	r8, #256	@ 0x100
 8004668:	ea4f 1528 	mov.w	r5, r8, asr #4
 800466c:	e9d3 ab00 	ldrd	sl, fp, [r3]
 8004670:	d016      	beq.n	80046a0 <_dtoa_r+0x368>
 8004672:	e9dd 010a 	ldrd	r0, r1, [sp, #40]	@ 0x28
 8004676:	4b99      	ldr	r3, [pc, #612]	@ (80048dc <_dtoa_r+0x5a4>)
 8004678:	2403      	movs	r4, #3
 800467a:	e9d3 2308 	ldrd	r2, r3, [r3, #32]
 800467e:	f7fc f855 	bl	800072c <__aeabi_ddiv>
 8004682:	e9cd 0106 	strd	r0, r1, [sp, #24]
 8004686:	f005 050f 	and.w	r5, r5, #15
 800468a:	4e94      	ldr	r6, [pc, #592]	@ (80048dc <_dtoa_r+0x5a4>)
 800468c:	b975      	cbnz	r5, 80046ac <_dtoa_r+0x374>
 800468e:	e9dd 0106 	ldrd	r0, r1, [sp, #24]
 8004692:	4652      	mov	r2, sl
 8004694:	465b      	mov	r3, fp
 8004696:	f7fc f849 	bl	800072c <__aeabi_ddiv>
 800469a:	4682      	mov	sl, r0
 800469c:	468b      	mov	fp, r1
 800469e:	e02d      	b.n	80046fc <_dtoa_r+0x3c4>
 80046a0:	e9dd 340a 	ldrd	r3, r4, [sp, #40]	@ 0x28
 80046a4:	e9cd 3406 	strd	r3, r4, [sp, #24]
 80046a8:	2402      	movs	r4, #2
 80046aa:	e7ee      	b.n	800468a <_dtoa_r+0x352>
 80046ac:	07e9      	lsls	r1, r5, #31
 80046ae:	d508      	bpl.n	80046c2 <_dtoa_r+0x38a>
 80046b0:	e9d6 2300 	ldrd	r2, r3, [r6]
 80046b4:	4650      	mov	r0, sl
 80046b6:	4659      	mov	r1, fp
 80046b8:	f7fb ff0e 	bl	80004d8 <__aeabi_dmul>
 80046bc:	4682      	mov	sl, r0
 80046be:	468b      	mov	fp, r1
 80046c0:	3401      	adds	r4, #1
 80046c2:	106d      	asrs	r5, r5, #1
 80046c4:	3608      	adds	r6, #8
 80046c6:	e7e1      	b.n	800468c <_dtoa_r+0x354>
 80046c8:	f000 80ad 	beq.w	8004826 <_dtoa_r+0x4ee>
 80046cc:	e9dd 010a 	ldrd	r0, r1, [sp, #40]	@ 0x28
 80046d0:	f1c8 0500 	rsb	r5, r8, #0
 80046d4:	4b80      	ldr	r3, [pc, #512]	@ (80048d8 <_dtoa_r+0x5a0>)
 80046d6:	f005 020f 	and.w	r2, r5, #15
 80046da:	eb03 03c2 	add.w	r3, r3, r2, lsl #3
 80046de:	e9d3 2300 	ldrd	r2, r3, [r3]
 80046e2:	f7fb fef9 	bl	80004d8 <__aeabi_dmul>
 80046e6:	2402      	movs	r4, #2
 80046e8:	4682      	mov	sl, r0
 80046ea:	468b      	mov	fp, r1
 80046ec:	2300      	movs	r3, #0
 80046ee:	4e7b      	ldr	r6, [pc, #492]	@ (80048dc <_dtoa_r+0x5a4>)
 80046f0:	112d      	asrs	r5, r5, #4
 80046f2:	2d00      	cmp	r5, #0
 80046f4:	f040 808c 	bne.w	8004810 <_dtoa_r+0x4d8>
 80046f8:	2b00      	cmp	r3, #0
 80046fa:	d1ce      	bne.n	800469a <_dtoa_r+0x362>
 80046fc:	9b11      	ldr	r3, [sp, #68]	@ 0x44
 80046fe:	2b00      	cmp	r3, #0
 8004700:	f000 8095 	beq.w	800482e <_dtoa_r+0x4f6>
 8004704:	2200      	movs	r2, #0
 8004706:	4650      	mov	r0, sl
 8004708:	4659      	mov	r1, fp
 800470a:	4b75      	ldr	r3, [pc, #468]	@ (80048e0 <_dtoa_r+0x5a8>)
 800470c:	f7fc f956 	bl	80009bc <__aeabi_dcmplt>
 8004710:	2800      	cmp	r0, #0
 8004712:	f000 808c 	beq.w	800482e <_dtoa_r+0x4f6>
 8004716:	9b05      	ldr	r3, [sp, #20]
 8004718:	2b00      	cmp	r3, #0
 800471a:	f000 8088 	beq.w	800482e <_dtoa_r+0x4f6>
 800471e:	9b08      	ldr	r3, [sp, #32]
 8004720:	2b00      	cmp	r3, #0
 8004722:	dd35      	ble.n	8004790 <_dtoa_r+0x458>
 8004724:	f108 33ff 	add.w	r3, r8, #4294967295	@ 0xffffffff
 8004728:	4650      	mov	r0, sl
 800472a:	4659      	mov	r1, fp
 800472c:	9306      	str	r3, [sp, #24]
 800472e:	2200      	movs	r2, #0
 8004730:	4b6c      	ldr	r3, [pc, #432]	@ (80048e4 <_dtoa_r+0x5ac>)
 8004732:	f7fb fed1 	bl	80004d8 <__aeabi_dmul>
 8004736:	4682      	mov	sl, r0
 8004738:	468b      	mov	fp, r1
 800473a:	9e08      	ldr	r6, [sp, #32]
 800473c:	3401      	adds	r4, #1
 800473e:	4620      	mov	r0, r4
 8004740:	f7fb fe60 	bl	8000404 <__aeabi_i2d>
 8004744:	4652      	mov	r2, sl
 8004746:	465b      	mov	r3, fp
 8004748:	f7fb fec6 	bl	80004d8 <__aeabi_dmul>
 800474c:	2200      	movs	r2, #0
 800474e:	4b66      	ldr	r3, [pc, #408]	@ (80048e8 <_dtoa_r+0x5b0>)
 8004750:	f7fb fd0c 	bl	800016c <__adddf3>
 8004754:	4604      	mov	r4, r0
 8004756:	f1a1 7550 	sub.w	r5, r1, #54525952	@ 0x3400000
 800475a:	e9cd 4512 	strd	r4, r5, [sp, #72]	@ 0x48
 800475e:	2e00      	cmp	r6, #0
 8004760:	d169      	bne.n	8004836 <_dtoa_r+0x4fe>
 8004762:	2200      	movs	r2, #0
 8004764:	4650      	mov	r0, sl
 8004766:	4659      	mov	r1, fp
 8004768:	4b60      	ldr	r3, [pc, #384]	@ (80048ec <_dtoa_r+0x5b4>)
 800476a:	f7fb fcfd 	bl	8000168 <__aeabi_dsub>
 800476e:	4622      	mov	r2, r4
 8004770:	462b      	mov	r3, r5
 8004772:	4682      	mov	sl, r0
 8004774:	468b      	mov	fp, r1
 8004776:	f7fc f93f 	bl	80009f8 <__aeabi_dcmpgt>
 800477a:	2800      	cmp	r0, #0
 800477c:	f040 8299 	bne.w	8004cb2 <_dtoa_r+0x97a>
 8004780:	4622      	mov	r2, r4
 8004782:	4650      	mov	r0, sl
 8004784:	4659      	mov	r1, fp
 8004786:	f105 4300 	add.w	r3, r5, #2147483648	@ 0x80000000
 800478a:	f7fc f917 	bl	80009bc <__aeabi_dcmplt>
 800478e:	bb20      	cbnz	r0, 80047da <_dtoa_r+0x4a2>
 8004790:	9b17      	ldr	r3, [sp, #92]	@ 0x5c
 8004792:	2b00      	cmp	r3, #0
 8004794:	f2c0 8165 	blt.w	8004a62 <_dtoa_r+0x72a>
 8004798:	f1b8 0f0e 	cmp.w	r8, #14
 800479c:	f300 8161 	bgt.w	8004a62 <_dtoa_r+0x72a>
 80047a0:	4b4d      	ldr	r3, [pc, #308]	@ (80048d8 <_dtoa_r+0x5a0>)
 80047a2:	eb03 03c8 	add.w	r3, r3, r8, lsl #3
 80047a6:	e9d3 ab00 	ldrd	sl, fp, [r3]
 80047aa:	9b23      	ldr	r3, [sp, #140]	@ 0x8c
 80047ac:	2b00      	cmp	r3, #0
 80047ae:	f280 80ef 	bge.w	8004990 <_dtoa_r+0x658>
 80047b2:	9b05      	ldr	r3, [sp, #20]
 80047b4:	2b00      	cmp	r3, #0
 80047b6:	f300 80eb 	bgt.w	8004990 <_dtoa_r+0x658>
 80047ba:	d10e      	bne.n	80047da <_dtoa_r+0x4a2>
 80047bc:	2200      	movs	r2, #0
 80047be:	4b4b      	ldr	r3, [pc, #300]	@ (80048ec <_dtoa_r+0x5b4>)
 80047c0:	4650      	mov	r0, sl
 80047c2:	4659      	mov	r1, fp
 80047c4:	f7fb fe88 	bl	80004d8 <__aeabi_dmul>
 80047c8:	4602      	mov	r2, r0
 80047ca:	460b      	mov	r3, r1
 80047cc:	e9dd 010a 	ldrd	r0, r1, [sp, #40]	@ 0x28
 80047d0:	f7fc f8fe 	bl	80009d0 <__aeabi_dcmple>
 80047d4:	2800      	cmp	r0, #0
 80047d6:	f000 826f 	beq.w	8004cb8 <_dtoa_r+0x980>
 80047da:	2500      	movs	r5, #0
 80047dc:	462c      	mov	r4, r5
 80047de:	9b23      	ldr	r3, [sp, #140]	@ 0x8c
 80047e0:	9e03      	ldr	r6, [sp, #12]
 80047e2:	43db      	mvns	r3, r3
 80047e4:	9306      	str	r3, [sp, #24]
 80047e6:	4627      	mov	r7, r4
 80047e8:	2400      	movs	r4, #0
 80047ea:	4629      	mov	r1, r5
 80047ec:	4648      	mov	r0, r9
 80047ee:	f000 fd23 	bl	8005238 <_Bfree>
 80047f2:	2f00      	cmp	r7, #0
 80047f4:	f000 80c2 	beq.w	800497c <_dtoa_r+0x644>
 80047f8:	b12c      	cbz	r4, 8004806 <_dtoa_r+0x4ce>
 80047fa:	42bc      	cmp	r4, r7
 80047fc:	d003      	beq.n	8004806 <_dtoa_r+0x4ce>
 80047fe:	4621      	mov	r1, r4
 8004800:	4648      	mov	r0, r9
 8004802:	f000 fd19 	bl	8005238 <_Bfree>
 8004806:	4639      	mov	r1, r7
 8004808:	4648      	mov	r0, r9
 800480a:	f000 fd15 	bl	8005238 <_Bfree>
 800480e:	e0b5      	b.n	800497c <_dtoa_r+0x644>
 8004810:	07ea      	lsls	r2, r5, #31
 8004812:	d505      	bpl.n	8004820 <_dtoa_r+0x4e8>
 8004814:	e9d6 2300 	ldrd	r2, r3, [r6]
 8004818:	f7fb fe5e 	bl	80004d8 <__aeabi_dmul>
 800481c:	2301      	movs	r3, #1
 800481e:	3401      	adds	r4, #1
 8004820:	106d      	asrs	r5, r5, #1
 8004822:	3608      	adds	r6, #8
 8004824:	e765      	b.n	80046f2 <_dtoa_r+0x3ba>
 8004826:	2402      	movs	r4, #2
 8004828:	e9dd ab0a 	ldrd	sl, fp, [sp, #40]	@ 0x28
 800482c:	e766      	b.n	80046fc <_dtoa_r+0x3c4>
 800482e:	9e05      	ldr	r6, [sp, #20]
 8004830:	f8cd 8018 	str.w	r8, [sp, #24]
 8004834:	e783      	b.n	800473e <_dtoa_r+0x406>
 8004836:	4b28      	ldr	r3, [pc, #160]	@ (80048d8 <_dtoa_r+0x5a0>)
 8004838:	eb03 03c6 	add.w	r3, r3, r6, lsl #3
 800483c:	e953 0102 	ldrd	r0, r1, [r3, #-8]
 8004840:	9b0d      	ldr	r3, [sp, #52]	@ 0x34
 8004842:	2b00      	cmp	r3, #0
 8004844:	d056      	beq.n	80048f4 <_dtoa_r+0x5bc>
 8004846:	4602      	mov	r2, r0
 8004848:	460b      	mov	r3, r1
 800484a:	2000      	movs	r0, #0
 800484c:	4928      	ldr	r1, [pc, #160]	@ (80048f0 <_dtoa_r+0x5b8>)
 800484e:	f7fb ff6d 	bl	800072c <__aeabi_ddiv>
 8004852:	e9dd 2312 	ldrd	r2, r3, [sp, #72]	@ 0x48
 8004856:	f7fb fc87 	bl	8000168 <__aeabi_dsub>
 800485a:	9b03      	ldr	r3, [sp, #12]
 800485c:	e9cd 0112 	strd	r0, r1, [sp, #72]	@ 0x48
 8004860:	199d      	adds	r5, r3, r6
 8004862:	461e      	mov	r6, r3
 8004864:	4659      	mov	r1, fp
 8004866:	4650      	mov	r0, sl
 8004868:	f7fc f8e6 	bl	8000a38 <__aeabi_d2iz>
 800486c:	4604      	mov	r4, r0
 800486e:	f7fb fdc9 	bl	8000404 <__aeabi_i2d>
 8004872:	4602      	mov	r2, r0
 8004874:	460b      	mov	r3, r1
 8004876:	4650      	mov	r0, sl
 8004878:	4659      	mov	r1, fp
 800487a:	f7fb fc75 	bl	8000168 <__aeabi_dsub>
 800487e:	e9dd 2312 	ldrd	r2, r3, [sp, #72]	@ 0x48
 8004882:	3430      	adds	r4, #48	@ 0x30
 8004884:	f806 4b01 	strb.w	r4, [r6], #1
 8004888:	4682      	mov	sl, r0
 800488a:	468b      	mov	fp, r1
 800488c:	f7fc f896 	bl	80009bc <__aeabi_dcmplt>
 8004890:	2800      	cmp	r0, #0
 8004892:	d173      	bne.n	800497c <_dtoa_r+0x644>
 8004894:	4652      	mov	r2, sl
 8004896:	465b      	mov	r3, fp
 8004898:	2000      	movs	r0, #0
 800489a:	4911      	ldr	r1, [pc, #68]	@ (80048e0 <_dtoa_r+0x5a8>)
 800489c:	f7fb fc64 	bl	8000168 <__aeabi_dsub>
 80048a0:	e9dd 2312 	ldrd	r2, r3, [sp, #72]	@ 0x48
 80048a4:	f7fc f88a 	bl	80009bc <__aeabi_dcmplt>
 80048a8:	2800      	cmp	r0, #0
 80048aa:	f040 80bb 	bne.w	8004a24 <_dtoa_r+0x6ec>
 80048ae:	42ae      	cmp	r6, r5
 80048b0:	f43f af6e 	beq.w	8004790 <_dtoa_r+0x458>
 80048b4:	e9dd 0112 	ldrd	r0, r1, [sp, #72]	@ 0x48
 80048b8:	2200      	movs	r2, #0
 80048ba:	4b0a      	ldr	r3, [pc, #40]	@ (80048e4 <_dtoa_r+0x5ac>)
 80048bc:	f7fb fe0c 	bl	80004d8 <__aeabi_dmul>
 80048c0:	2200      	movs	r2, #0
 80048c2:	e9cd 0112 	strd	r0, r1, [sp, #72]	@ 0x48
 80048c6:	4b07      	ldr	r3, [pc, #28]	@ (80048e4 <_dtoa_r+0x5ac>)
 80048c8:	4650      	mov	r0, sl
 80048ca:	4659      	mov	r1, fp
 80048cc:	f7fb fe04 	bl	80004d8 <__aeabi_dmul>
 80048d0:	4682      	mov	sl, r0
 80048d2:	468b      	mov	fp, r1
 80048d4:	e7c6      	b.n	8004864 <_dtoa_r+0x52c>
 80048d6:	bf00      	nop
 80048d8:	080063b8 	.word	0x080063b8
 80048dc:	08006390 	.word	0x08006390
 80048e0:	3ff00000 	.word	0x3ff00000
 80048e4:	40240000 	.word	0x40240000
 80048e8:	401c0000 	.word	0x401c0000
 80048ec:	40140000 	.word	0x40140000
 80048f0:	3fe00000 	.word	0x3fe00000
 80048f4:	e9dd 2312 	ldrd	r2, r3, [sp, #72]	@ 0x48
 80048f8:	f7fb fdee 	bl	80004d8 <__aeabi_dmul>
 80048fc:	9b03      	ldr	r3, [sp, #12]
 80048fe:	e9cd 0112 	strd	r0, r1, [sp, #72]	@ 0x48
 8004902:	4433      	add	r3, r6
 8004904:	9d03      	ldr	r5, [sp, #12]
 8004906:	9315      	str	r3, [sp, #84]	@ 0x54
 8004908:	4659      	mov	r1, fp
 800490a:	4650      	mov	r0, sl
 800490c:	f7fc f894 	bl	8000a38 <__aeabi_d2iz>
 8004910:	4604      	mov	r4, r0
 8004912:	f7fb fd77 	bl	8000404 <__aeabi_i2d>
 8004916:	460b      	mov	r3, r1
 8004918:	4602      	mov	r2, r0
 800491a:	4659      	mov	r1, fp
 800491c:	4650      	mov	r0, sl
 800491e:	f7fb fc23 	bl	8000168 <__aeabi_dsub>
 8004922:	3430      	adds	r4, #48	@ 0x30
 8004924:	9b15      	ldr	r3, [sp, #84]	@ 0x54
 8004926:	f805 4b01 	strb.w	r4, [r5], #1
 800492a:	429d      	cmp	r5, r3
 800492c:	4682      	mov	sl, r0
 800492e:	468b      	mov	fp, r1
 8004930:	d127      	bne.n	8004982 <_dtoa_r+0x64a>
 8004932:	e9dd 0112 	ldrd	r0, r1, [sp, #72]	@ 0x48
 8004936:	9b03      	ldr	r3, [sp, #12]
 8004938:	2200      	movs	r2, #0
 800493a:	441e      	add	r6, r3
 800493c:	4bb5      	ldr	r3, [pc, #724]	@ (8004c14 <_dtoa_r+0x8dc>)
 800493e:	f7fb fc15 	bl	800016c <__adddf3>
 8004942:	4602      	mov	r2, r0
 8004944:	460b      	mov	r3, r1
 8004946:	4650      	mov	r0, sl
 8004948:	4659      	mov	r1, fp
 800494a:	f7fc f855 	bl	80009f8 <__aeabi_dcmpgt>
 800494e:	2800      	cmp	r0, #0
 8004950:	d168      	bne.n	8004a24 <_dtoa_r+0x6ec>
 8004952:	e9dd 2312 	ldrd	r2, r3, [sp, #72]	@ 0x48
 8004956:	2000      	movs	r0, #0
 8004958:	49ae      	ldr	r1, [pc, #696]	@ (8004c14 <_dtoa_r+0x8dc>)
 800495a:	f7fb fc05 	bl	8000168 <__aeabi_dsub>
 800495e:	4602      	mov	r2, r0
 8004960:	460b      	mov	r3, r1
 8004962:	4650      	mov	r0, sl
 8004964:	4659      	mov	r1, fp
 8004966:	f7fc f829 	bl	80009bc <__aeabi_dcmplt>
 800496a:	2800      	cmp	r0, #0
 800496c:	f43f af10 	beq.w	8004790 <_dtoa_r+0x458>
 8004970:	4633      	mov	r3, r6
 8004972:	f816 2d01 	ldrb.w	r2, [r6, #-1]!
 8004976:	2a30      	cmp	r2, #48	@ 0x30
 8004978:	d0fa      	beq.n	8004970 <_dtoa_r+0x638>
 800497a:	461e      	mov	r6, r3
 800497c:	f8dd 8018 	ldr.w	r8, [sp, #24]
 8004980:	e03e      	b.n	8004a00 <_dtoa_r+0x6c8>
 8004982:	2200      	movs	r2, #0
 8004984:	4ba4      	ldr	r3, [pc, #656]	@ (8004c18 <_dtoa_r+0x8e0>)
 8004986:	f7fb fda7 	bl	80004d8 <__aeabi_dmul>
 800498a:	4682      	mov	sl, r0
 800498c:	468b      	mov	fp, r1
 800498e:	e7bb      	b.n	8004908 <_dtoa_r+0x5d0>
 8004990:	2400      	movs	r4, #0
 8004992:	9e03      	ldr	r6, [sp, #12]
 8004994:	4da0      	ldr	r5, [pc, #640]	@ (8004c18 <_dtoa_r+0x8e0>)
 8004996:	4652      	mov	r2, sl
 8004998:	e9dd 010a 	ldrd	r0, r1, [sp, #40]	@ 0x28
 800499c:	465b      	mov	r3, fp
 800499e:	f7fb fec5 	bl	800072c <__aeabi_ddiv>
 80049a2:	f7fc f849 	bl	8000a38 <__aeabi_d2iz>
 80049a6:	4607      	mov	r7, r0
 80049a8:	f7fb fd2c 	bl	8000404 <__aeabi_i2d>
 80049ac:	4652      	mov	r2, sl
 80049ae:	465b      	mov	r3, fp
 80049b0:	f7fb fd92 	bl	80004d8 <__aeabi_dmul>
 80049b4:	4602      	mov	r2, r0
 80049b6:	460b      	mov	r3, r1
 80049b8:	e9dd 010a 	ldrd	r0, r1, [sp, #40]	@ 0x28
 80049bc:	f7fb fbd4 	bl	8000168 <__aeabi_dsub>
 80049c0:	f107 0c30 	add.w	ip, r7, #48	@ 0x30
 80049c4:	f806 cb01 	strb.w	ip, [r6], #1
 80049c8:	f8dd c00c 	ldr.w	ip, [sp, #12]
 80049cc:	f8dd e014 	ldr.w	lr, [sp, #20]
 80049d0:	eba6 0c0c 	sub.w	ip, r6, ip
 80049d4:	45e6      	cmp	lr, ip
 80049d6:	4602      	mov	r2, r0
 80049d8:	460b      	mov	r3, r1
 80049da:	d133      	bne.n	8004a44 <_dtoa_r+0x70c>
 80049dc:	f7fb fbc6 	bl	800016c <__adddf3>
 80049e0:	4652      	mov	r2, sl
 80049e2:	465b      	mov	r3, fp
 80049e4:	4604      	mov	r4, r0
 80049e6:	460d      	mov	r5, r1
 80049e8:	f7fc f806 	bl	80009f8 <__aeabi_dcmpgt>
 80049ec:	b9c0      	cbnz	r0, 8004a20 <_dtoa_r+0x6e8>
 80049ee:	4652      	mov	r2, sl
 80049f0:	465b      	mov	r3, fp
 80049f2:	4620      	mov	r0, r4
 80049f4:	4629      	mov	r1, r5
 80049f6:	f7fb ffd7 	bl	80009a8 <__aeabi_dcmpeq>
 80049fa:	b108      	cbz	r0, 8004a00 <_dtoa_r+0x6c8>
 80049fc:	07fb      	lsls	r3, r7, #31
 80049fe:	d40f      	bmi.n	8004a20 <_dtoa_r+0x6e8>
 8004a00:	4648      	mov	r0, r9
 8004a02:	9904      	ldr	r1, [sp, #16]
 8004a04:	f000 fc18 	bl	8005238 <_Bfree>
 8004a08:	2300      	movs	r3, #0
 8004a0a:	9a24      	ldr	r2, [sp, #144]	@ 0x90
 8004a0c:	7033      	strb	r3, [r6, #0]
 8004a0e:	f108 0301 	add.w	r3, r8, #1
 8004a12:	6013      	str	r3, [r2, #0]
 8004a14:	9b26      	ldr	r3, [sp, #152]	@ 0x98
 8004a16:	2b00      	cmp	r3, #0
 8004a18:	f43f acdb 	beq.w	80043d2 <_dtoa_r+0x9a>
 8004a1c:	601e      	str	r6, [r3, #0]
 8004a1e:	e4d8      	b.n	80043d2 <_dtoa_r+0x9a>
 8004a20:	f8cd 8018 	str.w	r8, [sp, #24]
 8004a24:	4633      	mov	r3, r6
 8004a26:	461e      	mov	r6, r3
 8004a28:	f813 2d01 	ldrb.w	r2, [r3, #-1]!
 8004a2c:	2a39      	cmp	r2, #57	@ 0x39
 8004a2e:	d106      	bne.n	8004a3e <_dtoa_r+0x706>
 8004a30:	9a03      	ldr	r2, [sp, #12]
 8004a32:	429a      	cmp	r2, r3
 8004a34:	d1f7      	bne.n	8004a26 <_dtoa_r+0x6ee>
 8004a36:	9a06      	ldr	r2, [sp, #24]
 8004a38:	3201      	adds	r2, #1
 8004a3a:	9206      	str	r2, [sp, #24]
 8004a3c:	2230      	movs	r2, #48	@ 0x30
 8004a3e:	3201      	adds	r2, #1
 8004a40:	701a      	strb	r2, [r3, #0]
 8004a42:	e79b      	b.n	800497c <_dtoa_r+0x644>
 8004a44:	4622      	mov	r2, r4
 8004a46:	462b      	mov	r3, r5
 8004a48:	f7fb fd46 	bl	80004d8 <__aeabi_dmul>
 8004a4c:	4602      	mov	r2, r0
 8004a4e:	460b      	mov	r3, r1
 8004a50:	e9cd 230a 	strd	r2, r3, [sp, #40]	@ 0x28
 8004a54:	2200      	movs	r2, #0
 8004a56:	2300      	movs	r3, #0
 8004a58:	f7fb ffa6 	bl	80009a8 <__aeabi_dcmpeq>
 8004a5c:	2800      	cmp	r0, #0
 8004a5e:	d09a      	beq.n	8004996 <_dtoa_r+0x65e>
 8004a60:	e7ce      	b.n	8004a00 <_dtoa_r+0x6c8>
 8004a62:	9a0d      	ldr	r2, [sp, #52]	@ 0x34
 8004a64:	2a00      	cmp	r2, #0
 8004a66:	f000 80e3 	beq.w	8004c30 <_dtoa_r+0x8f8>
 8004a6a:	9a22      	ldr	r2, [sp, #136]	@ 0x88
 8004a6c:	2a01      	cmp	r2, #1
 8004a6e:	f300 80c2 	bgt.w	8004bf6 <_dtoa_r+0x8be>
 8004a72:	9a14      	ldr	r2, [sp, #80]	@ 0x50
 8004a74:	2a00      	cmp	r2, #0
 8004a76:	f000 80ba 	beq.w	8004bee <_dtoa_r+0x8b6>
 8004a7a:	f203 4333 	addw	r3, r3, #1075	@ 0x433
 8004a7e:	9d0c      	ldr	r5, [sp, #48]	@ 0x30
 8004a80:	463e      	mov	r6, r7
 8004a82:	9a09      	ldr	r2, [sp, #36]	@ 0x24
 8004a84:	2101      	movs	r1, #1
 8004a86:	441a      	add	r2, r3
 8004a88:	4648      	mov	r0, r9
 8004a8a:	441f      	add	r7, r3
 8004a8c:	9209      	str	r2, [sp, #36]	@ 0x24
 8004a8e:	f000 fc87 	bl	80053a0 <__i2b>
 8004a92:	4604      	mov	r4, r0
 8004a94:	b156      	cbz	r6, 8004aac <_dtoa_r+0x774>
 8004a96:	9b09      	ldr	r3, [sp, #36]	@ 0x24
 8004a98:	2b00      	cmp	r3, #0
 8004a9a:	dd07      	ble.n	8004aac <_dtoa_r+0x774>
 8004a9c:	42b3      	cmp	r3, r6
 8004a9e:	bfa8      	it	ge
 8004aa0:	4633      	movge	r3, r6
 8004aa2:	9a09      	ldr	r2, [sp, #36]	@ 0x24
 8004aa4:	1aff      	subs	r7, r7, r3
 8004aa6:	1af6      	subs	r6, r6, r3
 8004aa8:	1ad3      	subs	r3, r2, r3
 8004aaa:	9309      	str	r3, [sp, #36]	@ 0x24
 8004aac:	9b0c      	ldr	r3, [sp, #48]	@ 0x30
 8004aae:	b30b      	cbz	r3, 8004af4 <_dtoa_r+0x7bc>
 8004ab0:	9b0d      	ldr	r3, [sp, #52]	@ 0x34
 8004ab2:	2b00      	cmp	r3, #0
 8004ab4:	f000 80c3 	beq.w	8004c3e <_dtoa_r+0x906>
 8004ab8:	2d00      	cmp	r5, #0
 8004aba:	f000 80bd 	beq.w	8004c38 <_dtoa_r+0x900>
 8004abe:	4621      	mov	r1, r4
 8004ac0:	462a      	mov	r2, r5
 8004ac2:	4648      	mov	r0, r9
 8004ac4:	f000 fd2a 	bl	800551c <__pow5mult>
 8004ac8:	9a04      	ldr	r2, [sp, #16]
 8004aca:	4601      	mov	r1, r0
 8004acc:	4604      	mov	r4, r0
 8004ace:	4648      	mov	r0, r9
 8004ad0:	f000 fc7c 	bl	80053cc <__multiply>
 8004ad4:	9904      	ldr	r1, [sp, #16]
 8004ad6:	4682      	mov	sl, r0
 8004ad8:	4648      	mov	r0, r9
 8004ada:	f000 fbad 	bl	8005238 <_Bfree>
 8004ade:	9b0c      	ldr	r3, [sp, #48]	@ 0x30
 8004ae0:	1b5b      	subs	r3, r3, r5
 8004ae2:	930c      	str	r3, [sp, #48]	@ 0x30
 8004ae4:	f000 80ae 	beq.w	8004c44 <_dtoa_r+0x90c>
 8004ae8:	4651      	mov	r1, sl
 8004aea:	9a0c      	ldr	r2, [sp, #48]	@ 0x30
 8004aec:	4648      	mov	r0, r9
 8004aee:	f000 fd15 	bl	800551c <__pow5mult>
 8004af2:	9004      	str	r0, [sp, #16]
 8004af4:	2101      	movs	r1, #1
 8004af6:	4648      	mov	r0, r9
 8004af8:	f000 fc52 	bl	80053a0 <__i2b>
 8004afc:	9b10      	ldr	r3, [sp, #64]	@ 0x40
 8004afe:	4605      	mov	r5, r0
 8004b00:	2b00      	cmp	r3, #0
 8004b02:	f000 81d8 	beq.w	8004eb6 <_dtoa_r+0xb7e>
 8004b06:	461a      	mov	r2, r3
 8004b08:	4601      	mov	r1, r0
 8004b0a:	4648      	mov	r0, r9
 8004b0c:	f000 fd06 	bl	800551c <__pow5mult>
 8004b10:	9b22      	ldr	r3, [sp, #136]	@ 0x88
 8004b12:	4605      	mov	r5, r0
 8004b14:	2b01      	cmp	r3, #1
 8004b16:	f300 809d 	bgt.w	8004c54 <_dtoa_r+0x91c>
 8004b1a:	9b0e      	ldr	r3, [sp, #56]	@ 0x38
 8004b1c:	2b00      	cmp	r3, #0
 8004b1e:	f040 8094 	bne.w	8004c4a <_dtoa_r+0x912>
 8004b22:	9b0f      	ldr	r3, [sp, #60]	@ 0x3c
 8004b24:	f3c3 0313 	ubfx	r3, r3, #0, #20
 8004b28:	2b00      	cmp	r3, #0
 8004b2a:	f040 808e 	bne.w	8004c4a <_dtoa_r+0x912>
 8004b2e:	9b0f      	ldr	r3, [sp, #60]	@ 0x3c
 8004b30:	f023 4300 	bic.w	r3, r3, #2147483648	@ 0x80000000
 8004b34:	0d1b      	lsrs	r3, r3, #20
 8004b36:	051b      	lsls	r3, r3, #20
 8004b38:	2b00      	cmp	r3, #0
 8004b3a:	f000 8089 	beq.w	8004c50 <_dtoa_r+0x918>
 8004b3e:	f04f 0a01 	mov.w	sl, #1
 8004b42:	9b09      	ldr	r3, [sp, #36]	@ 0x24
 8004b44:	3701      	adds	r7, #1
 8004b46:	3301      	adds	r3, #1
 8004b48:	9309      	str	r3, [sp, #36]	@ 0x24
 8004b4a:	9b10      	ldr	r3, [sp, #64]	@ 0x40
 8004b4c:	2b00      	cmp	r3, #0
 8004b4e:	f000 81b8 	beq.w	8004ec2 <_dtoa_r+0xb8a>
 8004b52:	692b      	ldr	r3, [r5, #16]
 8004b54:	eb05 0383 	add.w	r3, r5, r3, lsl #2
 8004b58:	6918      	ldr	r0, [r3, #16]
 8004b5a:	f000 fbd5 	bl	8005308 <__hi0bits>
 8004b5e:	f1c0 0020 	rsb	r0, r0, #32
 8004b62:	9b09      	ldr	r3, [sp, #36]	@ 0x24
 8004b64:	4418      	add	r0, r3
 8004b66:	f010 001f 	ands.w	r0, r0, #31
 8004b6a:	d07e      	beq.n	8004c6a <_dtoa_r+0x932>
 8004b6c:	f1c0 0320 	rsb	r3, r0, #32
 8004b70:	2b04      	cmp	r3, #4
 8004b72:	dd72      	ble.n	8004c5a <_dtoa_r+0x922>
 8004b74:	9b09      	ldr	r3, [sp, #36]	@ 0x24
 8004b76:	f1c0 001c 	rsb	r0, r0, #28
 8004b7a:	4403      	add	r3, r0
 8004b7c:	4407      	add	r7, r0
 8004b7e:	4406      	add	r6, r0
 8004b80:	9309      	str	r3, [sp, #36]	@ 0x24
 8004b82:	2f00      	cmp	r7, #0
 8004b84:	dd05      	ble.n	8004b92 <_dtoa_r+0x85a>
 8004b86:	463a      	mov	r2, r7
 8004b88:	4648      	mov	r0, r9
 8004b8a:	9904      	ldr	r1, [sp, #16]
 8004b8c:	f000 fd22 	bl	80055d4 <__lshift>
 8004b90:	9004      	str	r0, [sp, #16]
 8004b92:	9b09      	ldr	r3, [sp, #36]	@ 0x24
 8004b94:	2b00      	cmp	r3, #0
 8004b96:	dd05      	ble.n	8004ba4 <_dtoa_r+0x86c>
 8004b98:	4629      	mov	r1, r5
 8004b9a:	461a      	mov	r2, r3
 8004b9c:	4648      	mov	r0, r9
 8004b9e:	f000 fd19 	bl	80055d4 <__lshift>
 8004ba2:	4605      	mov	r5, r0
 8004ba4:	9b11      	ldr	r3, [sp, #68]	@ 0x44
 8004ba6:	2b00      	cmp	r3, #0
 8004ba8:	d061      	beq.n	8004c6e <_dtoa_r+0x936>
 8004baa:	4629      	mov	r1, r5
 8004bac:	9804      	ldr	r0, [sp, #16]
 8004bae:	f000 fd7d 	bl	80056ac <__mcmp>
 8004bb2:	2800      	cmp	r0, #0
 8004bb4:	da5b      	bge.n	8004c6e <_dtoa_r+0x936>
 8004bb6:	f108 33ff 	add.w	r3, r8, #4294967295	@ 0xffffffff
 8004bba:	9306      	str	r3, [sp, #24]
 8004bbc:	220a      	movs	r2, #10
 8004bbe:	2300      	movs	r3, #0
 8004bc0:	4648      	mov	r0, r9
 8004bc2:	9904      	ldr	r1, [sp, #16]
 8004bc4:	f000 fb5a 	bl	800527c <__multadd>
 8004bc8:	9b0d      	ldr	r3, [sp, #52]	@ 0x34
 8004bca:	9004      	str	r0, [sp, #16]
 8004bcc:	2b00      	cmp	r3, #0
 8004bce:	f000 817a 	beq.w	8004ec6 <_dtoa_r+0xb8e>
 8004bd2:	2300      	movs	r3, #0
 8004bd4:	4621      	mov	r1, r4
 8004bd6:	220a      	movs	r2, #10
 8004bd8:	4648      	mov	r0, r9
 8004bda:	f000 fb4f 	bl	800527c <__multadd>
 8004bde:	9b08      	ldr	r3, [sp, #32]
 8004be0:	4604      	mov	r4, r0
 8004be2:	2b00      	cmp	r3, #0
 8004be4:	dc72      	bgt.n	8004ccc <_dtoa_r+0x994>
 8004be6:	9b22      	ldr	r3, [sp, #136]	@ 0x88
 8004be8:	2b02      	cmp	r3, #2
 8004bea:	dc49      	bgt.n	8004c80 <_dtoa_r+0x948>
 8004bec:	e06e      	b.n	8004ccc <_dtoa_r+0x994>
 8004bee:	9b16      	ldr	r3, [sp, #88]	@ 0x58
 8004bf0:	f1c3 0336 	rsb	r3, r3, #54	@ 0x36
 8004bf4:	e743      	b.n	8004a7e <_dtoa_r+0x746>
 8004bf6:	9b05      	ldr	r3, [sp, #20]
 8004bf8:	1e5d      	subs	r5, r3, #1
 8004bfa:	9b0c      	ldr	r3, [sp, #48]	@ 0x30
 8004bfc:	42ab      	cmp	r3, r5
 8004bfe:	db0d      	blt.n	8004c1c <_dtoa_r+0x8e4>
 8004c00:	1b5d      	subs	r5, r3, r5
 8004c02:	9b05      	ldr	r3, [sp, #20]
 8004c04:	2b00      	cmp	r3, #0
 8004c06:	f6bf af3b 	bge.w	8004a80 <_dtoa_r+0x748>
 8004c0a:	9b05      	ldr	r3, [sp, #20]
 8004c0c:	1afe      	subs	r6, r7, r3
 8004c0e:	2300      	movs	r3, #0
 8004c10:	e737      	b.n	8004a82 <_dtoa_r+0x74a>
 8004c12:	bf00      	nop
 8004c14:	3fe00000 	.word	0x3fe00000
 8004c18:	40240000 	.word	0x40240000
 8004c1c:	9b0c      	ldr	r3, [sp, #48]	@ 0x30
 8004c1e:	9a10      	ldr	r2, [sp, #64]	@ 0x40
 8004c20:	1aeb      	subs	r3, r5, r3
 8004c22:	441a      	add	r2, r3
 8004c24:	950c      	str	r5, [sp, #48]	@ 0x30
 8004c26:	463e      	mov	r6, r7
 8004c28:	2500      	movs	r5, #0
 8004c2a:	9b05      	ldr	r3, [sp, #20]
 8004c2c:	9210      	str	r2, [sp, #64]	@ 0x40
 8004c2e:	e728      	b.n	8004a82 <_dtoa_r+0x74a>
 8004c30:	463e      	mov	r6, r7
 8004c32:	9d0c      	ldr	r5, [sp, #48]	@ 0x30
 8004c34:	9c0d      	ldr	r4, [sp, #52]	@ 0x34
 8004c36:	e72d      	b.n	8004a94 <_dtoa_r+0x75c>
 8004c38:	f8dd a010 	ldr.w	sl, [sp, #16]
 8004c3c:	e754      	b.n	8004ae8 <_dtoa_r+0x7b0>
 8004c3e:	9a0c      	ldr	r2, [sp, #48]	@ 0x30
 8004c40:	9904      	ldr	r1, [sp, #16]
 8004c42:	e753      	b.n	8004aec <_dtoa_r+0x7b4>
 8004c44:	f8cd a010 	str.w	sl, [sp, #16]
 8004c48:	e754      	b.n	8004af4 <_dtoa_r+0x7bc>
 8004c4a:	f04f 0a00 	mov.w	sl, #0
 8004c4e:	e77c      	b.n	8004b4a <_dtoa_r+0x812>
 8004c50:	469a      	mov	sl, r3
 8004c52:	e77a      	b.n	8004b4a <_dtoa_r+0x812>
 8004c54:	f04f 0a00 	mov.w	sl, #0
 8004c58:	e77b      	b.n	8004b52 <_dtoa_r+0x81a>
 8004c5a:	d092      	beq.n	8004b82 <_dtoa_r+0x84a>
 8004c5c:	9a09      	ldr	r2, [sp, #36]	@ 0x24
 8004c5e:	331c      	adds	r3, #28
 8004c60:	441a      	add	r2, r3
 8004c62:	441f      	add	r7, r3
 8004c64:	441e      	add	r6, r3
 8004c66:	9209      	str	r2, [sp, #36]	@ 0x24
 8004c68:	e78b      	b.n	8004b82 <_dtoa_r+0x84a>
 8004c6a:	4603      	mov	r3, r0
 8004c6c:	e7f6      	b.n	8004c5c <_dtoa_r+0x924>
 8004c6e:	9b05      	ldr	r3, [sp, #20]
 8004c70:	f8cd 8018 	str.w	r8, [sp, #24]
 8004c74:	2b00      	cmp	r3, #0
 8004c76:	dc23      	bgt.n	8004cc0 <_dtoa_r+0x988>
 8004c78:	9308      	str	r3, [sp, #32]
 8004c7a:	9b22      	ldr	r3, [sp, #136]	@ 0x88
 8004c7c:	2b02      	cmp	r3, #2
 8004c7e:	dd21      	ble.n	8004cc4 <_dtoa_r+0x98c>
 8004c80:	9b08      	ldr	r3, [sp, #32]
 8004c82:	2b00      	cmp	r3, #0
 8004c84:	f47f adab 	bne.w	80047de <_dtoa_r+0x4a6>
 8004c88:	4629      	mov	r1, r5
 8004c8a:	2205      	movs	r2, #5
 8004c8c:	4648      	mov	r0, r9
 8004c8e:	f000 faf5 	bl	800527c <__multadd>
 8004c92:	4601      	mov	r1, r0
 8004c94:	4605      	mov	r5, r0
 8004c96:	9804      	ldr	r0, [sp, #16]
 8004c98:	f000 fd08 	bl	80056ac <__mcmp>
 8004c9c:	2800      	cmp	r0, #0
 8004c9e:	f77f ad9e 	ble.w	80047de <_dtoa_r+0x4a6>
 8004ca2:	2331      	movs	r3, #49	@ 0x31
 8004ca4:	9e03      	ldr	r6, [sp, #12]
 8004ca6:	f806 3b01 	strb.w	r3, [r6], #1
 8004caa:	9b06      	ldr	r3, [sp, #24]
 8004cac:	3301      	adds	r3, #1
 8004cae:	9306      	str	r3, [sp, #24]
 8004cb0:	e599      	b.n	80047e6 <_dtoa_r+0x4ae>
 8004cb2:	4635      	mov	r5, r6
 8004cb4:	462c      	mov	r4, r5
 8004cb6:	e7f4      	b.n	8004ca2 <_dtoa_r+0x96a>
 8004cb8:	9d05      	ldr	r5, [sp, #20]
 8004cba:	f8cd 8018 	str.w	r8, [sp, #24]
 8004cbe:	e7f9      	b.n	8004cb4 <_dtoa_r+0x97c>
 8004cc0:	9b05      	ldr	r3, [sp, #20]
 8004cc2:	9308      	str	r3, [sp, #32]
 8004cc4:	9b0d      	ldr	r3, [sp, #52]	@ 0x34
 8004cc6:	2b00      	cmp	r3, #0
 8004cc8:	f000 8101 	beq.w	8004ece <_dtoa_r+0xb96>
 8004ccc:	2e00      	cmp	r6, #0
 8004cce:	dd05      	ble.n	8004cdc <_dtoa_r+0x9a4>
 8004cd0:	4621      	mov	r1, r4
 8004cd2:	4632      	mov	r2, r6
 8004cd4:	4648      	mov	r0, r9
 8004cd6:	f000 fc7d 	bl	80055d4 <__lshift>
 8004cda:	4604      	mov	r4, r0
 8004cdc:	f1ba 0f00 	cmp.w	sl, #0
 8004ce0:	d05a      	beq.n	8004d98 <_dtoa_r+0xa60>
 8004ce2:	4648      	mov	r0, r9
 8004ce4:	6861      	ldr	r1, [r4, #4]
 8004ce6:	f000 fa69 	bl	80051bc <_Balloc>
 8004cea:	4606      	mov	r6, r0
 8004cec:	b928      	cbnz	r0, 8004cfa <_dtoa_r+0x9c2>
 8004cee:	4602      	mov	r2, r0
 8004cf0:	f240 21ef 	movw	r1, #751	@ 0x2ef
 8004cf4:	4b81      	ldr	r3, [pc, #516]	@ (8004efc <_dtoa_r+0xbc4>)
 8004cf6:	f7ff bb33 	b.w	8004360 <_dtoa_r+0x28>
 8004cfa:	6922      	ldr	r2, [r4, #16]
 8004cfc:	f104 010c 	add.w	r1, r4, #12
 8004d00:	3202      	adds	r2, #2
 8004d02:	0092      	lsls	r2, r2, #2
 8004d04:	300c      	adds	r0, #12
 8004d06:	f000 fe77 	bl	80059f8 <memcpy>
 8004d0a:	2201      	movs	r2, #1
 8004d0c:	4631      	mov	r1, r6
 8004d0e:	4648      	mov	r0, r9
 8004d10:	f000 fc60 	bl	80055d4 <__lshift>
 8004d14:	4607      	mov	r7, r0
 8004d16:	9b03      	ldr	r3, [sp, #12]
 8004d18:	9a03      	ldr	r2, [sp, #12]
 8004d1a:	f103 0b01 	add.w	fp, r3, #1
 8004d1e:	9b08      	ldr	r3, [sp, #32]
 8004d20:	4413      	add	r3, r2
 8004d22:	930a      	str	r3, [sp, #40]	@ 0x28
 8004d24:	9b0e      	ldr	r3, [sp, #56]	@ 0x38
 8004d26:	f003 0301 	and.w	r3, r3, #1
 8004d2a:	9309      	str	r3, [sp, #36]	@ 0x24
 8004d2c:	f10b 33ff 	add.w	r3, fp, #4294967295	@ 0xffffffff
 8004d30:	4629      	mov	r1, r5
 8004d32:	9804      	ldr	r0, [sp, #16]
 8004d34:	9305      	str	r3, [sp, #20]
 8004d36:	f7ff fa77 	bl	8004228 <quorem>
 8004d3a:	4621      	mov	r1, r4
 8004d3c:	9008      	str	r0, [sp, #32]
 8004d3e:	f100 0a30 	add.w	sl, r0, #48	@ 0x30
 8004d42:	9804      	ldr	r0, [sp, #16]
 8004d44:	f000 fcb2 	bl	80056ac <__mcmp>
 8004d48:	463a      	mov	r2, r7
 8004d4a:	4680      	mov	r8, r0
 8004d4c:	4629      	mov	r1, r5
 8004d4e:	4648      	mov	r0, r9
 8004d50:	f000 fcc8 	bl	80056e4 <__mdiff>
 8004d54:	68c2      	ldr	r2, [r0, #12]
 8004d56:	4606      	mov	r6, r0
 8004d58:	bb02      	cbnz	r2, 8004d9c <_dtoa_r+0xa64>
 8004d5a:	4601      	mov	r1, r0
 8004d5c:	9804      	ldr	r0, [sp, #16]
 8004d5e:	f000 fca5 	bl	80056ac <__mcmp>
 8004d62:	4602      	mov	r2, r0
 8004d64:	4631      	mov	r1, r6
 8004d66:	4648      	mov	r0, r9
 8004d68:	920c      	str	r2, [sp, #48]	@ 0x30
 8004d6a:	f000 fa65 	bl	8005238 <_Bfree>
 8004d6e:	9b22      	ldr	r3, [sp, #136]	@ 0x88
 8004d70:	9a0c      	ldr	r2, [sp, #48]	@ 0x30
 8004d72:	465e      	mov	r6, fp
 8004d74:	ea42 0103 	orr.w	r1, r2, r3
 8004d78:	9b09      	ldr	r3, [sp, #36]	@ 0x24
 8004d7a:	4319      	orrs	r1, r3
 8004d7c:	d110      	bne.n	8004da0 <_dtoa_r+0xa68>
 8004d7e:	f1ba 0f39 	cmp.w	sl, #57	@ 0x39
 8004d82:	d02b      	beq.n	8004ddc <_dtoa_r+0xaa4>
 8004d84:	f1b8 0f00 	cmp.w	r8, #0
 8004d88:	dd02      	ble.n	8004d90 <_dtoa_r+0xa58>
 8004d8a:	9b08      	ldr	r3, [sp, #32]
 8004d8c:	f103 0a31 	add.w	sl, r3, #49	@ 0x31
 8004d90:	9b05      	ldr	r3, [sp, #20]
 8004d92:	f883 a000 	strb.w	sl, [r3]
 8004d96:	e528      	b.n	80047ea <_dtoa_r+0x4b2>
 8004d98:	4627      	mov	r7, r4
 8004d9a:	e7bc      	b.n	8004d16 <_dtoa_r+0x9de>
 8004d9c:	2201      	movs	r2, #1
 8004d9e:	e7e1      	b.n	8004d64 <_dtoa_r+0xa2c>
 8004da0:	f1b8 0f00 	cmp.w	r8, #0
 8004da4:	db06      	blt.n	8004db4 <_dtoa_r+0xa7c>
 8004da6:	9b22      	ldr	r3, [sp, #136]	@ 0x88
 8004da8:	ea48 0803 	orr.w	r8, r8, r3
 8004dac:	9b09      	ldr	r3, [sp, #36]	@ 0x24
 8004dae:	ea58 0803 	orrs.w	r8, r8, r3
 8004db2:	d120      	bne.n	8004df6 <_dtoa_r+0xabe>
 8004db4:	2a00      	cmp	r2, #0
 8004db6:	ddeb      	ble.n	8004d90 <_dtoa_r+0xa58>
 8004db8:	2201      	movs	r2, #1
 8004dba:	9904      	ldr	r1, [sp, #16]
 8004dbc:	4648      	mov	r0, r9
 8004dbe:	f000 fc09 	bl	80055d4 <__lshift>
 8004dc2:	4629      	mov	r1, r5
 8004dc4:	9004      	str	r0, [sp, #16]
 8004dc6:	f000 fc71 	bl	80056ac <__mcmp>
 8004dca:	2800      	cmp	r0, #0
 8004dcc:	dc03      	bgt.n	8004dd6 <_dtoa_r+0xa9e>
 8004dce:	d1df      	bne.n	8004d90 <_dtoa_r+0xa58>
 8004dd0:	f01a 0f01 	tst.w	sl, #1
 8004dd4:	d0dc      	beq.n	8004d90 <_dtoa_r+0xa58>
 8004dd6:	f1ba 0f39 	cmp.w	sl, #57	@ 0x39
 8004dda:	d1d6      	bne.n	8004d8a <_dtoa_r+0xa52>
 8004ddc:	2339      	movs	r3, #57	@ 0x39
 8004dde:	9a05      	ldr	r2, [sp, #20]
 8004de0:	7013      	strb	r3, [r2, #0]
 8004de2:	4633      	mov	r3, r6
 8004de4:	461e      	mov	r6, r3
 8004de6:	f816 2c01 	ldrb.w	r2, [r6, #-1]
 8004dea:	3b01      	subs	r3, #1
 8004dec:	2a39      	cmp	r2, #57	@ 0x39
 8004dee:	d053      	beq.n	8004e98 <_dtoa_r+0xb60>
 8004df0:	3201      	adds	r2, #1
 8004df2:	701a      	strb	r2, [r3, #0]
 8004df4:	e4f9      	b.n	80047ea <_dtoa_r+0x4b2>
 8004df6:	2a00      	cmp	r2, #0
 8004df8:	dd07      	ble.n	8004e0a <_dtoa_r+0xad2>
 8004dfa:	f1ba 0f39 	cmp.w	sl, #57	@ 0x39
 8004dfe:	d0ed      	beq.n	8004ddc <_dtoa_r+0xaa4>
 8004e00:	9a05      	ldr	r2, [sp, #20]
 8004e02:	f10a 0301 	add.w	r3, sl, #1
 8004e06:	7013      	strb	r3, [r2, #0]
 8004e08:	e4ef      	b.n	80047ea <_dtoa_r+0x4b2>
 8004e0a:	9b0a      	ldr	r3, [sp, #40]	@ 0x28
 8004e0c:	f80b ac01 	strb.w	sl, [fp, #-1]
 8004e10:	455b      	cmp	r3, fp
 8004e12:	d02b      	beq.n	8004e6c <_dtoa_r+0xb34>
 8004e14:	2300      	movs	r3, #0
 8004e16:	220a      	movs	r2, #10
 8004e18:	9904      	ldr	r1, [sp, #16]
 8004e1a:	4648      	mov	r0, r9
 8004e1c:	f000 fa2e 	bl	800527c <__multadd>
 8004e20:	42bc      	cmp	r4, r7
 8004e22:	9004      	str	r0, [sp, #16]
 8004e24:	f04f 0300 	mov.w	r3, #0
 8004e28:	f04f 020a 	mov.w	r2, #10
 8004e2c:	4621      	mov	r1, r4
 8004e2e:	4648      	mov	r0, r9
 8004e30:	d106      	bne.n	8004e40 <_dtoa_r+0xb08>
 8004e32:	f000 fa23 	bl	800527c <__multadd>
 8004e36:	4604      	mov	r4, r0
 8004e38:	4607      	mov	r7, r0
 8004e3a:	f10b 0b01 	add.w	fp, fp, #1
 8004e3e:	e775      	b.n	8004d2c <_dtoa_r+0x9f4>
 8004e40:	f000 fa1c 	bl	800527c <__multadd>
 8004e44:	4639      	mov	r1, r7
 8004e46:	4604      	mov	r4, r0
 8004e48:	2300      	movs	r3, #0
 8004e4a:	220a      	movs	r2, #10
 8004e4c:	4648      	mov	r0, r9
 8004e4e:	f000 fa15 	bl	800527c <__multadd>
 8004e52:	4607      	mov	r7, r0
 8004e54:	e7f1      	b.n	8004e3a <_dtoa_r+0xb02>
 8004e56:	9b08      	ldr	r3, [sp, #32]
 8004e58:	4627      	mov	r7, r4
 8004e5a:	2b00      	cmp	r3, #0
 8004e5c:	f103 36ff 	add.w	r6, r3, #4294967295	@ 0xffffffff
 8004e60:	bfd8      	it	le
 8004e62:	2600      	movle	r6, #0
 8004e64:	2400      	movs	r4, #0
 8004e66:	9b03      	ldr	r3, [sp, #12]
 8004e68:	1c5a      	adds	r2, r3, #1
 8004e6a:	4416      	add	r6, r2
 8004e6c:	2201      	movs	r2, #1
 8004e6e:	9904      	ldr	r1, [sp, #16]
 8004e70:	4648      	mov	r0, r9
 8004e72:	f000 fbaf 	bl	80055d4 <__lshift>
 8004e76:	4629      	mov	r1, r5
 8004e78:	9004      	str	r0, [sp, #16]
 8004e7a:	f000 fc17 	bl	80056ac <__mcmp>
 8004e7e:	2800      	cmp	r0, #0
 8004e80:	dcaf      	bgt.n	8004de2 <_dtoa_r+0xaaa>
 8004e82:	d102      	bne.n	8004e8a <_dtoa_r+0xb52>
 8004e84:	f01a 0f01 	tst.w	sl, #1
 8004e88:	d1ab      	bne.n	8004de2 <_dtoa_r+0xaaa>
 8004e8a:	4633      	mov	r3, r6
 8004e8c:	461e      	mov	r6, r3
 8004e8e:	f813 2d01 	ldrb.w	r2, [r3, #-1]!
 8004e92:	2a30      	cmp	r2, #48	@ 0x30
 8004e94:	d0fa      	beq.n	8004e8c <_dtoa_r+0xb54>
 8004e96:	e4a8      	b.n	80047ea <_dtoa_r+0x4b2>
 8004e98:	9a03      	ldr	r2, [sp, #12]
 8004e9a:	429a      	cmp	r2, r3
 8004e9c:	d1a2      	bne.n	8004de4 <_dtoa_r+0xaac>
 8004e9e:	9b06      	ldr	r3, [sp, #24]
 8004ea0:	3301      	adds	r3, #1
 8004ea2:	9306      	str	r3, [sp, #24]
 8004ea4:	2331      	movs	r3, #49	@ 0x31
 8004ea6:	e7ae      	b.n	8004e06 <_dtoa_r+0xace>
 8004ea8:	9b26      	ldr	r3, [sp, #152]	@ 0x98
 8004eaa:	2b00      	cmp	r3, #0
 8004eac:	f47f aa8c 	bne.w	80043c8 <_dtoa_r+0x90>
 8004eb0:	4b13      	ldr	r3, [pc, #76]	@ (8004f00 <_dtoa_r+0xbc8>)
 8004eb2:	f7ff baab 	b.w	800440c <_dtoa_r+0xd4>
 8004eb6:	9b22      	ldr	r3, [sp, #136]	@ 0x88
 8004eb8:	2b01      	cmp	r3, #1
 8004eba:	f77f ae2e 	ble.w	8004b1a <_dtoa_r+0x7e2>
 8004ebe:	f8dd a040 	ldr.w	sl, [sp, #64]	@ 0x40
 8004ec2:	2001      	movs	r0, #1
 8004ec4:	e64d      	b.n	8004b62 <_dtoa_r+0x82a>
 8004ec6:	9b08      	ldr	r3, [sp, #32]
 8004ec8:	2b00      	cmp	r3, #0
 8004eca:	f77f aed6 	ble.w	8004c7a <_dtoa_r+0x942>
 8004ece:	9e03      	ldr	r6, [sp, #12]
 8004ed0:	4629      	mov	r1, r5
 8004ed2:	9804      	ldr	r0, [sp, #16]
 8004ed4:	f7ff f9a8 	bl	8004228 <quorem>
 8004ed8:	9b03      	ldr	r3, [sp, #12]
 8004eda:	f100 0a30 	add.w	sl, r0, #48	@ 0x30
 8004ede:	f806 ab01 	strb.w	sl, [r6], #1
 8004ee2:	1af2      	subs	r2, r6, r3
 8004ee4:	9b08      	ldr	r3, [sp, #32]
 8004ee6:	4293      	cmp	r3, r2
 8004ee8:	ddb5      	ble.n	8004e56 <_dtoa_r+0xb1e>
 8004eea:	2300      	movs	r3, #0
 8004eec:	220a      	movs	r2, #10
 8004eee:	4648      	mov	r0, r9
 8004ef0:	9904      	ldr	r1, [sp, #16]
 8004ef2:	f000 f9c3 	bl	800527c <__multadd>
 8004ef6:	9004      	str	r0, [sp, #16]
 8004ef8:	e7ea      	b.n	8004ed0 <_dtoa_r+0xb98>
 8004efa:	bf00      	nop
 8004efc:	080062c0 	.word	0x080062c0
 8004f00:	08006244 	.word	0x08006244

08004f04 <malloc>:
 8004f04:	4b02      	ldr	r3, [pc, #8]	@ (8004f10 <malloc+0xc>)
 8004f06:	4601      	mov	r1, r0
 8004f08:	6818      	ldr	r0, [r3, #0]
 8004f0a:	f000 b825 	b.w	8004f58 <_malloc_r>
 8004f0e:	bf00      	nop
 8004f10:	20000018 	.word	0x20000018

08004f14 <sbrk_aligned>:
 8004f14:	b570      	push	{r4, r5, r6, lr}
 8004f16:	4e0f      	ldr	r6, [pc, #60]	@ (8004f54 <sbrk_aligned+0x40>)
 8004f18:	460c      	mov	r4, r1
 8004f1a:	6831      	ldr	r1, [r6, #0]
 8004f1c:	4605      	mov	r5, r0
 8004f1e:	b911      	cbnz	r1, 8004f26 <sbrk_aligned+0x12>
 8004f20:	f000 fd38 	bl	8005994 <_sbrk_r>
 8004f24:	6030      	str	r0, [r6, #0]
 8004f26:	4621      	mov	r1, r4
 8004f28:	4628      	mov	r0, r5
 8004f2a:	f000 fd33 	bl	8005994 <_sbrk_r>
 8004f2e:	1c43      	adds	r3, r0, #1
 8004f30:	d103      	bne.n	8004f3a <sbrk_aligned+0x26>
 8004f32:	f04f 34ff 	mov.w	r4, #4294967295	@ 0xffffffff
 8004f36:	4620      	mov	r0, r4
 8004f38:	bd70      	pop	{r4, r5, r6, pc}
 8004f3a:	1cc4      	adds	r4, r0, #3
 8004f3c:	f024 0403 	bic.w	r4, r4, #3
 8004f40:	42a0      	cmp	r0, r4
 8004f42:	d0f8      	beq.n	8004f36 <sbrk_aligned+0x22>
 8004f44:	1a21      	subs	r1, r4, r0
 8004f46:	4628      	mov	r0, r5
 8004f48:	f000 fd24 	bl	8005994 <_sbrk_r>
 8004f4c:	3001      	adds	r0, #1
 8004f4e:	d1f2      	bne.n	8004f36 <sbrk_aligned+0x22>
 8004f50:	e7ef      	b.n	8004f32 <sbrk_aligned+0x1e>
 8004f52:	bf00      	nop
 8004f54:	20000aa0 	.word	0x20000aa0

08004f58 <_malloc_r>:
 8004f58:	e92d 43f8 	stmdb	sp!, {r3, r4, r5, r6, r7, r8, r9, lr}
 8004f5c:	1ccd      	adds	r5, r1, #3
 8004f5e:	f025 0503 	bic.w	r5, r5, #3
 8004f62:	3508      	adds	r5, #8
 8004f64:	2d0c      	cmp	r5, #12
 8004f66:	bf38      	it	cc
 8004f68:	250c      	movcc	r5, #12
 8004f6a:	2d00      	cmp	r5, #0
 8004f6c:	4606      	mov	r6, r0
 8004f6e:	db01      	blt.n	8004f74 <_malloc_r+0x1c>
 8004f70:	42a9      	cmp	r1, r5
 8004f72:	d904      	bls.n	8004f7e <_malloc_r+0x26>
 8004f74:	230c      	movs	r3, #12
 8004f76:	6033      	str	r3, [r6, #0]
 8004f78:	2000      	movs	r0, #0
 8004f7a:	e8bd 83f8 	ldmia.w	sp!, {r3, r4, r5, r6, r7, r8, r9, pc}
 8004f7e:	f8df 80d4 	ldr.w	r8, [pc, #212]	@ 8005054 <_malloc_r+0xfc>
 8004f82:	f000 f90f 	bl	80051a4 <__malloc_lock>
 8004f86:	f8d8 3000 	ldr.w	r3, [r8]
 8004f8a:	461c      	mov	r4, r3
 8004f8c:	bb44      	cbnz	r4, 8004fe0 <_malloc_r+0x88>
 8004f8e:	4629      	mov	r1, r5
 8004f90:	4630      	mov	r0, r6
 8004f92:	f7ff ffbf 	bl	8004f14 <sbrk_aligned>
 8004f96:	1c43      	adds	r3, r0, #1
 8004f98:	4604      	mov	r4, r0
 8004f9a:	d158      	bne.n	800504e <_malloc_r+0xf6>
 8004f9c:	f8d8 4000 	ldr.w	r4, [r8]
 8004fa0:	4627      	mov	r7, r4
 8004fa2:	2f00      	cmp	r7, #0
 8004fa4:	d143      	bne.n	800502e <_malloc_r+0xd6>
 8004fa6:	2c00      	cmp	r4, #0
 8004fa8:	d04b      	beq.n	8005042 <_malloc_r+0xea>
 8004faa:	6823      	ldr	r3, [r4, #0]
 8004fac:	4639      	mov	r1, r7
 8004fae:	4630      	mov	r0, r6
 8004fb0:	eb04 0903 	add.w	r9, r4, r3
 8004fb4:	f000 fcee 	bl	8005994 <_sbrk_r>
 8004fb8:	4581      	cmp	r9, r0
 8004fba:	d142      	bne.n	8005042 <_malloc_r+0xea>
 8004fbc:	6821      	ldr	r1, [r4, #0]
 8004fbe:	4630      	mov	r0, r6
 8004fc0:	1a6d      	subs	r5, r5, r1
 8004fc2:	4629      	mov	r1, r5
 8004fc4:	f7ff ffa6 	bl	8004f14 <sbrk_aligned>
 8004fc8:	3001      	adds	r0, #1
 8004fca:	d03a      	beq.n	8005042 <_malloc_r+0xea>
 8004fcc:	6823      	ldr	r3, [r4, #0]
 8004fce:	442b      	add	r3, r5
 8004fd0:	6023      	str	r3, [r4, #0]
 8004fd2:	f8d8 3000 	ldr.w	r3, [r8]
 8004fd6:	685a      	ldr	r2, [r3, #4]
 8004fd8:	bb62      	cbnz	r2, 8005034 <_malloc_r+0xdc>
 8004fda:	f8c8 7000 	str.w	r7, [r8]
 8004fde:	e00f      	b.n	8005000 <_malloc_r+0xa8>
 8004fe0:	6822      	ldr	r2, [r4, #0]
 8004fe2:	1b52      	subs	r2, r2, r5
 8004fe4:	d420      	bmi.n	8005028 <_malloc_r+0xd0>
 8004fe6:	2a0b      	cmp	r2, #11
 8004fe8:	d917      	bls.n	800501a <_malloc_r+0xc2>
 8004fea:	1961      	adds	r1, r4, r5
 8004fec:	42a3      	cmp	r3, r4
 8004fee:	6025      	str	r5, [r4, #0]
 8004ff0:	bf18      	it	ne
 8004ff2:	6059      	strne	r1, [r3, #4]
 8004ff4:	6863      	ldr	r3, [r4, #4]
 8004ff6:	bf08      	it	eq
 8004ff8:	f8c8 1000 	streq.w	r1, [r8]
 8004ffc:	5162      	str	r2, [r4, r5]
 8004ffe:	604b      	str	r3, [r1, #4]
 8005000:	4630      	mov	r0, r6
 8005002:	f000 f8d5 	bl	80051b0 <__malloc_unlock>
 8005006:	f104 000b 	add.w	r0, r4, #11
 800500a:	1d23      	adds	r3, r4, #4
 800500c:	f020 0007 	bic.w	r0, r0, #7
 8005010:	1ac2      	subs	r2, r0, r3
 8005012:	bf1c      	itt	ne
 8005014:	1a1b      	subne	r3, r3, r0
 8005016:	50a3      	strne	r3, [r4, r2]
 8005018:	e7af      	b.n	8004f7a <_malloc_r+0x22>
 800501a:	6862      	ldr	r2, [r4, #4]
 800501c:	42a3      	cmp	r3, r4
 800501e:	bf0c      	ite	eq
 8005020:	f8c8 2000 	streq.w	r2, [r8]
 8005024:	605a      	strne	r2, [r3, #4]
 8005026:	e7eb      	b.n	8005000 <_malloc_r+0xa8>
 8005028:	4623      	mov	r3, r4
 800502a:	6864      	ldr	r4, [r4, #4]
 800502c:	e7ae      	b.n	8004f8c <_malloc_r+0x34>
 800502e:	463c      	mov	r4, r7
 8005030:	687f      	ldr	r7, [r7, #4]
 8005032:	e7b6      	b.n	8004fa2 <_malloc_r+0x4a>
 8005034:	461a      	mov	r2, r3
 8005036:	685b      	ldr	r3, [r3, #4]
 8005038:	42a3      	cmp	r3, r4
 800503a:	d1fb      	bne.n	8005034 <_malloc_r+0xdc>
 800503c:	2300      	movs	r3, #0
 800503e:	6053      	str	r3, [r2, #4]
 8005040:	e7de      	b.n	8005000 <_malloc_r+0xa8>
 8005042:	230c      	movs	r3, #12
 8005044:	4630      	mov	r0, r6
 8005046:	6033      	str	r3, [r6, #0]
 8005048:	f000 f8b2 	bl	80051b0 <__malloc_unlock>
 800504c:	e794      	b.n	8004f78 <_malloc_r+0x20>
 800504e:	6005      	str	r5, [r0, #0]
 8005050:	e7d6      	b.n	8005000 <_malloc_r+0xa8>
 8005052:	bf00      	nop
 8005054:	20000aa4 	.word	0x20000aa4

08005058 <__sflush_r>:
 8005058:	f9b1 200c 	ldrsh.w	r2, [r1, #12]
 800505c:	b5f8      	push	{r3, r4, r5, r6, r7, lr}
 800505e:	0716      	lsls	r6, r2, #28
 8005060:	4605      	mov	r5, r0
 8005062:	460c      	mov	r4, r1
 8005064:	d451      	bmi.n	800510a <__sflush_r+0xb2>
 8005066:	684b      	ldr	r3, [r1, #4]
 8005068:	2b00      	cmp	r3, #0
 800506a:	dc02      	bgt.n	8005072 <__sflush_r+0x1a>
 800506c:	6c0b      	ldr	r3, [r1, #64]	@ 0x40
 800506e:	2b00      	cmp	r3, #0
 8005070:	dd49      	ble.n	8005106 <__sflush_r+0xae>
 8005072:	6ae6      	ldr	r6, [r4, #44]	@ 0x2c
 8005074:	2e00      	cmp	r6, #0
 8005076:	d046      	beq.n	8005106 <__sflush_r+0xae>
 8005078:	2300      	movs	r3, #0
 800507a:	f412 5280 	ands.w	r2, r2, #4096	@ 0x1000
 800507e:	682f      	ldr	r7, [r5, #0]
 8005080:	602b      	str	r3, [r5, #0]
 8005082:	d031      	beq.n	80050e8 <__sflush_r+0x90>
 8005084:	6d62      	ldr	r2, [r4, #84]	@ 0x54
 8005086:	89a3      	ldrh	r3, [r4, #12]
 8005088:	0759      	lsls	r1, r3, #29
 800508a:	d505      	bpl.n	8005098 <__sflush_r+0x40>
 800508c:	6863      	ldr	r3, [r4, #4]
 800508e:	1ad2      	subs	r2, r2, r3
 8005090:	6b63      	ldr	r3, [r4, #52]	@ 0x34
 8005092:	b10b      	cbz	r3, 8005098 <__sflush_r+0x40>
 8005094:	6c23      	ldr	r3, [r4, #64]	@ 0x40
 8005096:	1ad2      	subs	r2, r2, r3
 8005098:	2300      	movs	r3, #0
 800509a:	4628      	mov	r0, r5
 800509c:	6ae6      	ldr	r6, [r4, #44]	@ 0x2c
 800509e:	6a21      	ldr	r1, [r4, #32]
 80050a0:	47b0      	blx	r6
 80050a2:	1c42      	adds	r2, r0, #1
 80050a4:	f9b4 300c 	ldrsh.w	r3, [r4, #12]
 80050a8:	d106      	bne.n	80050b8 <__sflush_r+0x60>
 80050aa:	6829      	ldr	r1, [r5, #0]
 80050ac:	291d      	cmp	r1, #29
 80050ae:	d845      	bhi.n	800513c <__sflush_r+0xe4>
 80050b0:	4a27      	ldr	r2, [pc, #156]	@ (8005150 <__sflush_r+0xf8>)
 80050b2:	40ca      	lsrs	r2, r1
 80050b4:	07d6      	lsls	r6, r2, #31
 80050b6:	d541      	bpl.n	800513c <__sflush_r+0xe4>
 80050b8:	2200      	movs	r2, #0
 80050ba:	6062      	str	r2, [r4, #4]
 80050bc:	6922      	ldr	r2, [r4, #16]
 80050be:	04d9      	lsls	r1, r3, #19
 80050c0:	6022      	str	r2, [r4, #0]
 80050c2:	d504      	bpl.n	80050ce <__sflush_r+0x76>
 80050c4:	1c42      	adds	r2, r0, #1
 80050c6:	d101      	bne.n	80050cc <__sflush_r+0x74>
 80050c8:	682b      	ldr	r3, [r5, #0]
 80050ca:	b903      	cbnz	r3, 80050ce <__sflush_r+0x76>
 80050cc:	6560      	str	r0, [r4, #84]	@ 0x54
 80050ce:	6b61      	ldr	r1, [r4, #52]	@ 0x34
 80050d0:	602f      	str	r7, [r5, #0]
 80050d2:	b1c1      	cbz	r1, 8005106 <__sflush_r+0xae>
 80050d4:	f104 0344 	add.w	r3, r4, #68	@ 0x44
 80050d8:	4299      	cmp	r1, r3
 80050da:	d002      	beq.n	80050e2 <__sflush_r+0x8a>
 80050dc:	4628      	mov	r0, r5
 80050de:	f000 fccb 	bl	8005a78 <_free_r>
 80050e2:	2300      	movs	r3, #0
 80050e4:	6363      	str	r3, [r4, #52]	@ 0x34
 80050e6:	e00e      	b.n	8005106 <__sflush_r+0xae>
 80050e8:	2301      	movs	r3, #1
 80050ea:	4628      	mov	r0, r5
 80050ec:	6a21      	ldr	r1, [r4, #32]
 80050ee:	47b0      	blx	r6
 80050f0:	4602      	mov	r2, r0
 80050f2:	1c50      	adds	r0, r2, #1
 80050f4:	d1c7      	bne.n	8005086 <__sflush_r+0x2e>
 80050f6:	682b      	ldr	r3, [r5, #0]
 80050f8:	2b00      	cmp	r3, #0
 80050fa:	d0c4      	beq.n	8005086 <__sflush_r+0x2e>
 80050fc:	2b1d      	cmp	r3, #29
 80050fe:	d001      	beq.n	8005104 <__sflush_r+0xac>
 8005100:	2b16      	cmp	r3, #22
 8005102:	d119      	bne.n	8005138 <__sflush_r+0xe0>
 8005104:	602f      	str	r7, [r5, #0]
 8005106:	2000      	movs	r0, #0
 8005108:	e01d      	b.n	8005146 <__sflush_r+0xee>
 800510a:	690f      	ldr	r7, [r1, #16]
 800510c:	2f00      	cmp	r7, #0
 800510e:	d0fa      	beq.n	8005106 <__sflush_r+0xae>
 8005110:	0793      	lsls	r3, r2, #30
 8005112:	bf18      	it	ne
 8005114:	2300      	movne	r3, #0
 8005116:	680e      	ldr	r6, [r1, #0]
 8005118:	bf08      	it	eq
 800511a:	694b      	ldreq	r3, [r1, #20]
 800511c:	1bf6      	subs	r6, r6, r7
 800511e:	600f      	str	r7, [r1, #0]
 8005120:	608b      	str	r3, [r1, #8]
 8005122:	2e00      	cmp	r6, #0
 8005124:	ddef      	ble.n	8005106 <__sflush_r+0xae>
 8005126:	4633      	mov	r3, r6
 8005128:	463a      	mov	r2, r7
 800512a:	4628      	mov	r0, r5
 800512c:	6a21      	ldr	r1, [r4, #32]
 800512e:	f8d4 c028 	ldr.w	ip, [r4, #40]	@ 0x28
 8005132:	47e0      	blx	ip
 8005134:	2800      	cmp	r0, #0
 8005136:	dc07      	bgt.n	8005148 <__sflush_r+0xf0>
 8005138:	f9b4 300c 	ldrsh.w	r3, [r4, #12]
 800513c:	f04f 30ff 	mov.w	r0, #4294967295	@ 0xffffffff
 8005140:	f043 0340 	orr.w	r3, r3, #64	@ 0x40
 8005144:	81a3      	strh	r3, [r4, #12]
 8005146:	bdf8      	pop	{r3, r4, r5, r6, r7, pc}
 8005148:	4407      	add	r7, r0
 800514a:	1a36      	subs	r6, r6, r0
 800514c:	e7e9      	b.n	8005122 <__sflush_r+0xca>
 800514e:	bf00      	nop
 8005150:	20400001 	.word	0x20400001

08005154 <_fflush_r>:
 8005154:	b538      	push	{r3, r4, r5, lr}
 8005156:	690b      	ldr	r3, [r1, #16]
 8005158:	4605      	mov	r5, r0
 800515a:	460c      	mov	r4, r1
 800515c:	b913      	cbnz	r3, 8005164 <_fflush_r+0x10>
 800515e:	2500      	movs	r5, #0
 8005160:	4628      	mov	r0, r5
 8005162:	bd38      	pop	{r3, r4, r5, pc}
 8005164:	b118      	cbz	r0, 800516e <_fflush_r+0x1a>
 8005166:	6a03      	ldr	r3, [r0, #32]
 8005168:	b90b      	cbnz	r3, 800516e <_fflush_r+0x1a>
 800516a:	f7fe ffdf 	bl	800412c <__sinit>
 800516e:	f9b4 300c 	ldrsh.w	r3, [r4, #12]
 8005172:	2b00      	cmp	r3, #0
 8005174:	d0f3      	beq.n	800515e <_fflush_r+0xa>
 8005176:	6e62      	ldr	r2, [r4, #100]	@ 0x64
 8005178:	07d0      	lsls	r0, r2, #31
 800517a:	d404      	bmi.n	8005186 <_fflush_r+0x32>
 800517c:	0599      	lsls	r1, r3, #22
 800517e:	d402      	bmi.n	8005186 <_fflush_r+0x32>
 8005180:	6da0      	ldr	r0, [r4, #88]	@ 0x58
 8005182:	f7ff f83c 	bl	80041fe <__retarget_lock_acquire_recursive>
 8005186:	4628      	mov	r0, r5
 8005188:	4621      	mov	r1, r4
 800518a:	f7ff ff65 	bl	8005058 <__sflush_r>
 800518e:	6e63      	ldr	r3, [r4, #100]	@ 0x64
 8005190:	4605      	mov	r5, r0
 8005192:	07da      	lsls	r2, r3, #31
 8005194:	d4e4      	bmi.n	8005160 <_fflush_r+0xc>
 8005196:	89a3      	ldrh	r3, [r4, #12]
 8005198:	059b      	lsls	r3, r3, #22
 800519a:	d4e1      	bmi.n	8005160 <_fflush_r+0xc>
 800519c:	6da0      	ldr	r0, [r4, #88]	@ 0x58
 800519e:	f7ff f82f 	bl	8004200 <__retarget_lock_release_recursive>
 80051a2:	e7dd      	b.n	8005160 <_fflush_r+0xc>

080051a4 <__malloc_lock>:
 80051a4:	4801      	ldr	r0, [pc, #4]	@ (80051ac <__malloc_lock+0x8>)
 80051a6:	f7ff b82a 	b.w	80041fe <__retarget_lock_acquire_recursive>
 80051aa:	bf00      	nop
 80051ac:	20000a9c 	.word	0x20000a9c

080051b0 <__malloc_unlock>:
 80051b0:	4801      	ldr	r0, [pc, #4]	@ (80051b8 <__malloc_unlock+0x8>)
 80051b2:	f7ff b825 	b.w	8004200 <__retarget_lock_release_recursive>
 80051b6:	bf00      	nop
 80051b8:	20000a9c 	.word	0x20000a9c

080051bc <_Balloc>:
 80051bc:	b570      	push	{r4, r5, r6, lr}
 80051be:	69c4      	ldr	r4, [r0, #28]
 80051c0:	4605      	mov	r5, r0
 80051c2:	460e      	mov	r6, r1
 80051c4:	b984      	cbnz	r4, 80051e8 <_Balloc+0x2c>
 80051c6:	2010      	movs	r0, #16
 80051c8:	f7ff fe9c 	bl	8004f04 <malloc>
 80051cc:	4604      	mov	r4, r0
 80051ce:	61e8      	str	r0, [r5, #28]
 80051d0:	b928      	cbnz	r0, 80051de <_Balloc+0x22>
 80051d2:	4602      	mov	r2, r0
 80051d4:	216b      	movs	r1, #107	@ 0x6b
 80051d6:	4b16      	ldr	r3, [pc, #88]	@ (8005230 <_Balloc+0x74>)
 80051d8:	4816      	ldr	r0, [pc, #88]	@ (8005234 <_Balloc+0x78>)
 80051da:	f000 fc1b 	bl	8005a14 <__assert_func>
 80051de:	2300      	movs	r3, #0
 80051e0:	e9c0 3301 	strd	r3, r3, [r0, #4]
 80051e4:	6003      	str	r3, [r0, #0]
 80051e6:	60c3      	str	r3, [r0, #12]
 80051e8:	68e3      	ldr	r3, [r4, #12]
 80051ea:	b953      	cbnz	r3, 8005202 <_Balloc+0x46>
 80051ec:	2221      	movs	r2, #33	@ 0x21
 80051ee:	2104      	movs	r1, #4
 80051f0:	4628      	mov	r0, r5
 80051f2:	f000 fc2d 	bl	8005a50 <_calloc_r>
 80051f6:	69eb      	ldr	r3, [r5, #28]
 80051f8:	60e0      	str	r0, [r4, #12]
 80051fa:	68db      	ldr	r3, [r3, #12]
 80051fc:	b90b      	cbnz	r3, 8005202 <_Balloc+0x46>
 80051fe:	2000      	movs	r0, #0
 8005200:	bd70      	pop	{r4, r5, r6, pc}
 8005202:	f853 0026 	ldr.w	r0, [r3, r6, lsl #2]
 8005206:	b130      	cbz	r0, 8005216 <_Balloc+0x5a>
 8005208:	6802      	ldr	r2, [r0, #0]
 800520a:	f843 2026 	str.w	r2, [r3, r6, lsl #2]
 800520e:	2300      	movs	r3, #0
 8005210:	e9c0 3303 	strd	r3, r3, [r0, #12]
 8005214:	e7f4      	b.n	8005200 <_Balloc+0x44>
 8005216:	2101      	movs	r1, #1
 8005218:	fa01 f406 	lsl.w	r4, r1, r6
 800521c:	1d62      	adds	r2, r4, #5
 800521e:	4628      	mov	r0, r5
 8005220:	0092      	lsls	r2, r2, #2
 8005222:	f000 fc15 	bl	8005a50 <_calloc_r>
 8005226:	2800      	cmp	r0, #0
 8005228:	d0e9      	beq.n	80051fe <_Balloc+0x42>
 800522a:	e9c0 6401 	strd	r6, r4, [r0, #4]
 800522e:	e7ee      	b.n	800520e <_Balloc+0x52>
 8005230:	08006251 	.word	0x08006251
 8005234:	080062d1 	.word	0x080062d1

08005238 <_Bfree>:
 8005238:	b570      	push	{r4, r5, r6, lr}
 800523a:	69c6      	ldr	r6, [r0, #28]
 800523c:	4605      	mov	r5, r0
 800523e:	460c      	mov	r4, r1
 8005240:	b976      	cbnz	r6, 8005260 <_Bfree+0x28>
 8005242:	2010      	movs	r0, #16
 8005244:	f7ff fe5e 	bl	8004f04 <malloc>
 8005248:	4602      	mov	r2, r0
 800524a:	61e8      	str	r0, [r5, #28]
 800524c:	b920      	cbnz	r0, 8005258 <_Bfree+0x20>
 800524e:	218f      	movs	r1, #143	@ 0x8f
 8005250:	4b08      	ldr	r3, [pc, #32]	@ (8005274 <_Bfree+0x3c>)
 8005252:	4809      	ldr	r0, [pc, #36]	@ (8005278 <_Bfree+0x40>)
 8005254:	f000 fbde 	bl	8005a14 <__assert_func>
 8005258:	e9c0 6601 	strd	r6, r6, [r0, #4]
 800525c:	6006      	str	r6, [r0, #0]
 800525e:	60c6      	str	r6, [r0, #12]
 8005260:	b13c      	cbz	r4, 8005272 <_Bfree+0x3a>
 8005262:	69eb      	ldr	r3, [r5, #28]
 8005264:	6862      	ldr	r2, [r4, #4]
 8005266:	68db      	ldr	r3, [r3, #12]
 8005268:	f853 1022 	ldr.w	r1, [r3, r2, lsl #2]
 800526c:	6021      	str	r1, [r4, #0]
 800526e:	f843 4022 	str.w	r4, [r3, r2, lsl #2]
 8005272:	bd70      	pop	{r4, r5, r6, pc}
 8005274:	08006251 	.word	0x08006251
 8005278:	080062d1 	.word	0x080062d1

0800527c <__multadd>:
 800527c:	e92d 41f0 	stmdb	sp!, {r4, r5, r6, r7, r8, lr}
 8005280:	4607      	mov	r7, r0
 8005282:	460c      	mov	r4, r1
 8005284:	461e      	mov	r6, r3
 8005286:	2000      	movs	r0, #0
 8005288:	690d      	ldr	r5, [r1, #16]
 800528a:	f101 0c14 	add.w	ip, r1, #20
 800528e:	f8dc 3000 	ldr.w	r3, [ip]
 8005292:	3001      	adds	r0, #1
 8005294:	b299      	uxth	r1, r3
 8005296:	fb02 6101 	mla	r1, r2, r1, r6
 800529a:	0c1e      	lsrs	r6, r3, #16
 800529c:	0c0b      	lsrs	r3, r1, #16
 800529e:	fb02 3306 	mla	r3, r2, r6, r3
 80052a2:	b289      	uxth	r1, r1
 80052a4:	eb01 4103 	add.w	r1, r1, r3, lsl #16
 80052a8:	4285      	cmp	r5, r0
 80052aa:	ea4f 4613 	mov.w	r6, r3, lsr #16
 80052ae:	f84c 1b04 	str.w	r1, [ip], #4
 80052b2:	dcec      	bgt.n	800528e <__multadd+0x12>
 80052b4:	b30e      	cbz	r6, 80052fa <__multadd+0x7e>
 80052b6:	68a3      	ldr	r3, [r4, #8]
 80052b8:	42ab      	cmp	r3, r5
 80052ba:	dc19      	bgt.n	80052f0 <__multadd+0x74>
 80052bc:	6861      	ldr	r1, [r4, #4]
 80052be:	4638      	mov	r0, r7
 80052c0:	3101      	adds	r1, #1
 80052c2:	f7ff ff7b 	bl	80051bc <_Balloc>
 80052c6:	4680      	mov	r8, r0
 80052c8:	b928      	cbnz	r0, 80052d6 <__multadd+0x5a>
 80052ca:	4602      	mov	r2, r0
 80052cc:	21ba      	movs	r1, #186	@ 0xba
 80052ce:	4b0c      	ldr	r3, [pc, #48]	@ (8005300 <__multadd+0x84>)
 80052d0:	480c      	ldr	r0, [pc, #48]	@ (8005304 <__multadd+0x88>)
 80052d2:	f000 fb9f 	bl	8005a14 <__assert_func>
 80052d6:	6922      	ldr	r2, [r4, #16]
 80052d8:	f104 010c 	add.w	r1, r4, #12
 80052dc:	3202      	adds	r2, #2
 80052de:	0092      	lsls	r2, r2, #2
 80052e0:	300c      	adds	r0, #12
 80052e2:	f000 fb89 	bl	80059f8 <memcpy>
 80052e6:	4621      	mov	r1, r4
 80052e8:	4638      	mov	r0, r7
 80052ea:	f7ff ffa5 	bl	8005238 <_Bfree>
 80052ee:	4644      	mov	r4, r8
 80052f0:	eb04 0385 	add.w	r3, r4, r5, lsl #2
 80052f4:	3501      	adds	r5, #1
 80052f6:	615e      	str	r6, [r3, #20]
 80052f8:	6125      	str	r5, [r4, #16]
 80052fa:	4620      	mov	r0, r4
 80052fc:	e8bd 81f0 	ldmia.w	sp!, {r4, r5, r6, r7, r8, pc}
 8005300:	080062c0 	.word	0x080062c0
 8005304:	080062d1 	.word	0x080062d1

08005308 <__hi0bits>:
 8005308:	4603      	mov	r3, r0
 800530a:	f5b0 3f80 	cmp.w	r0, #65536	@ 0x10000
 800530e:	bf3a      	itte	cc
 8005310:	0403      	lslcc	r3, r0, #16
 8005312:	2010      	movcc	r0, #16
 8005314:	2000      	movcs	r0, #0
 8005316:	f1b3 7f80 	cmp.w	r3, #16777216	@ 0x1000000
 800531a:	bf3c      	itt	cc
 800531c:	021b      	lslcc	r3, r3, #8
 800531e:	3008      	addcc	r0, #8
 8005320:	f1b3 5f80 	cmp.w	r3, #268435456	@ 0x10000000
 8005324:	bf3c      	itt	cc
 8005326:	011b      	lslcc	r3, r3, #4
 8005328:	3004      	addcc	r0, #4
 800532a:	f1b3 4f80 	cmp.w	r3, #1073741824	@ 0x40000000
 800532e:	bf3c      	itt	cc
 8005330:	009b      	lslcc	r3, r3, #2
 8005332:	3002      	addcc	r0, #2
 8005334:	2b00      	cmp	r3, #0
 8005336:	db05      	blt.n	8005344 <__hi0bits+0x3c>
 8005338:	f013 4f80 	tst.w	r3, #1073741824	@ 0x40000000
 800533c:	f100 0001 	add.w	r0, r0, #1
 8005340:	bf08      	it	eq
 8005342:	2020      	moveq	r0, #32
 8005344:	4770      	bx	lr

08005346 <__lo0bits>:
 8005346:	6803      	ldr	r3, [r0, #0]
 8005348:	4602      	mov	r2, r0
 800534a:	f013 0007 	ands.w	r0, r3, #7
 800534e:	d00b      	beq.n	8005368 <__lo0bits+0x22>
 8005350:	07d9      	lsls	r1, r3, #31
 8005352:	d421      	bmi.n	8005398 <__lo0bits+0x52>
 8005354:	0798      	lsls	r0, r3, #30
 8005356:	bf49      	itett	mi
 8005358:	085b      	lsrmi	r3, r3, #1
 800535a:	089b      	lsrpl	r3, r3, #2
 800535c:	2001      	movmi	r0, #1
 800535e:	6013      	strmi	r3, [r2, #0]
 8005360:	bf5c      	itt	pl
 8005362:	2002      	movpl	r0, #2
 8005364:	6013      	strpl	r3, [r2, #0]
 8005366:	4770      	bx	lr
 8005368:	b299      	uxth	r1, r3
 800536a:	b909      	cbnz	r1, 8005370 <__lo0bits+0x2a>
 800536c:	2010      	movs	r0, #16
 800536e:	0c1b      	lsrs	r3, r3, #16
 8005370:	b2d9      	uxtb	r1, r3
 8005372:	b909      	cbnz	r1, 8005378 <__lo0bits+0x32>
 8005374:	3008      	adds	r0, #8
 8005376:	0a1b      	lsrs	r3, r3, #8
 8005378:	0719      	lsls	r1, r3, #28
 800537a:	bf04      	itt	eq
 800537c:	091b      	lsreq	r3, r3, #4
 800537e:	3004      	addeq	r0, #4
 8005380:	0799      	lsls	r1, r3, #30
 8005382:	bf04      	itt	eq
 8005384:	089b      	lsreq	r3, r3, #2
 8005386:	3002      	addeq	r0, #2
 8005388:	07d9      	lsls	r1, r3, #31
 800538a:	d403      	bmi.n	8005394 <__lo0bits+0x4e>
 800538c:	085b      	lsrs	r3, r3, #1
 800538e:	f100 0001 	add.w	r0, r0, #1
 8005392:	d003      	beq.n	800539c <__lo0bits+0x56>
 8005394:	6013      	str	r3, [r2, #0]
 8005396:	4770      	bx	lr
 8005398:	2000      	movs	r0, #0
 800539a:	4770      	bx	lr
 800539c:	2020      	movs	r0, #32
 800539e:	4770      	bx	lr

080053a0 <__i2b>:
 80053a0:	b510      	push	{r4, lr}
 80053a2:	460c      	mov	r4, r1
 80053a4:	2101      	movs	r1, #1
 80053a6:	f7ff ff09 	bl	80051bc <_Balloc>
 80053aa:	4602      	mov	r2, r0
 80053ac:	b928      	cbnz	r0, 80053ba <__i2b+0x1a>
 80053ae:	f240 1145 	movw	r1, #325	@ 0x145
 80053b2:	4b04      	ldr	r3, [pc, #16]	@ (80053c4 <__i2b+0x24>)
 80053b4:	4804      	ldr	r0, [pc, #16]	@ (80053c8 <__i2b+0x28>)
 80053b6:	f000 fb2d 	bl	8005a14 <__assert_func>
 80053ba:	2301      	movs	r3, #1
 80053bc:	6144      	str	r4, [r0, #20]
 80053be:	6103      	str	r3, [r0, #16]
 80053c0:	bd10      	pop	{r4, pc}
 80053c2:	bf00      	nop
 80053c4:	080062c0 	.word	0x080062c0
 80053c8:	080062d1 	.word	0x080062d1

080053cc <__multiply>:
 80053cc:	e92d 4ff0 	stmdb	sp!, {r4, r5, r6, r7, r8, r9, sl, fp, lr}
 80053d0:	f8d1 9010 	ldr.w	r9, [r1, #16]
 80053d4:	f8d2 a010 	ldr.w	sl, [r2, #16]
 80053d8:	4688      	mov	r8, r1
 80053da:	45d1      	cmp	r9, sl
 80053dc:	4614      	mov	r4, r2
 80053de:	b085      	sub	sp, #20
 80053e0:	db04      	blt.n	80053ec <__multiply+0x20>
 80053e2:	4653      	mov	r3, sl
 80053e4:	460c      	mov	r4, r1
 80053e6:	46ca      	mov	sl, r9
 80053e8:	4690      	mov	r8, r2
 80053ea:	4699      	mov	r9, r3
 80053ec:	68a3      	ldr	r3, [r4, #8]
 80053ee:	6861      	ldr	r1, [r4, #4]
 80053f0:	eb0a 0609 	add.w	r6, sl, r9
 80053f4:	42b3      	cmp	r3, r6
 80053f6:	bfb8      	it	lt
 80053f8:	3101      	addlt	r1, #1
 80053fa:	f7ff fedf 	bl	80051bc <_Balloc>
 80053fe:	b930      	cbnz	r0, 800540e <__multiply+0x42>
 8005400:	4602      	mov	r2, r0
 8005402:	f44f 71b1 	mov.w	r1, #354	@ 0x162
 8005406:	4b43      	ldr	r3, [pc, #268]	@ (8005514 <__multiply+0x148>)
 8005408:	4843      	ldr	r0, [pc, #268]	@ (8005518 <__multiply+0x14c>)
 800540a:	f000 fb03 	bl	8005a14 <__assert_func>
 800540e:	f100 0514 	add.w	r5, r0, #20
 8005412:	462b      	mov	r3, r5
 8005414:	2200      	movs	r2, #0
 8005416:	eb05 0786 	add.w	r7, r5, r6, lsl #2
 800541a:	42bb      	cmp	r3, r7
 800541c:	d31f      	bcc.n	800545e <__multiply+0x92>
 800541e:	f104 0c14 	add.w	ip, r4, #20
 8005422:	f108 0114 	add.w	r1, r8, #20
 8005426:	eb0c 038a 	add.w	r3, ip, sl, lsl #2
 800542a:	eb01 0289 	add.w	r2, r1, r9, lsl #2
 800542e:	9202      	str	r2, [sp, #8]
 8005430:	1b1a      	subs	r2, r3, r4
 8005432:	3a15      	subs	r2, #21
 8005434:	f022 0203 	bic.w	r2, r2, #3
 8005438:	3415      	adds	r4, #21
 800543a:	429c      	cmp	r4, r3
 800543c:	bf88      	it	hi
 800543e:	2200      	movhi	r2, #0
 8005440:	9201      	str	r2, [sp, #4]
 8005442:	9a02      	ldr	r2, [sp, #8]
 8005444:	9103      	str	r1, [sp, #12]
 8005446:	428a      	cmp	r2, r1
 8005448:	d80c      	bhi.n	8005464 <__multiply+0x98>
 800544a:	2e00      	cmp	r6, #0
 800544c:	dd03      	ble.n	8005456 <__multiply+0x8a>
 800544e:	f857 3d04 	ldr.w	r3, [r7, #-4]!
 8005452:	2b00      	cmp	r3, #0
 8005454:	d05c      	beq.n	8005510 <__multiply+0x144>
 8005456:	6106      	str	r6, [r0, #16]
 8005458:	b005      	add	sp, #20
 800545a:	e8bd 8ff0 	ldmia.w	sp!, {r4, r5, r6, r7, r8, r9, sl, fp, pc}
 800545e:	f843 2b04 	str.w	r2, [r3], #4
 8005462:	e7da      	b.n	800541a <__multiply+0x4e>
 8005464:	f8b1 a000 	ldrh.w	sl, [r1]
 8005468:	f1ba 0f00 	cmp.w	sl, #0
 800546c:	d023      	beq.n	80054b6 <__multiply+0xea>
 800546e:	46e0      	mov	r8, ip
 8005470:	46a9      	mov	r9, r5
 8005472:	f04f 0e00 	mov.w	lr, #0
 8005476:	f858 2b04 	ldr.w	r2, [r8], #4
 800547a:	f8d9 4000 	ldr.w	r4, [r9]
 800547e:	fa1f fb82 	uxth.w	fp, r2
 8005482:	b2a4      	uxth	r4, r4
 8005484:	fb0a 440b 	mla	r4, sl, fp, r4
 8005488:	4474      	add	r4, lr
 800548a:	f8d9 e000 	ldr.w	lr, [r9]
 800548e:	0c12      	lsrs	r2, r2, #16
 8005490:	ea4f 4e1e 	mov.w	lr, lr, lsr #16
 8005494:	fb0a e202 	mla	r2, sl, r2, lr
 8005498:	eb02 4214 	add.w	r2, r2, r4, lsr #16
 800549c:	b2a4      	uxth	r4, r4
 800549e:	ea44 4402 	orr.w	r4, r4, r2, lsl #16
 80054a2:	4543      	cmp	r3, r8
 80054a4:	ea4f 4e12 	mov.w	lr, r2, lsr #16
 80054a8:	f849 4b04 	str.w	r4, [r9], #4
 80054ac:	d8e3      	bhi.n	8005476 <__multiply+0xaa>
 80054ae:	9a01      	ldr	r2, [sp, #4]
 80054b0:	18aa      	adds	r2, r5, r2
 80054b2:	f8c2 e004 	str.w	lr, [r2, #4]
 80054b6:	9a03      	ldr	r2, [sp, #12]
 80054b8:	3104      	adds	r1, #4
 80054ba:	f8b2 8002 	ldrh.w	r8, [r2, #2]
 80054be:	f1b8 0f00 	cmp.w	r8, #0
 80054c2:	d023      	beq.n	800550c <__multiply+0x140>
 80054c4:	682a      	ldr	r2, [r5, #0]
 80054c6:	46e6      	mov	lr, ip
 80054c8:	4691      	mov	r9, r2
 80054ca:	46aa      	mov	sl, r5
 80054cc:	f04f 0b00 	mov.w	fp, #0
 80054d0:	f8be 4000 	ldrh.w	r4, [lr]
 80054d4:	b292      	uxth	r2, r2
 80054d6:	fb08 b404 	mla	r4, r8, r4, fp
 80054da:	eb04 4419 	add.w	r4, r4, r9, lsr #16
 80054de:	ea42 4204 	orr.w	r2, r2, r4, lsl #16
 80054e2:	f84a 2b04 	str.w	r2, [sl], #4
 80054e6:	f85e 2b04 	ldr.w	r2, [lr], #4
 80054ea:	f8da 9000 	ldr.w	r9, [sl]
 80054ee:	ea4f 4b12 	mov.w	fp, r2, lsr #16
 80054f2:	fa1f f289 	uxth.w	r2, r9
 80054f6:	fb08 220b 	mla	r2, r8, fp, r2
 80054fa:	4573      	cmp	r3, lr
 80054fc:	eb02 4214 	add.w	r2, r2, r4, lsr #16
 8005500:	ea4f 4b12 	mov.w	fp, r2, lsr #16
 8005504:	d8e4      	bhi.n	80054d0 <__multiply+0x104>
 8005506:	9c01      	ldr	r4, [sp, #4]
 8005508:	192c      	adds	r4, r5, r4
 800550a:	6062      	str	r2, [r4, #4]
 800550c:	3504      	adds	r5, #4
 800550e:	e798      	b.n	8005442 <__multiply+0x76>
 8005510:	3e01      	subs	r6, #1
 8005512:	e79a      	b.n	800544a <__multiply+0x7e>
 8005514:	080062c0 	.word	0x080062c0
 8005518:	080062d1 	.word	0x080062d1

0800551c <__pow5mult>:
 800551c:	e92d 43f8 	stmdb	sp!, {r3, r4, r5, r6, r7, r8, r9, lr}
 8005520:	4617      	mov	r7, r2
 8005522:	f012 0203 	ands.w	r2, r2, #3
 8005526:	4680      	mov	r8, r0
 8005528:	460d      	mov	r5, r1
 800552a:	d007      	beq.n	800553c <__pow5mult+0x20>
 800552c:	4c26      	ldr	r4, [pc, #152]	@ (80055c8 <__pow5mult+0xac>)
 800552e:	3a01      	subs	r2, #1
 8005530:	2300      	movs	r3, #0
 8005532:	f854 2022 	ldr.w	r2, [r4, r2, lsl #2]
 8005536:	f7ff fea1 	bl	800527c <__multadd>
 800553a:	4605      	mov	r5, r0
 800553c:	10bf      	asrs	r7, r7, #2
 800553e:	d03f      	beq.n	80055c0 <__pow5mult+0xa4>
 8005540:	f8d8 401c 	ldr.w	r4, [r8, #28]
 8005544:	b994      	cbnz	r4, 800556c <__pow5mult+0x50>
 8005546:	2010      	movs	r0, #16
 8005548:	f7ff fcdc 	bl	8004f04 <malloc>
 800554c:	4604      	mov	r4, r0
 800554e:	f8c8 001c 	str.w	r0, [r8, #28]
 8005552:	b930      	cbnz	r0, 8005562 <__pow5mult+0x46>
 8005554:	4602      	mov	r2, r0
 8005556:	f240 11b3 	movw	r1, #435	@ 0x1b3
 800555a:	4b1c      	ldr	r3, [pc, #112]	@ (80055cc <__pow5mult+0xb0>)
 800555c:	481c      	ldr	r0, [pc, #112]	@ (80055d0 <__pow5mult+0xb4>)
 800555e:	f000 fa59 	bl	8005a14 <__assert_func>
 8005562:	2300      	movs	r3, #0
 8005564:	e9c0 3301 	strd	r3, r3, [r0, #4]
 8005568:	6003      	str	r3, [r0, #0]
 800556a:	60c3      	str	r3, [r0, #12]
 800556c:	68a6      	ldr	r6, [r4, #8]
 800556e:	b946      	cbnz	r6, 8005582 <__pow5mult+0x66>
 8005570:	f240 2171 	movw	r1, #625	@ 0x271
 8005574:	4640      	mov	r0, r8
 8005576:	f7ff ff13 	bl	80053a0 <__i2b>
 800557a:	2300      	movs	r3, #0
 800557c:	4606      	mov	r6, r0
 800557e:	60a0      	str	r0, [r4, #8]
 8005580:	6003      	str	r3, [r0, #0]
 8005582:	462c      	mov	r4, r5
 8005584:	f04f 0900 	mov.w	r9, #0
 8005588:	f007 0301 	and.w	r3, r7, #1
 800558c:	107f      	asrs	r7, r7, #1
 800558e:	b153      	cbz	r3, 80055a6 <__pow5mult+0x8a>
 8005590:	4629      	mov	r1, r5
 8005592:	4632      	mov	r2, r6
 8005594:	4640      	mov	r0, r8
 8005596:	f7ff ff19 	bl	80053cc <__multiply>
 800559a:	4621      	mov	r1, r4
 800559c:	4605      	mov	r5, r0
 800559e:	4640      	mov	r0, r8
 80055a0:	f7ff fe4a 	bl	8005238 <_Bfree>
 80055a4:	b167      	cbz	r7, 80055c0 <__pow5mult+0xa4>
 80055a6:	6830      	ldr	r0, [r6, #0]
 80055a8:	b938      	cbnz	r0, 80055ba <__pow5mult+0x9e>
 80055aa:	4632      	mov	r2, r6
 80055ac:	4631      	mov	r1, r6
 80055ae:	4640      	mov	r0, r8
 80055b0:	f7ff ff0c 	bl	80053cc <__multiply>
 80055b4:	6030      	str	r0, [r6, #0]
 80055b6:	f8c0 9000 	str.w	r9, [r0]
 80055ba:	4606      	mov	r6, r0
 80055bc:	462c      	mov	r4, r5
 80055be:	e7e3      	b.n	8005588 <__pow5mult+0x6c>
 80055c0:	4628      	mov	r0, r5
 80055c2:	e8bd 83f8 	ldmia.w	sp!, {r3, r4, r5, r6, r7, r8, r9, pc}
 80055c6:	bf00      	nop
 80055c8:	08006384 	.word	0x08006384
 80055cc:	08006251 	.word	0x08006251
 80055d0:	080062d1 	.word	0x080062d1

080055d4 <__lshift>:
 80055d4:	e92d 4ff8 	stmdb	sp!, {r3, r4, r5, r6, r7, r8, r9, sl, fp, lr}
 80055d8:	460c      	mov	r4, r1
 80055da:	4607      	mov	r7, r0
 80055dc:	4615      	mov	r5, r2
 80055de:	6923      	ldr	r3, [r4, #16]
 80055e0:	6849      	ldr	r1, [r1, #4]
 80055e2:	eb03 1862 	add.w	r8, r3, r2, asr #5
 80055e6:	68a3      	ldr	r3, [r4, #8]
 80055e8:	ea4f 1a62 	mov.w	sl, r2, asr #5
 80055ec:	f108 0901 	add.w	r9, r8, #1
 80055f0:	454b      	cmp	r3, r9
 80055f2:	db0b      	blt.n	800560c <__lshift+0x38>
 80055f4:	4638      	mov	r0, r7
 80055f6:	f7ff fde1 	bl	80051bc <_Balloc>
 80055fa:	4606      	mov	r6, r0
 80055fc:	b948      	cbnz	r0, 8005612 <__lshift+0x3e>
 80055fe:	4602      	mov	r2, r0
 8005600:	f44f 71ef 	mov.w	r1, #478	@ 0x1de
 8005604:	4b27      	ldr	r3, [pc, #156]	@ (80056a4 <__lshift+0xd0>)
 8005606:	4828      	ldr	r0, [pc, #160]	@ (80056a8 <__lshift+0xd4>)
 8005608:	f000 fa04 	bl	8005a14 <__assert_func>
 800560c:	3101      	adds	r1, #1
 800560e:	005b      	lsls	r3, r3, #1
 8005610:	e7ee      	b.n	80055f0 <__lshift+0x1c>
 8005612:	2300      	movs	r3, #0
 8005614:	4619      	mov	r1, r3
 8005616:	f100 0c14 	add.w	ip, r0, #20
 800561a:	f100 0210 	add.w	r2, r0, #16
 800561e:	4553      	cmp	r3, sl
 8005620:	db34      	blt.n	800568c <__lshift+0xb8>
 8005622:	6922      	ldr	r2, [r4, #16]
 8005624:	ea2a 7aea 	bic.w	sl, sl, sl, asr #31
 8005628:	eb0c 0c8a 	add.w	ip, ip, sl, lsl #2
 800562c:	f104 0314 	add.w	r3, r4, #20
 8005630:	f015 0e1f 	ands.w	lr, r5, #31
 8005634:	4661      	mov	r1, ip
 8005636:	eb03 0282 	add.w	r2, r3, r2, lsl #2
 800563a:	d02b      	beq.n	8005694 <__lshift+0xc0>
 800563c:	2500      	movs	r5, #0
 800563e:	f1ce 0a20 	rsb	sl, lr, #32
 8005642:	468b      	mov	fp, r1
 8005644:	6818      	ldr	r0, [r3, #0]
 8005646:	3104      	adds	r1, #4
 8005648:	fa00 f00e 	lsl.w	r0, r0, lr
 800564c:	4328      	orrs	r0, r5
 800564e:	f8cb 0000 	str.w	r0, [fp]
 8005652:	f853 5b04 	ldr.w	r5, [r3], #4
 8005656:	429a      	cmp	r2, r3
 8005658:	fa25 f50a 	lsr.w	r5, r5, sl
 800565c:	d8f1      	bhi.n	8005642 <__lshift+0x6e>
 800565e:	1b13      	subs	r3, r2, r4
 8005660:	3b15      	subs	r3, #21
 8005662:	f023 0303 	bic.w	r3, r3, #3
 8005666:	f104 0115 	add.w	r1, r4, #21
 800566a:	428a      	cmp	r2, r1
 800566c:	bf38      	it	cc
 800566e:	2300      	movcc	r3, #0
 8005670:	449c      	add	ip, r3
 8005672:	f8cc 5004 	str.w	r5, [ip, #4]
 8005676:	b905      	cbnz	r5, 800567a <__lshift+0xa6>
 8005678:	46c1      	mov	r9, r8
 800567a:	4638      	mov	r0, r7
 800567c:	4621      	mov	r1, r4
 800567e:	f8c6 9010 	str.w	r9, [r6, #16]
 8005682:	f7ff fdd9 	bl	8005238 <_Bfree>
 8005686:	4630      	mov	r0, r6
 8005688:	e8bd 8ff8 	ldmia.w	sp!, {r3, r4, r5, r6, r7, r8, r9, sl, fp, pc}
 800568c:	f842 1f04 	str.w	r1, [r2, #4]!
 8005690:	3301      	adds	r3, #1
 8005692:	e7c4      	b.n	800561e <__lshift+0x4a>
 8005694:	f853 5b04 	ldr.w	r5, [r3], #4
 8005698:	3104      	adds	r1, #4
 800569a:	429a      	cmp	r2, r3
 800569c:	f841 5c04 	str.w	r5, [r1, #-4]
 80056a0:	d8f8      	bhi.n	8005694 <__lshift+0xc0>
 80056a2:	e7e9      	b.n	8005678 <__lshift+0xa4>
 80056a4:	080062c0 	.word	0x080062c0
 80056a8:	080062d1 	.word	0x080062d1

080056ac <__mcmp>:
 80056ac:	4603      	mov	r3, r0
 80056ae:	690a      	ldr	r2, [r1, #16]
 80056b0:	6900      	ldr	r0, [r0, #16]
 80056b2:	b530      	push	{r4, r5, lr}
 80056b4:	1a80      	subs	r0, r0, r2
 80056b6:	d10e      	bne.n	80056d6 <__mcmp+0x2a>
 80056b8:	3314      	adds	r3, #20
 80056ba:	3114      	adds	r1, #20
 80056bc:	eb03 0482 	add.w	r4, r3, r2, lsl #2
 80056c0:	eb01 0182 	add.w	r1, r1, r2, lsl #2
 80056c4:	f854 5d04 	ldr.w	r5, [r4, #-4]!
 80056c8:	f851 2d04 	ldr.w	r2, [r1, #-4]!
 80056cc:	4295      	cmp	r5, r2
 80056ce:	d003      	beq.n	80056d8 <__mcmp+0x2c>
 80056d0:	d205      	bcs.n	80056de <__mcmp+0x32>
 80056d2:	f04f 30ff 	mov.w	r0, #4294967295	@ 0xffffffff
 80056d6:	bd30      	pop	{r4, r5, pc}
 80056d8:	42a3      	cmp	r3, r4
 80056da:	d3f3      	bcc.n	80056c4 <__mcmp+0x18>
 80056dc:	e7fb      	b.n	80056d6 <__mcmp+0x2a>
 80056de:	2001      	movs	r0, #1
 80056e0:	e7f9      	b.n	80056d6 <__mcmp+0x2a>
	...

080056e4 <__mdiff>:
 80056e4:	e92d 4ff7 	stmdb	sp!, {r0, r1, r2, r4, r5, r6, r7, r8, r9, sl, fp, lr}
 80056e8:	468a      	mov	sl, r1
 80056ea:	4606      	mov	r6, r0
 80056ec:	4611      	mov	r1, r2
 80056ee:	4650      	mov	r0, sl
 80056f0:	4614      	mov	r4, r2
 80056f2:	f7ff ffdb 	bl	80056ac <__mcmp>
 80056f6:	1e05      	subs	r5, r0, #0
 80056f8:	d112      	bne.n	8005720 <__mdiff+0x3c>
 80056fa:	4629      	mov	r1, r5
 80056fc:	4630      	mov	r0, r6
 80056fe:	f7ff fd5d 	bl	80051bc <_Balloc>
 8005702:	4602      	mov	r2, r0
 8005704:	b928      	cbnz	r0, 8005712 <__mdiff+0x2e>
 8005706:	f240 2137 	movw	r1, #567	@ 0x237
 800570a:	4b40      	ldr	r3, [pc, #256]	@ (800580c <__mdiff+0x128>)
 800570c:	4840      	ldr	r0, [pc, #256]	@ (8005810 <__mdiff+0x12c>)
 800570e:	f000 f981 	bl	8005a14 <__assert_func>
 8005712:	2301      	movs	r3, #1
 8005714:	e9c0 3504 	strd	r3, r5, [r0, #16]
 8005718:	4610      	mov	r0, r2
 800571a:	b003      	add	sp, #12
 800571c:	e8bd 8ff0 	ldmia.w	sp!, {r4, r5, r6, r7, r8, r9, sl, fp, pc}
 8005720:	bfbc      	itt	lt
 8005722:	4653      	movlt	r3, sl
 8005724:	46a2      	movlt	sl, r4
 8005726:	4630      	mov	r0, r6
 8005728:	f8da 1004 	ldr.w	r1, [sl, #4]
 800572c:	bfba      	itte	lt
 800572e:	461c      	movlt	r4, r3
 8005730:	2501      	movlt	r5, #1
 8005732:	2500      	movge	r5, #0
 8005734:	f7ff fd42 	bl	80051bc <_Balloc>
 8005738:	4602      	mov	r2, r0
 800573a:	b918      	cbnz	r0, 8005744 <__mdiff+0x60>
 800573c:	f240 2145 	movw	r1, #581	@ 0x245
 8005740:	4b32      	ldr	r3, [pc, #200]	@ (800580c <__mdiff+0x128>)
 8005742:	e7e3      	b.n	800570c <__mdiff+0x28>
 8005744:	60c5      	str	r5, [r0, #12]
 8005746:	f100 0514 	add.w	r5, r0, #20
 800574a:	46ab      	mov	fp, r5
 800574c:	f04f 0c00 	mov.w	ip, #0
 8005750:	f8da 7010 	ldr.w	r7, [sl, #16]
 8005754:	6926      	ldr	r6, [r4, #16]
 8005756:	f10a 0914 	add.w	r9, sl, #20
 800575a:	f104 0e14 	add.w	lr, r4, #20
 800575e:	f10a 0310 	add.w	r3, sl, #16
 8005762:	eb09 0887 	add.w	r8, r9, r7, lsl #2
 8005766:	eb0e 0686 	add.w	r6, lr, r6, lsl #2
 800576a:	9301      	str	r3, [sp, #4]
 800576c:	9b01      	ldr	r3, [sp, #4]
 800576e:	f85e 0b04 	ldr.w	r0, [lr], #4
 8005772:	f853 af04 	ldr.w	sl, [r3, #4]!
 8005776:	b281      	uxth	r1, r0
 8005778:	9301      	str	r3, [sp, #4]
 800577a:	fa1f f38a 	uxth.w	r3, sl
 800577e:	1a5b      	subs	r3, r3, r1
 8005780:	0c00      	lsrs	r0, r0, #16
 8005782:	4463      	add	r3, ip
 8005784:	ebc0 401a 	rsb	r0, r0, sl, lsr #16
 8005788:	eb00 4023 	add.w	r0, r0, r3, asr #16
 800578c:	b29b      	uxth	r3, r3
 800578e:	ea43 4300 	orr.w	r3, r3, r0, lsl #16
 8005792:	4576      	cmp	r6, lr
 8005794:	ea4f 4c20 	mov.w	ip, r0, asr #16
 8005798:	f84b 3b04 	str.w	r3, [fp], #4
 800579c:	d8e6      	bhi.n	800576c <__mdiff+0x88>
 800579e:	1b33      	subs	r3, r6, r4
 80057a0:	3b15      	subs	r3, #21
 80057a2:	3415      	adds	r4, #21
 80057a4:	f023 0303 	bic.w	r3, r3, #3
 80057a8:	42a6      	cmp	r6, r4
 80057aa:	bf38      	it	cc
 80057ac:	2300      	movcc	r3, #0
 80057ae:	18e8      	adds	r0, r5, r3
 80057b0:	444b      	add	r3, r9
 80057b2:	1d1c      	adds	r4, r3, #4
 80057b4:	4626      	mov	r6, r4
 80057b6:	3004      	adds	r0, #4
 80057b8:	eba5 0509 	sub.w	r5, r5, r9
 80057bc:	4546      	cmp	r6, r8
 80057be:	eb06 0e05 	add.w	lr, r6, r5
 80057c2:	d30e      	bcc.n	80057e2 <__mdiff+0xfe>
 80057c4:	f108 0103 	add.w	r1, r8, #3
 80057c8:	1b09      	subs	r1, r1, r4
 80057ca:	f021 0103 	bic.w	r1, r1, #3
 80057ce:	3301      	adds	r3, #1
 80057d0:	4598      	cmp	r8, r3
 80057d2:	bf38      	it	cc
 80057d4:	2100      	movcc	r1, #0
 80057d6:	4401      	add	r1, r0
 80057d8:	f851 3d04 	ldr.w	r3, [r1, #-4]!
 80057dc:	b1a3      	cbz	r3, 8005808 <__mdiff+0x124>
 80057de:	6117      	str	r7, [r2, #16]
 80057e0:	e79a      	b.n	8005718 <__mdiff+0x34>
 80057e2:	46e2      	mov	sl, ip
 80057e4:	f856 1b04 	ldr.w	r1, [r6], #4
 80057e8:	fa1f fc81 	uxth.w	ip, r1
 80057ec:	44d4      	add	ip, sl
 80057ee:	ea4f 4911 	mov.w	r9, r1, lsr #16
 80057f2:	4451      	add	r1, sl
 80057f4:	eb09 492c 	add.w	r9, r9, ip, asr #16
 80057f8:	b289      	uxth	r1, r1
 80057fa:	ea41 4109 	orr.w	r1, r1, r9, lsl #16
 80057fe:	ea4f 4c29 	mov.w	ip, r9, asr #16
 8005802:	f8ce 1000 	str.w	r1, [lr]
 8005806:	e7d9      	b.n	80057bc <__mdiff+0xd8>
 8005808:	3f01      	subs	r7, #1
 800580a:	e7e5      	b.n	80057d8 <__mdiff+0xf4>
 800580c:	080062c0 	.word	0x080062c0
 8005810:	080062d1 	.word	0x080062d1

08005814 <__d2b>:
 8005814:	e92d 4373 	stmdb	sp!, {r0, r1, r4, r5, r6, r8, r9, lr}
 8005818:	2101      	movs	r1, #1
 800581a:	4690      	mov	r8, r2
 800581c:	4699      	mov	r9, r3
 800581e:	9e08      	ldr	r6, [sp, #32]
 8005820:	f7ff fccc 	bl	80051bc <_Balloc>
 8005824:	4604      	mov	r4, r0
 8005826:	b930      	cbnz	r0, 8005836 <__d2b+0x22>
 8005828:	4602      	mov	r2, r0
 800582a:	f240 310f 	movw	r1, #783	@ 0x30f
 800582e:	4b23      	ldr	r3, [pc, #140]	@ (80058bc <__d2b+0xa8>)
 8005830:	4823      	ldr	r0, [pc, #140]	@ (80058c0 <__d2b+0xac>)
 8005832:	f000 f8ef 	bl	8005a14 <__assert_func>
 8005836:	f3c9 550a 	ubfx	r5, r9, #20, #11
 800583a:	f3c9 0313 	ubfx	r3, r9, #0, #20
 800583e:	b10d      	cbz	r5, 8005844 <__d2b+0x30>
 8005840:	f443 1380 	orr.w	r3, r3, #1048576	@ 0x100000
 8005844:	9301      	str	r3, [sp, #4]
 8005846:	f1b8 0300 	subs.w	r3, r8, #0
 800584a:	d024      	beq.n	8005896 <__d2b+0x82>
 800584c:	4668      	mov	r0, sp
 800584e:	9300      	str	r3, [sp, #0]
 8005850:	f7ff fd79 	bl	8005346 <__lo0bits>
 8005854:	9900      	ldr	r1, [sp, #0]
 8005856:	b1e0      	cbz	r0, 8005892 <__d2b+0x7e>
 8005858:	9a01      	ldr	r2, [sp, #4]
 800585a:	f1c0 0320 	rsb	r3, r0, #32
 800585e:	fa02 f303 	lsl.w	r3, r2, r3
 8005862:	430b      	orrs	r3, r1
 8005864:	40c2      	lsrs	r2, r0
 8005866:	6163      	str	r3, [r4, #20]
 8005868:	9201      	str	r2, [sp, #4]
 800586a:	9b01      	ldr	r3, [sp, #4]
 800586c:	2b00      	cmp	r3, #0
 800586e:	bf0c      	ite	eq
 8005870:	2201      	moveq	r2, #1
 8005872:	2202      	movne	r2, #2
 8005874:	61a3      	str	r3, [r4, #24]
 8005876:	6122      	str	r2, [r4, #16]
 8005878:	b1ad      	cbz	r5, 80058a6 <__d2b+0x92>
 800587a:	f2a5 4533 	subw	r5, r5, #1075	@ 0x433
 800587e:	4405      	add	r5, r0
 8005880:	6035      	str	r5, [r6, #0]
 8005882:	f1c0 0035 	rsb	r0, r0, #53	@ 0x35
 8005886:	9b09      	ldr	r3, [sp, #36]	@ 0x24
 8005888:	6018      	str	r0, [r3, #0]
 800588a:	4620      	mov	r0, r4
 800588c:	b002      	add	sp, #8
 800588e:	e8bd 8370 	ldmia.w	sp!, {r4, r5, r6, r8, r9, pc}
 8005892:	6161      	str	r1, [r4, #20]
 8005894:	e7e9      	b.n	800586a <__d2b+0x56>
 8005896:	a801      	add	r0, sp, #4
 8005898:	f7ff fd55 	bl	8005346 <__lo0bits>
 800589c:	9b01      	ldr	r3, [sp, #4]
 800589e:	2201      	movs	r2, #1
 80058a0:	6163      	str	r3, [r4, #20]
 80058a2:	3020      	adds	r0, #32
 80058a4:	e7e7      	b.n	8005876 <__d2b+0x62>
 80058a6:	f2a0 4032 	subw	r0, r0, #1074	@ 0x432
 80058aa:	eb04 0382 	add.w	r3, r4, r2, lsl #2
 80058ae:	6030      	str	r0, [r6, #0]
 80058b0:	6918      	ldr	r0, [r3, #16]
 80058b2:	f7ff fd29 	bl	8005308 <__hi0bits>
 80058b6:	ebc0 1042 	rsb	r0, r0, r2, lsl #5
 80058ba:	e7e4      	b.n	8005886 <__d2b+0x72>
 80058bc:	080062c0 	.word	0x080062c0
 80058c0:	080062d1 	.word	0x080062d1

080058c4 <__sread>:
 80058c4:	b510      	push	{r4, lr}
 80058c6:	460c      	mov	r4, r1
 80058c8:	f9b1 100e 	ldrsh.w	r1, [r1, #14]
 80058cc:	f000 f850 	bl	8005970 <_read_r>
 80058d0:	2800      	cmp	r0, #0
 80058d2:	bfab      	itete	ge
 80058d4:	6d63      	ldrge	r3, [r4, #84]	@ 0x54
 80058d6:	89a3      	ldrhlt	r3, [r4, #12]
 80058d8:	181b      	addge	r3, r3, r0
 80058da:	f423 5380 	biclt.w	r3, r3, #4096	@ 0x1000
 80058de:	bfac      	ite	ge
 80058e0:	6563      	strge	r3, [r4, #84]	@ 0x54
 80058e2:	81a3      	strhlt	r3, [r4, #12]
 80058e4:	bd10      	pop	{r4, pc}

080058e6 <__swrite>:
 80058e6:	e92d 41f0 	stmdb	sp!, {r4, r5, r6, r7, r8, lr}
 80058ea:	461f      	mov	r7, r3
 80058ec:	898b      	ldrh	r3, [r1, #12]
 80058ee:	4605      	mov	r5, r0
 80058f0:	05db      	lsls	r3, r3, #23
 80058f2:	460c      	mov	r4, r1
 80058f4:	4616      	mov	r6, r2
 80058f6:	d505      	bpl.n	8005904 <__swrite+0x1e>
 80058f8:	2302      	movs	r3, #2
 80058fa:	2200      	movs	r2, #0
 80058fc:	f9b1 100e 	ldrsh.w	r1, [r1, #14]
 8005900:	f000 f824 	bl	800594c <_lseek_r>
 8005904:	89a3      	ldrh	r3, [r4, #12]
 8005906:	4632      	mov	r2, r6
 8005908:	f423 5380 	bic.w	r3, r3, #4096	@ 0x1000
 800590c:	81a3      	strh	r3, [r4, #12]
 800590e:	4628      	mov	r0, r5
 8005910:	463b      	mov	r3, r7
 8005912:	f9b4 100e 	ldrsh.w	r1, [r4, #14]
 8005916:	e8bd 41f0 	ldmia.w	sp!, {r4, r5, r6, r7, r8, lr}
 800591a:	f000 b84b 	b.w	80059b4 <_write_r>

0800591e <__sseek>:
 800591e:	b510      	push	{r4, lr}
 8005920:	460c      	mov	r4, r1
 8005922:	f9b1 100e 	ldrsh.w	r1, [r1, #14]
 8005926:	f000 f811 	bl	800594c <_lseek_r>
 800592a:	f9b4 300c 	ldrsh.w	r3, [r4, #12]
 800592e:	1c42      	adds	r2, r0, #1
 8005930:	bf0b      	itete	eq
 8005932:	f423 5380 	biceq.w	r3, r3, #4096	@ 0x1000
 8005936:	f443 5380 	orrne.w	r3, r3, #4096	@ 0x1000
 800593a:	81a3      	strheq	r3, [r4, #12]
 800593c:	81a3      	strhne	r3, [r4, #12]
 800593e:	bf18      	it	ne
 8005940:	6560      	strne	r0, [r4, #84]	@ 0x54
 8005942:	bd10      	pop	{r4, pc}

08005944 <__sclose>:
 8005944:	f9b1 100e 	ldrsh.w	r1, [r1, #14]
 8005948:	f000 b846 	b.w	80059d8 <_close_r>

0800594c <_lseek_r>:
 800594c:	b538      	push	{r3, r4, r5, lr}
 800594e:	4604      	mov	r4, r0
 8005950:	4608      	mov	r0, r1
 8005952:	4611      	mov	r1, r2
 8005954:	2200      	movs	r2, #0
 8005956:	4d05      	ldr	r5, [pc, #20]	@ (800596c <_lseek_r+0x20>)
 8005958:	602a      	str	r2, [r5, #0]
 800595a:	461a      	mov	r2, r3
 800595c:	f7fc f99f 	bl	8001c9e <_lseek>
 8005960:	1c43      	adds	r3, r0, #1
 8005962:	d102      	bne.n	800596a <_lseek_r+0x1e>
 8005964:	682b      	ldr	r3, [r5, #0]
 8005966:	b103      	cbz	r3, 800596a <_lseek_r+0x1e>
 8005968:	6023      	str	r3, [r4, #0]
 800596a:	bd38      	pop	{r3, r4, r5, pc}
 800596c:	20000aa8 	.word	0x20000aa8

08005970 <_read_r>:
 8005970:	b538      	push	{r3, r4, r5, lr}
 8005972:	4604      	mov	r4, r0
 8005974:	4608      	mov	r0, r1
 8005976:	4611      	mov	r1, r2
 8005978:	2200      	movs	r2, #0
 800597a:	4d05      	ldr	r5, [pc, #20]	@ (8005990 <_read_r+0x20>)
 800597c:	602a      	str	r2, [r5, #0]
 800597e:	461a      	mov	r2, r3
 8005980:	f7fc f975 	bl	8001c6e <_read>
 8005984:	1c43      	adds	r3, r0, #1
 8005986:	d102      	bne.n	800598e <_read_r+0x1e>
 8005988:	682b      	ldr	r3, [r5, #0]
 800598a:	b103      	cbz	r3, 800598e <_read_r+0x1e>
 800598c:	6023      	str	r3, [r4, #0]
 800598e:	bd38      	pop	{r3, r4, r5, pc}
 8005990:	20000aa8 	.word	0x20000aa8

08005994 <_sbrk_r>:
 8005994:	b538      	push	{r3, r4, r5, lr}
 8005996:	2300      	movs	r3, #0
 8005998:	4d05      	ldr	r5, [pc, #20]	@ (80059b0 <_sbrk_r+0x1c>)
 800599a:	4604      	mov	r4, r0
 800599c:	4608      	mov	r0, r1
 800599e:	602b      	str	r3, [r5, #0]
 80059a0:	f7fc f980 	bl	8001ca4 <_sbrk>
 80059a4:	1c43      	adds	r3, r0, #1
 80059a6:	d102      	bne.n	80059ae <_sbrk_r+0x1a>
 80059a8:	682b      	ldr	r3, [r5, #0]
 80059aa:	b103      	cbz	r3, 80059ae <_sbrk_r+0x1a>
 80059ac:	6023      	str	r3, [r4, #0]
 80059ae:	bd38      	pop	{r3, r4, r5, pc}
 80059b0:	20000aa8 	.word	0x20000aa8

080059b4 <_write_r>:
 80059b4:	b538      	push	{r3, r4, r5, lr}
 80059b6:	4604      	mov	r4, r0
 80059b8:	4608      	mov	r0, r1
 80059ba:	4611      	mov	r1, r2
 80059bc:	2200      	movs	r2, #0
 80059be:	4d05      	ldr	r5, [pc, #20]	@ (80059d4 <_write_r+0x20>)
 80059c0:	602a      	str	r2, [r5, #0]
 80059c2:	461a      	mov	r2, r3
 80059c4:	f7fb fc2a 	bl	800121c <_write>
 80059c8:	1c43      	adds	r3, r0, #1
 80059ca:	d102      	bne.n	80059d2 <_write_r+0x1e>
 80059cc:	682b      	ldr	r3, [r5, #0]
 80059ce:	b103      	cbz	r3, 80059d2 <_write_r+0x1e>
 80059d0:	6023      	str	r3, [r4, #0]
 80059d2:	bd38      	pop	{r3, r4, r5, pc}
 80059d4:	20000aa8 	.word	0x20000aa8

080059d8 <_close_r>:
 80059d8:	b538      	push	{r3, r4, r5, lr}
 80059da:	2300      	movs	r3, #0
 80059dc:	4d05      	ldr	r5, [pc, #20]	@ (80059f4 <_close_r+0x1c>)
 80059de:	4604      	mov	r4, r0
 80059e0:	4608      	mov	r0, r1
 80059e2:	602b      	str	r3, [r5, #0]
 80059e4:	f7fc f951 	bl	8001c8a <_close>
 80059e8:	1c43      	adds	r3, r0, #1
 80059ea:	d102      	bne.n	80059f2 <_close_r+0x1a>
 80059ec:	682b      	ldr	r3, [r5, #0]
 80059ee:	b103      	cbz	r3, 80059f2 <_close_r+0x1a>
 80059f0:	6023      	str	r3, [r4, #0]
 80059f2:	bd38      	pop	{r3, r4, r5, pc}
 80059f4:	20000aa8 	.word	0x20000aa8

080059f8 <memcpy>:
 80059f8:	440a      	add	r2, r1
 80059fa:	4291      	cmp	r1, r2
 80059fc:	f100 33ff 	add.w	r3, r0, #4294967295	@ 0xffffffff
 8005a00:	d100      	bne.n	8005a04 <memcpy+0xc>
 8005a02:	4770      	bx	lr
 8005a04:	b510      	push	{r4, lr}
 8005a06:	f811 4b01 	ldrb.w	r4, [r1], #1
 8005a0a:	4291      	cmp	r1, r2
 8005a0c:	f803 4f01 	strb.w	r4, [r3, #1]!
 8005a10:	d1f9      	bne.n	8005a06 <memcpy+0xe>
 8005a12:	bd10      	pop	{r4, pc}

08005a14 <__assert_func>:
 8005a14:	b51f      	push	{r0, r1, r2, r3, r4, lr}
 8005a16:	4614      	mov	r4, r2
 8005a18:	461a      	mov	r2, r3
 8005a1a:	4b09      	ldr	r3, [pc, #36]	@ (8005a40 <__assert_func+0x2c>)
 8005a1c:	4605      	mov	r5, r0
 8005a1e:	681b      	ldr	r3, [r3, #0]
 8005a20:	68d8      	ldr	r0, [r3, #12]
 8005a22:	b14c      	cbz	r4, 8005a38 <__assert_func+0x24>
 8005a24:	4b07      	ldr	r3, [pc, #28]	@ (8005a44 <__assert_func+0x30>)
 8005a26:	e9cd 3401 	strd	r3, r4, [sp, #4]
 8005a2a:	9100      	str	r1, [sp, #0]
 8005a2c:	462b      	mov	r3, r5
 8005a2e:	4906      	ldr	r1, [pc, #24]	@ (8005a48 <__assert_func+0x34>)
 8005a30:	f000 f87c 	bl	8005b2c <fiprintf>
 8005a34:	f000 f899 	bl	8005b6a <abort>
 8005a38:	4b04      	ldr	r3, [pc, #16]	@ (8005a4c <__assert_func+0x38>)
 8005a3a:	461c      	mov	r4, r3
 8005a3c:	e7f3      	b.n	8005a26 <__assert_func+0x12>
 8005a3e:	bf00      	nop
 8005a40:	20000018 	.word	0x20000018
 8005a44:	08006334 	.word	0x08006334
 8005a48:	08006341 	.word	0x08006341
 8005a4c:	0800636f 	.word	0x0800636f

08005a50 <_calloc_r>:
 8005a50:	b570      	push	{r4, r5, r6, lr}
 8005a52:	fba1 5402 	umull	r5, r4, r1, r2
 8005a56:	b934      	cbnz	r4, 8005a66 <_calloc_r+0x16>
 8005a58:	4629      	mov	r1, r5
 8005a5a:	f7ff fa7d 	bl	8004f58 <_malloc_r>
 8005a5e:	4606      	mov	r6, r0
 8005a60:	b928      	cbnz	r0, 8005a6e <_calloc_r+0x1e>
 8005a62:	4630      	mov	r0, r6
 8005a64:	bd70      	pop	{r4, r5, r6, pc}
 8005a66:	220c      	movs	r2, #12
 8005a68:	2600      	movs	r6, #0
 8005a6a:	6002      	str	r2, [r0, #0]
 8005a6c:	e7f9      	b.n	8005a62 <_calloc_r+0x12>
 8005a6e:	462a      	mov	r2, r5
 8005a70:	4621      	mov	r1, r4
 8005a72:	f7fe fb91 	bl	8004198 <memset>
 8005a76:	e7f4      	b.n	8005a62 <_calloc_r+0x12>

08005a78 <_free_r>:
 8005a78:	b538      	push	{r3, r4, r5, lr}
 8005a7a:	4605      	mov	r5, r0
 8005a7c:	2900      	cmp	r1, #0
 8005a7e:	d040      	beq.n	8005b02 <_free_r+0x8a>
 8005a80:	f851 3c04 	ldr.w	r3, [r1, #-4]
 8005a84:	1f0c      	subs	r4, r1, #4
 8005a86:	2b00      	cmp	r3, #0
 8005a88:	bfb8      	it	lt
 8005a8a:	18e4      	addlt	r4, r4, r3
 8005a8c:	f7ff fb8a 	bl	80051a4 <__malloc_lock>
 8005a90:	4a1c      	ldr	r2, [pc, #112]	@ (8005b04 <_free_r+0x8c>)
 8005a92:	6813      	ldr	r3, [r2, #0]
 8005a94:	b933      	cbnz	r3, 8005aa4 <_free_r+0x2c>
 8005a96:	6063      	str	r3, [r4, #4]
 8005a98:	6014      	str	r4, [r2, #0]
 8005a9a:	4628      	mov	r0, r5
 8005a9c:	e8bd 4038 	ldmia.w	sp!, {r3, r4, r5, lr}
 8005aa0:	f7ff bb86 	b.w	80051b0 <__malloc_unlock>
 8005aa4:	42a3      	cmp	r3, r4
 8005aa6:	d908      	bls.n	8005aba <_free_r+0x42>
 8005aa8:	6820      	ldr	r0, [r4, #0]
 8005aaa:	1821      	adds	r1, r4, r0
 8005aac:	428b      	cmp	r3, r1
 8005aae:	bf01      	itttt	eq
 8005ab0:	6819      	ldreq	r1, [r3, #0]
 8005ab2:	685b      	ldreq	r3, [r3, #4]
 8005ab4:	1809      	addeq	r1, r1, r0
 8005ab6:	6021      	streq	r1, [r4, #0]
 8005ab8:	e7ed      	b.n	8005a96 <_free_r+0x1e>
 8005aba:	461a      	mov	r2, r3
 8005abc:	685b      	ldr	r3, [r3, #4]
 8005abe:	b10b      	cbz	r3, 8005ac4 <_free_r+0x4c>
 8005ac0:	42a3      	cmp	r3, r4
 8005ac2:	d9fa      	bls.n	8005aba <_free_r+0x42>
 8005ac4:	6811      	ldr	r1, [r2, #0]
 8005ac6:	1850      	adds	r0, r2, r1
 8005ac8:	42a0      	cmp	r0, r4
 8005aca:	d10b      	bne.n	8005ae4 <_free_r+0x6c>
 8005acc:	6820      	ldr	r0, [r4, #0]
 8005ace:	4401      	add	r1, r0
 8005ad0:	1850      	adds	r0, r2, r1
 8005ad2:	4283      	cmp	r3, r0
 8005ad4:	6011      	str	r1, [r2, #0]
 8005ad6:	d1e0      	bne.n	8005a9a <_free_r+0x22>
 8005ad8:	6818      	ldr	r0, [r3, #0]
 8005ada:	685b      	ldr	r3, [r3, #4]
 8005adc:	4408      	add	r0, r1
 8005ade:	6010      	str	r0, [r2, #0]
 8005ae0:	6053      	str	r3, [r2, #4]
 8005ae2:	e7da      	b.n	8005a9a <_free_r+0x22>
 8005ae4:	d902      	bls.n	8005aec <_free_r+0x74>
 8005ae6:	230c      	movs	r3, #12
 8005ae8:	602b      	str	r3, [r5, #0]
 8005aea:	e7d6      	b.n	8005a9a <_free_r+0x22>
 8005aec:	6820      	ldr	r0, [r4, #0]
 8005aee:	1821      	adds	r1, r4, r0
 8005af0:	428b      	cmp	r3, r1
 8005af2:	bf01      	itttt	eq
 8005af4:	6819      	ldreq	r1, [r3, #0]
 8005af6:	685b      	ldreq	r3, [r3, #4]
 8005af8:	1809      	addeq	r1, r1, r0
 8005afa:	6021      	streq	r1, [r4, #0]
 8005afc:	6063      	str	r3, [r4, #4]
 8005afe:	6054      	str	r4, [r2, #4]
 8005b00:	e7cb      	b.n	8005a9a <_free_r+0x22>
 8005b02:	bd38      	pop	{r3, r4, r5, pc}
 8005b04:	20000aa4 	.word	0x20000aa4

08005b08 <__ascii_mbtowc>:
 8005b08:	b082      	sub	sp, #8
 8005b0a:	b901      	cbnz	r1, 8005b0e <__ascii_mbtowc+0x6>
 8005b0c:	a901      	add	r1, sp, #4
 8005b0e:	b142      	cbz	r2, 8005b22 <__ascii_mbtowc+0x1a>
 8005b10:	b14b      	cbz	r3, 8005b26 <__ascii_mbtowc+0x1e>
 8005b12:	7813      	ldrb	r3, [r2, #0]
 8005b14:	600b      	str	r3, [r1, #0]
 8005b16:	7812      	ldrb	r2, [r2, #0]
 8005b18:	1e10      	subs	r0, r2, #0
 8005b1a:	bf18      	it	ne
 8005b1c:	2001      	movne	r0, #1
 8005b1e:	b002      	add	sp, #8
 8005b20:	4770      	bx	lr
 8005b22:	4610      	mov	r0, r2
 8005b24:	e7fb      	b.n	8005b1e <__ascii_mbtowc+0x16>
 8005b26:	f06f 0001 	mvn.w	r0, #1
 8005b2a:	e7f8      	b.n	8005b1e <__ascii_mbtowc+0x16>

08005b2c <fiprintf>:
 8005b2c:	b40e      	push	{r1, r2, r3}
 8005b2e:	b503      	push	{r0, r1, lr}
 8005b30:	4601      	mov	r1, r0
 8005b32:	ab03      	add	r3, sp, #12
 8005b34:	4805      	ldr	r0, [pc, #20]	@ (8005b4c <fiprintf+0x20>)
 8005b36:	f853 2b04 	ldr.w	r2, [r3], #4
 8005b3a:	6800      	ldr	r0, [r0, #0]
 8005b3c:	9301      	str	r3, [sp, #4]
 8005b3e:	f000 f843 	bl	8005bc8 <_vfiprintf_r>
 8005b42:	b002      	add	sp, #8
 8005b44:	f85d eb04 	ldr.w	lr, [sp], #4
 8005b48:	b003      	add	sp, #12
 8005b4a:	4770      	bx	lr
 8005b4c:	20000018 	.word	0x20000018

08005b50 <__ascii_wctomb>:
 8005b50:	4603      	mov	r3, r0
 8005b52:	4608      	mov	r0, r1
 8005b54:	b141      	cbz	r1, 8005b68 <__ascii_wctomb+0x18>
 8005b56:	2aff      	cmp	r2, #255	@ 0xff
 8005b58:	d904      	bls.n	8005b64 <__ascii_wctomb+0x14>
 8005b5a:	228a      	movs	r2, #138	@ 0x8a
 8005b5c:	f04f 30ff 	mov.w	r0, #4294967295	@ 0xffffffff
 8005b60:	601a      	str	r2, [r3, #0]
 8005b62:	4770      	bx	lr
 8005b64:	2001      	movs	r0, #1
 8005b66:	700a      	strb	r2, [r1, #0]
 8005b68:	4770      	bx	lr

08005b6a <abort>:
 8005b6a:	2006      	movs	r0, #6
 8005b6c:	b508      	push	{r3, lr}
 8005b6e:	f000 fa57 	bl	8006020 <raise>
 8005b72:	2001      	movs	r0, #1
 8005b74:	f7fc f875 	bl	8001c62 <_exit>

08005b78 <__sfputc_r>:
 8005b78:	6893      	ldr	r3, [r2, #8]
 8005b7a:	b410      	push	{r4}
 8005b7c:	3b01      	subs	r3, #1
 8005b7e:	2b00      	cmp	r3, #0
 8005b80:	6093      	str	r3, [r2, #8]
 8005b82:	da07      	bge.n	8005b94 <__sfputc_r+0x1c>
 8005b84:	6994      	ldr	r4, [r2, #24]
 8005b86:	42a3      	cmp	r3, r4
 8005b88:	db01      	blt.n	8005b8e <__sfputc_r+0x16>
 8005b8a:	290a      	cmp	r1, #10
 8005b8c:	d102      	bne.n	8005b94 <__sfputc_r+0x1c>
 8005b8e:	bc10      	pop	{r4}
 8005b90:	f000 b92e 	b.w	8005df0 <__swbuf_r>
 8005b94:	6813      	ldr	r3, [r2, #0]
 8005b96:	1c58      	adds	r0, r3, #1
 8005b98:	6010      	str	r0, [r2, #0]
 8005b9a:	7019      	strb	r1, [r3, #0]
 8005b9c:	4608      	mov	r0, r1
 8005b9e:	bc10      	pop	{r4}
 8005ba0:	4770      	bx	lr

08005ba2 <__sfputs_r>:
 8005ba2:	b5f8      	push	{r3, r4, r5, r6, r7, lr}
 8005ba4:	4606      	mov	r6, r0
 8005ba6:	460f      	mov	r7, r1
 8005ba8:	4614      	mov	r4, r2
 8005baa:	18d5      	adds	r5, r2, r3
 8005bac:	42ac      	cmp	r4, r5
 8005bae:	d101      	bne.n	8005bb4 <__sfputs_r+0x12>
 8005bb0:	2000      	movs	r0, #0
 8005bb2:	e007      	b.n	8005bc4 <__sfputs_r+0x22>
 8005bb4:	463a      	mov	r2, r7
 8005bb6:	4630      	mov	r0, r6
 8005bb8:	f814 1b01 	ldrb.w	r1, [r4], #1
 8005bbc:	f7ff ffdc 	bl	8005b78 <__sfputc_r>
 8005bc0:	1c43      	adds	r3, r0, #1
 8005bc2:	d1f3      	bne.n	8005bac <__sfputs_r+0xa>
 8005bc4:	bdf8      	pop	{r3, r4, r5, r6, r7, pc}
	...

08005bc8 <_vfiprintf_r>:
 8005bc8:	e92d 47f0 	stmdb	sp!, {r4, r5, r6, r7, r8, r9, sl, lr}
 8005bcc:	460d      	mov	r5, r1
 8005bce:	4614      	mov	r4, r2
 8005bd0:	461f      	mov	r7, r3
 8005bd2:	4606      	mov	r6, r0
 8005bd4:	b09c      	sub	sp, #112	@ 0x70
 8005bd6:	b118      	cbz	r0, 8005be0 <_vfiprintf_r+0x18>
 8005bd8:	6a03      	ldr	r3, [r0, #32]
 8005bda:	b90b      	cbnz	r3, 8005be0 <_vfiprintf_r+0x18>
 8005bdc:	f7fe faa6 	bl	800412c <__sinit>
 8005be0:	6e6b      	ldr	r3, [r5, #100]	@ 0x64
 8005be2:	07d9      	lsls	r1, r3, #31
 8005be4:	d405      	bmi.n	8005bf2 <_vfiprintf_r+0x2a>
 8005be6:	89ab      	ldrh	r3, [r5, #12]
 8005be8:	059a      	lsls	r2, r3, #22
 8005bea:	d402      	bmi.n	8005bf2 <_vfiprintf_r+0x2a>
 8005bec:	6da8      	ldr	r0, [r5, #88]	@ 0x58
 8005bee:	f7fe fb06 	bl	80041fe <__retarget_lock_acquire_recursive>
 8005bf2:	89ab      	ldrh	r3, [r5, #12]
 8005bf4:	071b      	lsls	r3, r3, #28
 8005bf6:	d501      	bpl.n	8005bfc <_vfiprintf_r+0x34>
 8005bf8:	692b      	ldr	r3, [r5, #16]
 8005bfa:	b99b      	cbnz	r3, 8005c24 <_vfiprintf_r+0x5c>
 8005bfc:	4629      	mov	r1, r5
 8005bfe:	4630      	mov	r0, r6
 8005c00:	f000 f934 	bl	8005e6c <__swsetup_r>
 8005c04:	b170      	cbz	r0, 8005c24 <_vfiprintf_r+0x5c>
 8005c06:	6e6b      	ldr	r3, [r5, #100]	@ 0x64
 8005c08:	07dc      	lsls	r4, r3, #31
 8005c0a:	d504      	bpl.n	8005c16 <_vfiprintf_r+0x4e>
 8005c0c:	f04f 30ff 	mov.w	r0, #4294967295	@ 0xffffffff
 8005c10:	b01c      	add	sp, #112	@ 0x70
 8005c12:	e8bd 87f0 	ldmia.w	sp!, {r4, r5, r6, r7, r8, r9, sl, pc}
 8005c16:	89ab      	ldrh	r3, [r5, #12]
 8005c18:	0598      	lsls	r0, r3, #22
 8005c1a:	d4f7      	bmi.n	8005c0c <_vfiprintf_r+0x44>
 8005c1c:	6da8      	ldr	r0, [r5, #88]	@ 0x58
 8005c1e:	f7fe faef 	bl	8004200 <__retarget_lock_release_recursive>
 8005c22:	e7f3      	b.n	8005c0c <_vfiprintf_r+0x44>
 8005c24:	2300      	movs	r3, #0
 8005c26:	9309      	str	r3, [sp, #36]	@ 0x24
 8005c28:	2320      	movs	r3, #32
 8005c2a:	f88d 3029 	strb.w	r3, [sp, #41]	@ 0x29
 8005c2e:	2330      	movs	r3, #48	@ 0x30
 8005c30:	f04f 0801 	mov.w	r8, #1
 8005c34:	9703      	str	r7, [sp, #12]
 8005c36:	4f69      	ldr	r7, [pc, #420]	@ (8005ddc <_vfiprintf_r+0x214>)
 8005c38:	f88d 302a 	strb.w	r3, [sp, #42]	@ 0x2a
 8005c3c:	4623      	mov	r3, r4
 8005c3e:	4699      	mov	r9, r3
 8005c40:	f813 2b01 	ldrb.w	r2, [r3], #1
 8005c44:	b10a      	cbz	r2, 8005c4a <_vfiprintf_r+0x82>
 8005c46:	2a25      	cmp	r2, #37	@ 0x25
 8005c48:	d1f9      	bne.n	8005c3e <_vfiprintf_r+0x76>
 8005c4a:	ebb9 0a04 	subs.w	sl, r9, r4
 8005c4e:	d00b      	beq.n	8005c68 <_vfiprintf_r+0xa0>
 8005c50:	4653      	mov	r3, sl
 8005c52:	4622      	mov	r2, r4
 8005c54:	4629      	mov	r1, r5
 8005c56:	4630      	mov	r0, r6
 8005c58:	f7ff ffa3 	bl	8005ba2 <__sfputs_r>
 8005c5c:	3001      	adds	r0, #1
 8005c5e:	f000 80a4 	beq.w	8005daa <_vfiprintf_r+0x1e2>
 8005c62:	9a09      	ldr	r2, [sp, #36]	@ 0x24
 8005c64:	4452      	add	r2, sl
 8005c66:	9209      	str	r2, [sp, #36]	@ 0x24
 8005c68:	f899 3000 	ldrb.w	r3, [r9]
 8005c6c:	2b00      	cmp	r3, #0
 8005c6e:	f000 809c 	beq.w	8005daa <_vfiprintf_r+0x1e2>
 8005c72:	2300      	movs	r3, #0
 8005c74:	f04f 32ff 	mov.w	r2, #4294967295	@ 0xffffffff
 8005c78:	e9cd 2305 	strd	r2, r3, [sp, #20]
 8005c7c:	f109 0901 	add.w	r9, r9, #1
 8005c80:	9304      	str	r3, [sp, #16]
 8005c82:	9307      	str	r3, [sp, #28]
 8005c84:	f88d 3053 	strb.w	r3, [sp, #83]	@ 0x53
 8005c88:	931a      	str	r3, [sp, #104]	@ 0x68
 8005c8a:	464c      	mov	r4, r9
 8005c8c:	2205      	movs	r2, #5
 8005c8e:	f814 1b01 	ldrb.w	r1, [r4], #1
 8005c92:	4852      	ldr	r0, [pc, #328]	@ (8005ddc <_vfiprintf_r+0x214>)
 8005c94:	f7fe faba 	bl	800420c <memchr>
 8005c98:	9b04      	ldr	r3, [sp, #16]
 8005c9a:	b9d0      	cbnz	r0, 8005cd2 <_vfiprintf_r+0x10a>
 8005c9c:	06d9      	lsls	r1, r3, #27
 8005c9e:	bf44      	itt	mi
 8005ca0:	2220      	movmi	r2, #32
 8005ca2:	f88d 2053 	strbmi.w	r2, [sp, #83]	@ 0x53
 8005ca6:	071a      	lsls	r2, r3, #28
 8005ca8:	bf44      	itt	mi
 8005caa:	222b      	movmi	r2, #43	@ 0x2b
 8005cac:	f88d 2053 	strbmi.w	r2, [sp, #83]	@ 0x53
 8005cb0:	f899 2000 	ldrb.w	r2, [r9]
 8005cb4:	2a2a      	cmp	r2, #42	@ 0x2a
 8005cb6:	d013      	beq.n	8005ce0 <_vfiprintf_r+0x118>
 8005cb8:	464c      	mov	r4, r9
 8005cba:	2000      	movs	r0, #0
 8005cbc:	f04f 0c0a 	mov.w	ip, #10
 8005cc0:	9a07      	ldr	r2, [sp, #28]
 8005cc2:	4621      	mov	r1, r4
 8005cc4:	f811 3b01 	ldrb.w	r3, [r1], #1
 8005cc8:	3b30      	subs	r3, #48	@ 0x30
 8005cca:	2b09      	cmp	r3, #9
 8005ccc:	d949      	bls.n	8005d62 <_vfiprintf_r+0x19a>
 8005cce:	b968      	cbnz	r0, 8005cec <_vfiprintf_r+0x124>
 8005cd0:	e013      	b.n	8005cfa <_vfiprintf_r+0x132>
 8005cd2:	1bc0      	subs	r0, r0, r7
 8005cd4:	fa08 f000 	lsl.w	r0, r8, r0
 8005cd8:	4318      	orrs	r0, r3
 8005cda:	46a1      	mov	r9, r4
 8005cdc:	9004      	str	r0, [sp, #16]
 8005cde:	e7d4      	b.n	8005c8a <_vfiprintf_r+0xc2>
 8005ce0:	9a03      	ldr	r2, [sp, #12]
 8005ce2:	1d11      	adds	r1, r2, #4
 8005ce4:	6812      	ldr	r2, [r2, #0]
 8005ce6:	9103      	str	r1, [sp, #12]
 8005ce8:	2a00      	cmp	r2, #0
 8005cea:	db01      	blt.n	8005cf0 <_vfiprintf_r+0x128>
 8005cec:	9207      	str	r2, [sp, #28]
 8005cee:	e004      	b.n	8005cfa <_vfiprintf_r+0x132>
 8005cf0:	4252      	negs	r2, r2
 8005cf2:	f043 0302 	orr.w	r3, r3, #2
 8005cf6:	9207      	str	r2, [sp, #28]
 8005cf8:	9304      	str	r3, [sp, #16]
 8005cfa:	7823      	ldrb	r3, [r4, #0]
 8005cfc:	2b2e      	cmp	r3, #46	@ 0x2e
 8005cfe:	d10a      	bne.n	8005d16 <_vfiprintf_r+0x14e>
 8005d00:	7863      	ldrb	r3, [r4, #1]
 8005d02:	2b2a      	cmp	r3, #42	@ 0x2a
 8005d04:	d132      	bne.n	8005d6c <_vfiprintf_r+0x1a4>
 8005d06:	9b03      	ldr	r3, [sp, #12]
 8005d08:	3402      	adds	r4, #2
 8005d0a:	1d1a      	adds	r2, r3, #4
 8005d0c:	681b      	ldr	r3, [r3, #0]
 8005d0e:	9203      	str	r2, [sp, #12]
 8005d10:	ea43 73e3 	orr.w	r3, r3, r3, asr #31
 8005d14:	9305      	str	r3, [sp, #20]
 8005d16:	f8df 90c8 	ldr.w	r9, [pc, #200]	@ 8005de0 <_vfiprintf_r+0x218>
 8005d1a:	2203      	movs	r2, #3
 8005d1c:	4648      	mov	r0, r9
 8005d1e:	7821      	ldrb	r1, [r4, #0]
 8005d20:	f7fe fa74 	bl	800420c <memchr>
 8005d24:	b138      	cbz	r0, 8005d36 <_vfiprintf_r+0x16e>
 8005d26:	2240      	movs	r2, #64	@ 0x40
 8005d28:	9b04      	ldr	r3, [sp, #16]
 8005d2a:	eba0 0009 	sub.w	r0, r0, r9
 8005d2e:	4082      	lsls	r2, r0
 8005d30:	4313      	orrs	r3, r2
 8005d32:	3401      	adds	r4, #1
 8005d34:	9304      	str	r3, [sp, #16]
 8005d36:	f814 1b01 	ldrb.w	r1, [r4], #1
 8005d3a:	2206      	movs	r2, #6
 8005d3c:	4829      	ldr	r0, [pc, #164]	@ (8005de4 <_vfiprintf_r+0x21c>)
 8005d3e:	f88d 1028 	strb.w	r1, [sp, #40]	@ 0x28
 8005d42:	f7fe fa63 	bl	800420c <memchr>
 8005d46:	2800      	cmp	r0, #0
 8005d48:	d03e      	beq.n	8005dc8 <_vfiprintf_r+0x200>
 8005d4a:	4827      	ldr	r0, [pc, #156]	@ (8005de8 <_vfiprintf_r+0x220>)
 8005d4c:	bb18      	cbnz	r0, 8005d96 <_vfiprintf_r+0x1ce>
 8005d4e:	9b03      	ldr	r3, [sp, #12]
 8005d50:	3307      	adds	r3, #7
 8005d52:	f023 0307 	bic.w	r3, r3, #7
 8005d56:	3308      	adds	r3, #8
 8005d58:	9303      	str	r3, [sp, #12]
 8005d5a:	9b09      	ldr	r3, [sp, #36]	@ 0x24
 8005d5c:	4403      	add	r3, r0
 8005d5e:	9309      	str	r3, [sp, #36]	@ 0x24
 8005d60:	e76c      	b.n	8005c3c <_vfiprintf_r+0x74>
 8005d62:	460c      	mov	r4, r1
 8005d64:	2001      	movs	r0, #1
 8005d66:	fb0c 3202 	mla	r2, ip, r2, r3
 8005d6a:	e7aa      	b.n	8005cc2 <_vfiprintf_r+0xfa>
 8005d6c:	2300      	movs	r3, #0
 8005d6e:	f04f 0c0a 	mov.w	ip, #10
 8005d72:	4619      	mov	r1, r3
 8005d74:	3401      	adds	r4, #1
 8005d76:	9305      	str	r3, [sp, #20]
 8005d78:	4620      	mov	r0, r4
 8005d7a:	f810 2b01 	ldrb.w	r2, [r0], #1
 8005d7e:	3a30      	subs	r2, #48	@ 0x30
 8005d80:	2a09      	cmp	r2, #9
 8005d82:	d903      	bls.n	8005d8c <_vfiprintf_r+0x1c4>
 8005d84:	2b00      	cmp	r3, #0
 8005d86:	d0c6      	beq.n	8005d16 <_vfiprintf_r+0x14e>
 8005d88:	9105      	str	r1, [sp, #20]
 8005d8a:	e7c4      	b.n	8005d16 <_vfiprintf_r+0x14e>
 8005d8c:	4604      	mov	r4, r0
 8005d8e:	2301      	movs	r3, #1
 8005d90:	fb0c 2101 	mla	r1, ip, r1, r2
 8005d94:	e7f0      	b.n	8005d78 <_vfiprintf_r+0x1b0>
 8005d96:	ab03      	add	r3, sp, #12
 8005d98:	9300      	str	r3, [sp, #0]
 8005d9a:	462a      	mov	r2, r5
 8005d9c:	4630      	mov	r0, r6
 8005d9e:	4b13      	ldr	r3, [pc, #76]	@ (8005dec <_vfiprintf_r+0x224>)
 8005da0:	a904      	add	r1, sp, #16
 8005da2:	f7fd fd71 	bl	8003888 <_printf_float>
 8005da6:	1c43      	adds	r3, r0, #1
 8005da8:	d1d7      	bne.n	8005d5a <_vfiprintf_r+0x192>
 8005daa:	6e6b      	ldr	r3, [r5, #100]	@ 0x64
 8005dac:	07d9      	lsls	r1, r3, #31
 8005dae:	d405      	bmi.n	8005dbc <_vfiprintf_r+0x1f4>
 8005db0:	89ab      	ldrh	r3, [r5, #12]
 8005db2:	059a      	lsls	r2, r3, #22
 8005db4:	d402      	bmi.n	8005dbc <_vfiprintf_r+0x1f4>
 8005db6:	6da8      	ldr	r0, [r5, #88]	@ 0x58
 8005db8:	f7fe fa22 	bl	8004200 <__retarget_lock_release_recursive>
 8005dbc:	89ab      	ldrh	r3, [r5, #12]
 8005dbe:	065b      	lsls	r3, r3, #25
 8005dc0:	f53f af24 	bmi.w	8005c0c <_vfiprintf_r+0x44>
 8005dc4:	9809      	ldr	r0, [sp, #36]	@ 0x24
 8005dc6:	e723      	b.n	8005c10 <_vfiprintf_r+0x48>
 8005dc8:	ab03      	add	r3, sp, #12
 8005dca:	9300      	str	r3, [sp, #0]
 8005dcc:	462a      	mov	r2, r5
 8005dce:	4630      	mov	r0, r6
 8005dd0:	4b06      	ldr	r3, [pc, #24]	@ (8005dec <_vfiprintf_r+0x224>)
 8005dd2:	a904      	add	r1, sp, #16
 8005dd4:	f7fd fff6 	bl	8003dc4 <_printf_i>
 8005dd8:	e7e5      	b.n	8005da6 <_vfiprintf_r+0x1de>
 8005dda:	bf00      	nop
 8005ddc:	08006370 	.word	0x08006370
 8005de0:	08006376 	.word	0x08006376
 8005de4:	0800637a 	.word	0x0800637a
 8005de8:	08003889 	.word	0x08003889
 8005dec:	08005ba3 	.word	0x08005ba3

08005df0 <__swbuf_r>:
 8005df0:	b5f8      	push	{r3, r4, r5, r6, r7, lr}
 8005df2:	460e      	mov	r6, r1
 8005df4:	4614      	mov	r4, r2
 8005df6:	4605      	mov	r5, r0
 8005df8:	b118      	cbz	r0, 8005e02 <__swbuf_r+0x12>
 8005dfa:	6a03      	ldr	r3, [r0, #32]
 8005dfc:	b90b      	cbnz	r3, 8005e02 <__swbuf_r+0x12>
 8005dfe:	f7fe f995 	bl	800412c <__sinit>
 8005e02:	69a3      	ldr	r3, [r4, #24]
 8005e04:	60a3      	str	r3, [r4, #8]
 8005e06:	89a3      	ldrh	r3, [r4, #12]
 8005e08:	071a      	lsls	r2, r3, #28
 8005e0a:	d501      	bpl.n	8005e10 <__swbuf_r+0x20>
 8005e0c:	6923      	ldr	r3, [r4, #16]
 8005e0e:	b943      	cbnz	r3, 8005e22 <__swbuf_r+0x32>
 8005e10:	4621      	mov	r1, r4
 8005e12:	4628      	mov	r0, r5
 8005e14:	f000 f82a 	bl	8005e6c <__swsetup_r>
 8005e18:	b118      	cbz	r0, 8005e22 <__swbuf_r+0x32>
 8005e1a:	f04f 37ff 	mov.w	r7, #4294967295	@ 0xffffffff
 8005e1e:	4638      	mov	r0, r7
 8005e20:	bdf8      	pop	{r3, r4, r5, r6, r7, pc}
 8005e22:	6823      	ldr	r3, [r4, #0]
 8005e24:	6922      	ldr	r2, [r4, #16]
 8005e26:	b2f6      	uxtb	r6, r6
 8005e28:	1a98      	subs	r0, r3, r2
 8005e2a:	6963      	ldr	r3, [r4, #20]
 8005e2c:	4637      	mov	r7, r6
 8005e2e:	4283      	cmp	r3, r0
 8005e30:	dc05      	bgt.n	8005e3e <__swbuf_r+0x4e>
 8005e32:	4621      	mov	r1, r4
 8005e34:	4628      	mov	r0, r5
 8005e36:	f7ff f98d 	bl	8005154 <_fflush_r>
 8005e3a:	2800      	cmp	r0, #0
 8005e3c:	d1ed      	bne.n	8005e1a <__swbuf_r+0x2a>
 8005e3e:	68a3      	ldr	r3, [r4, #8]
 8005e40:	3b01      	subs	r3, #1
 8005e42:	60a3      	str	r3, [r4, #8]
 8005e44:	6823      	ldr	r3, [r4, #0]
 8005e46:	1c5a      	adds	r2, r3, #1
 8005e48:	6022      	str	r2, [r4, #0]
 8005e4a:	701e      	strb	r6, [r3, #0]
 8005e4c:	6962      	ldr	r2, [r4, #20]
 8005e4e:	1c43      	adds	r3, r0, #1
 8005e50:	429a      	cmp	r2, r3
 8005e52:	d004      	beq.n	8005e5e <__swbuf_r+0x6e>
 8005e54:	89a3      	ldrh	r3, [r4, #12]
 8005e56:	07db      	lsls	r3, r3, #31
 8005e58:	d5e1      	bpl.n	8005e1e <__swbuf_r+0x2e>
 8005e5a:	2e0a      	cmp	r6, #10
 8005e5c:	d1df      	bne.n	8005e1e <__swbuf_r+0x2e>
 8005e5e:	4621      	mov	r1, r4
 8005e60:	4628      	mov	r0, r5
 8005e62:	f7ff f977 	bl	8005154 <_fflush_r>
 8005e66:	2800      	cmp	r0, #0
 8005e68:	d0d9      	beq.n	8005e1e <__swbuf_r+0x2e>
 8005e6a:	e7d6      	b.n	8005e1a <__swbuf_r+0x2a>

08005e6c <__swsetup_r>:
 8005e6c:	b538      	push	{r3, r4, r5, lr}
 8005e6e:	4b28      	ldr	r3, [pc, #160]	@ (8005f10 <__swsetup_r+0xa4>)
 8005e70:	4605      	mov	r5, r0
 8005e72:	6818      	ldr	r0, [r3, #0]
 8005e74:	460c      	mov	r4, r1
 8005e76:	b118      	cbz	r0, 8005e80 <__swsetup_r+0x14>
 8005e78:	6a03      	ldr	r3, [r0, #32]
 8005e7a:	b90b      	cbnz	r3, 8005e80 <__swsetup_r+0x14>
 8005e7c:	f7fe f956 	bl	800412c <__sinit>
 8005e80:	f9b4 300c 	ldrsh.w	r3, [r4, #12]
 8005e84:	071a      	lsls	r2, r3, #28
 8005e86:	d421      	bmi.n	8005ecc <__swsetup_r+0x60>
 8005e88:	06d8      	lsls	r0, r3, #27
 8005e8a:	d407      	bmi.n	8005e9c <__swsetup_r+0x30>
 8005e8c:	2209      	movs	r2, #9
 8005e8e:	602a      	str	r2, [r5, #0]
 8005e90:	f043 0340 	orr.w	r3, r3, #64	@ 0x40
 8005e94:	f04f 30ff 	mov.w	r0, #4294967295	@ 0xffffffff
 8005e98:	81a3      	strh	r3, [r4, #12]
 8005e9a:	e030      	b.n	8005efe <__swsetup_r+0x92>
 8005e9c:	0759      	lsls	r1, r3, #29
 8005e9e:	d512      	bpl.n	8005ec6 <__swsetup_r+0x5a>
 8005ea0:	6b61      	ldr	r1, [r4, #52]	@ 0x34
 8005ea2:	b141      	cbz	r1, 8005eb6 <__swsetup_r+0x4a>
 8005ea4:	f104 0344 	add.w	r3, r4, #68	@ 0x44
 8005ea8:	4299      	cmp	r1, r3
 8005eaa:	d002      	beq.n	8005eb2 <__swsetup_r+0x46>
 8005eac:	4628      	mov	r0, r5
 8005eae:	f7ff fde3 	bl	8005a78 <_free_r>
 8005eb2:	2300      	movs	r3, #0
 8005eb4:	6363      	str	r3, [r4, #52]	@ 0x34
 8005eb6:	2200      	movs	r2, #0
 8005eb8:	f9b4 300c 	ldrsh.w	r3, [r4, #12]
 8005ebc:	6062      	str	r2, [r4, #4]
 8005ebe:	6922      	ldr	r2, [r4, #16]
 8005ec0:	f023 0324 	bic.w	r3, r3, #36	@ 0x24
 8005ec4:	6022      	str	r2, [r4, #0]
 8005ec6:	f043 0308 	orr.w	r3, r3, #8
 8005eca:	81a3      	strh	r3, [r4, #12]
 8005ecc:	6922      	ldr	r2, [r4, #16]
 8005ece:	b93a      	cbnz	r2, 8005ee0 <__swsetup_r+0x74>
 8005ed0:	059a      	lsls	r2, r3, #22
 8005ed2:	d501      	bpl.n	8005ed8 <__swsetup_r+0x6c>
 8005ed4:	0618      	lsls	r0, r3, #24
 8005ed6:	d503      	bpl.n	8005ee0 <__swsetup_r+0x74>
 8005ed8:	4621      	mov	r1, r4
 8005eda:	4628      	mov	r0, r5
 8005edc:	f000 f83e 	bl	8005f5c <__smakebuf_r>
 8005ee0:	f9b4 300c 	ldrsh.w	r3, [r4, #12]
 8005ee4:	f013 0201 	ands.w	r2, r3, #1
 8005ee8:	d00a      	beq.n	8005f00 <__swsetup_r+0x94>
 8005eea:	2200      	movs	r2, #0
 8005eec:	60a2      	str	r2, [r4, #8]
 8005eee:	6962      	ldr	r2, [r4, #20]
 8005ef0:	4252      	negs	r2, r2
 8005ef2:	61a2      	str	r2, [r4, #24]
 8005ef4:	6922      	ldr	r2, [r4, #16]
 8005ef6:	b942      	cbnz	r2, 8005f0a <__swsetup_r+0x9e>
 8005ef8:	f013 0080 	ands.w	r0, r3, #128	@ 0x80
 8005efc:	d1c8      	bne.n	8005e90 <__swsetup_r+0x24>
 8005efe:	bd38      	pop	{r3, r4, r5, pc}
 8005f00:	0799      	lsls	r1, r3, #30
 8005f02:	bf58      	it	pl
 8005f04:	6962      	ldrpl	r2, [r4, #20]
 8005f06:	60a2      	str	r2, [r4, #8]
 8005f08:	e7f4      	b.n	8005ef4 <__swsetup_r+0x88>
 8005f0a:	2000      	movs	r0, #0
 8005f0c:	e7f7      	b.n	8005efe <__swsetup_r+0x92>
 8005f0e:	bf00      	nop
 8005f10:	20000018 	.word	0x20000018

08005f14 <__swhatbuf_r>:
 8005f14:	b570      	push	{r4, r5, r6, lr}
 8005f16:	460c      	mov	r4, r1
 8005f18:	f9b1 100e 	ldrsh.w	r1, [r1, #14]
 8005f1c:	4615      	mov	r5, r2
 8005f1e:	2900      	cmp	r1, #0
 8005f20:	461e      	mov	r6, r3
 8005f22:	b096      	sub	sp, #88	@ 0x58
 8005f24:	da0a      	bge.n	8005f3c <__swhatbuf_r+0x28>
 8005f26:	89a1      	ldrh	r1, [r4, #12]
 8005f28:	f011 0180 	ands.w	r1, r1, #128	@ 0x80
 8005f2c:	d113      	bne.n	8005f56 <__swhatbuf_r+0x42>
 8005f2e:	f44f 6280 	mov.w	r2, #1024	@ 0x400
 8005f32:	2000      	movs	r0, #0
 8005f34:	6031      	str	r1, [r6, #0]
 8005f36:	602a      	str	r2, [r5, #0]
 8005f38:	b016      	add	sp, #88	@ 0x58
 8005f3a:	bd70      	pop	{r4, r5, r6, pc}
 8005f3c:	466a      	mov	r2, sp
 8005f3e:	f000 f89b 	bl	8006078 <_fstat_r>
 8005f42:	2800      	cmp	r0, #0
 8005f44:	dbef      	blt.n	8005f26 <__swhatbuf_r+0x12>
 8005f46:	9901      	ldr	r1, [sp, #4]
 8005f48:	f401 4170 	and.w	r1, r1, #61440	@ 0xf000
 8005f4c:	f5a1 5300 	sub.w	r3, r1, #8192	@ 0x2000
 8005f50:	4259      	negs	r1, r3
 8005f52:	4159      	adcs	r1, r3
 8005f54:	e7eb      	b.n	8005f2e <__swhatbuf_r+0x1a>
 8005f56:	2100      	movs	r1, #0
 8005f58:	2240      	movs	r2, #64	@ 0x40
 8005f5a:	e7ea      	b.n	8005f32 <__swhatbuf_r+0x1e>

08005f5c <__smakebuf_r>:
 8005f5c:	898b      	ldrh	r3, [r1, #12]
 8005f5e:	b573      	push	{r0, r1, r4, r5, r6, lr}
 8005f60:	079e      	lsls	r6, r3, #30
 8005f62:	4605      	mov	r5, r0
 8005f64:	460c      	mov	r4, r1
 8005f66:	d507      	bpl.n	8005f78 <__smakebuf_r+0x1c>
 8005f68:	f104 0347 	add.w	r3, r4, #71	@ 0x47
 8005f6c:	6023      	str	r3, [r4, #0]
 8005f6e:	6123      	str	r3, [r4, #16]
 8005f70:	2301      	movs	r3, #1
 8005f72:	6163      	str	r3, [r4, #20]
 8005f74:	b002      	add	sp, #8
 8005f76:	bd70      	pop	{r4, r5, r6, pc}
 8005f78:	ab01      	add	r3, sp, #4
 8005f7a:	466a      	mov	r2, sp
 8005f7c:	f7ff ffca 	bl	8005f14 <__swhatbuf_r>
 8005f80:	9e00      	ldr	r6, [sp, #0]
 8005f82:	4628      	mov	r0, r5
 8005f84:	4631      	mov	r1, r6
 8005f86:	f7fe ffe7 	bl	8004f58 <_malloc_r>
 8005f8a:	f9b4 300c 	ldrsh.w	r3, [r4, #12]
 8005f8e:	b938      	cbnz	r0, 8005fa0 <__smakebuf_r+0x44>
 8005f90:	059a      	lsls	r2, r3, #22
 8005f92:	d4ef      	bmi.n	8005f74 <__smakebuf_r+0x18>
 8005f94:	f023 0303 	bic.w	r3, r3, #3
 8005f98:	f043 0302 	orr.w	r3, r3, #2
 8005f9c:	81a3      	strh	r3, [r4, #12]
 8005f9e:	e7e3      	b.n	8005f68 <__smakebuf_r+0xc>
 8005fa0:	f043 0380 	orr.w	r3, r3, #128	@ 0x80
 8005fa4:	81a3      	strh	r3, [r4, #12]
 8005fa6:	9b01      	ldr	r3, [sp, #4]
 8005fa8:	e9c4 0604 	strd	r0, r6, [r4, #16]
 8005fac:	6020      	str	r0, [r4, #0]
 8005fae:	2b00      	cmp	r3, #0
 8005fb0:	d0e0      	beq.n	8005f74 <__smakebuf_r+0x18>
 8005fb2:	4628      	mov	r0, r5
 8005fb4:	f9b4 100e 	ldrsh.w	r1, [r4, #14]
 8005fb8:	f000 f83a 	bl	8006030 <_isatty_r>
 8005fbc:	2800      	cmp	r0, #0
 8005fbe:	d0d9      	beq.n	8005f74 <__smakebuf_r+0x18>
 8005fc0:	89a3      	ldrh	r3, [r4, #12]
 8005fc2:	f023 0303 	bic.w	r3, r3, #3
 8005fc6:	f043 0301 	orr.w	r3, r3, #1
 8005fca:	81a3      	strh	r3, [r4, #12]
 8005fcc:	e7d2      	b.n	8005f74 <__smakebuf_r+0x18>

08005fce <_raise_r>:
 8005fce:	291f      	cmp	r1, #31
 8005fd0:	b538      	push	{r3, r4, r5, lr}
 8005fd2:	4605      	mov	r5, r0
 8005fd4:	460c      	mov	r4, r1
 8005fd6:	d904      	bls.n	8005fe2 <_raise_r+0x14>
 8005fd8:	2316      	movs	r3, #22
 8005fda:	6003      	str	r3, [r0, #0]
 8005fdc:	f04f 30ff 	mov.w	r0, #4294967295	@ 0xffffffff
 8005fe0:	bd38      	pop	{r3, r4, r5, pc}
 8005fe2:	6bc2      	ldr	r2, [r0, #60]	@ 0x3c
 8005fe4:	b112      	cbz	r2, 8005fec <_raise_r+0x1e>
 8005fe6:	f852 3021 	ldr.w	r3, [r2, r1, lsl #2]
 8005fea:	b94b      	cbnz	r3, 8006000 <_raise_r+0x32>
 8005fec:	4628      	mov	r0, r5
 8005fee:	f000 f841 	bl	8006074 <_getpid_r>
 8005ff2:	4622      	mov	r2, r4
 8005ff4:	4601      	mov	r1, r0
 8005ff6:	4628      	mov	r0, r5
 8005ff8:	e8bd 4038 	ldmia.w	sp!, {r3, r4, r5, lr}
 8005ffc:	f000 b828 	b.w	8006050 <_kill_r>
 8006000:	2b01      	cmp	r3, #1
 8006002:	d00a      	beq.n	800601a <_raise_r+0x4c>
 8006004:	1c59      	adds	r1, r3, #1
 8006006:	d103      	bne.n	8006010 <_raise_r+0x42>
 8006008:	2316      	movs	r3, #22
 800600a:	6003      	str	r3, [r0, #0]
 800600c:	2001      	movs	r0, #1
 800600e:	e7e7      	b.n	8005fe0 <_raise_r+0x12>
 8006010:	2100      	movs	r1, #0
 8006012:	4620      	mov	r0, r4
 8006014:	f842 1024 	str.w	r1, [r2, r4, lsl #2]
 8006018:	4798      	blx	r3
 800601a:	2000      	movs	r0, #0
 800601c:	e7e0      	b.n	8005fe0 <_raise_r+0x12>
	...

08006020 <raise>:
 8006020:	4b02      	ldr	r3, [pc, #8]	@ (800602c <raise+0xc>)
 8006022:	4601      	mov	r1, r0
 8006024:	6818      	ldr	r0, [r3, #0]
 8006026:	f7ff bfd2 	b.w	8005fce <_raise_r>
 800602a:	bf00      	nop
 800602c:	20000018 	.word	0x20000018

08006030 <_isatty_r>:
 8006030:	b538      	push	{r3, r4, r5, lr}
 8006032:	2300      	movs	r3, #0
 8006034:	4d05      	ldr	r5, [pc, #20]	@ (800604c <_isatty_r+0x1c>)
 8006036:	4604      	mov	r4, r0
 8006038:	4608      	mov	r0, r1
 800603a:	602b      	str	r3, [r5, #0]
 800603c:	f7fb fe2d 	bl	8001c9a <_isatty>
 8006040:	1c43      	adds	r3, r0, #1
 8006042:	d102      	bne.n	800604a <_isatty_r+0x1a>
 8006044:	682b      	ldr	r3, [r5, #0]
 8006046:	b103      	cbz	r3, 800604a <_isatty_r+0x1a>
 8006048:	6023      	str	r3, [r4, #0]
 800604a:	bd38      	pop	{r3, r4, r5, pc}
 800604c:	20000aa8 	.word	0x20000aa8

08006050 <_kill_r>:
 8006050:	b538      	push	{r3, r4, r5, lr}
 8006052:	2300      	movs	r3, #0
 8006054:	4d06      	ldr	r5, [pc, #24]	@ (8006070 <_kill_r+0x20>)
 8006056:	4604      	mov	r4, r0
 8006058:	4608      	mov	r0, r1
 800605a:	4611      	mov	r1, r2
 800605c:	602b      	str	r3, [r5, #0]
 800605e:	f7fb fdf8 	bl	8001c52 <_kill>
 8006062:	1c43      	adds	r3, r0, #1
 8006064:	d102      	bne.n	800606c <_kill_r+0x1c>
 8006066:	682b      	ldr	r3, [r5, #0]
 8006068:	b103      	cbz	r3, 800606c <_kill_r+0x1c>
 800606a:	6023      	str	r3, [r4, #0]
 800606c:	bd38      	pop	{r3, r4, r5, pc}
 800606e:	bf00      	nop
 8006070:	20000aa8 	.word	0x20000aa8

08006074 <_getpid_r>:
 8006074:	f7fb bdeb 	b.w	8001c4e <_getpid>

08006078 <_fstat_r>:
 8006078:	b538      	push	{r3, r4, r5, lr}
 800607a:	2300      	movs	r3, #0
 800607c:	4d06      	ldr	r5, [pc, #24]	@ (8006098 <_fstat_r+0x20>)
 800607e:	4604      	mov	r4, r0
 8006080:	4608      	mov	r0, r1
 8006082:	4611      	mov	r1, r2
 8006084:	602b      	str	r3, [r5, #0]
 8006086:	f7fb fe03 	bl	8001c90 <_fstat>
 800608a:	1c43      	adds	r3, r0, #1
 800608c:	d102      	bne.n	8006094 <_fstat_r+0x1c>
 800608e:	682b      	ldr	r3, [r5, #0]
 8006090:	b103      	cbz	r3, 8006094 <_fstat_r+0x1c>
 8006092:	6023      	str	r3, [r4, #0]
 8006094:	bd38      	pop	{r3, r4, r5, pc}
 8006096:	bf00      	nop
 8006098:	20000aa8 	.word	0x20000aa8

0800609c <_init>:
 800609c:	b5f8      	push	{r3, r4, r5, r6, r7, lr}
 800609e:	bf00      	nop
 80060a0:	bcf8      	pop	{r3, r4, r5, r6, r7}
 80060a2:	bc08      	pop	{r3}
 80060a4:	469e      	mov	lr, r3
 80060a6:	4770      	bx	lr

080060a8 <_fini>:
 80060a8:	b5f8      	push	{r3, r4, r5, r6, r7, lr}
 80060aa:	bf00      	nop
 80060ac:	bcf8      	pop	{r3, r4, r5, r6, r7}
 80060ae:	bc08      	pop	{r3}
 80060b0:	469e      	mov	lr, r3
 80060b2:	4770      	bx	lr
